 LegitWare

 Timestamp is 5ade65b0 (Tue Apr 24 01:01:04 2018)

 Preferred load address is 10000000

 Start         Length     Name                   Class
 0001:00000000 0004d856H .textbss                DATA
 0002:00000000 00011dc0H .text$di                CODE
 0002:00011dc0 00095b00H .text$mn                CODE
 0002:000a78c0 000090e0H .text$x                 CODE
 0002:000b09a0 0000149eH .text$yd                CODE
 0003:00000000 00000104H .CRT$XCA                DATA
 0003:00000104 00000104H .CRT$XCL                DATA
 0003:00000208 000001b8H .CRT$XCU                DATA
 0003:000003c0 00000104H .CRT$XCZ                DATA
 0003:000004c4 00000104H .CRT$XIA                DATA
 0003:000005c8 00000104H .CRT$XIC                DATA
 0003:000006cc 00000104H .CRT$XIZ                DATA
 0003:000007d0 00000004H .CRT$XLA                DATA
 0003:000007d4 00000004H .CRT$XLZ                DATA
 0003:000007d8 00000104H .CRT$XPA                DATA
 0003:000008dc 00000104H .CRT$XPZ                DATA
 0003:000009e0 00000104H .CRT$XTA                DATA
 0003:00000ae4 0000011cH .CRT$XTZ                DATA
 0003:00000c00 00007d74H .rdata                  DATA
 0003:00008974 0000011cH .rdata$T                DATA
 0003:00008a90 00001e34H .rdata$r                DATA
 0003:0000a8c4 0000018cH .rdata$zzzdbg           DATA
 0003:0000aa50 00000104H .rtc$IAA                DATA
 0003:0000ab54 00000104H .rtc$IZZ                DATA
 0003:0000ac58 00000104H .rtc$TAA                DATA
 0003:0000ad5c 00000104H .rtc$TZZ                DATA
 0003:0000ae60 00008addH .xdata$x                DATA
 0003:0001393d 00000000H .edata                  DATA
 0004:00000000 00000270H .data                   DATA
 0004:00000270 00001308H .data$r                 DATA
 0004:00001578 00020cf8H .bss                    DATA
 0005:00000000 00000758H .idata$5                DATA
 0005:00000758 00000118H .idata$2                DATA
 0005:00000870 00000014H .idata$3                DATA
 0005:00000884 00000758H .idata$4                DATA
 0005:00000fdc 00002f8dH .idata$6                DATA
 0006:00000000 00000104H .tls                    DATA
 0006:00000104 00000104H .tls$                   DATA
 0006:00000208 00000101H .tls$ZZZ                DATA
 0007:00000000 00000104H .00cfg                  DATA
 0008:00000000 00000170H .rsrc$01                DATA
 0008:00000170 000002ccH .rsrc$02                DATA

  Address         Publics by Value              Rva+Base       Lib:Object

 0000:00000000       ___guard_longjmp_table     00000000     <absolute>
 0000:00000000       ___safe_se_handler_table   00000000     <absolute>
 0000:00000000       ___guard_longjmp_count     00000000     <absolute>
 0000:00000000       ___guard_iat_table         00000000     <absolute>
 0000:00000000       ___enclave_config          00000000     <absolute>
 0000:00000000       ___safe_se_handler_count   00000000     <absolute>
 0000:00000000       ___hybrid_auxiliary_iat    00000000     <absolute>
 0000:00000000       ___guard_fids_table        00000000     <absolute>
 0000:00000000       ___hybrid_code_map_count   00000000     <absolute>
 0000:00000000       ___hybrid_code_map         00000000     <absolute>
 0000:00000000       ___guard_iat_count         00000000     <absolute>
 0000:00000000       ___dynamic_value_reloc_table 00000000     <absolute>
 0000:00000000       ___guard_fids_count        00000000     <absolute>
 0000:0000002c       __tls_array                0000002c     <absolute>
 0000:00000100       ___guard_flags             00000100     <absolute>
 0000:00000000       ___ImageBase               10000000     <linker-defined>
 0001:00000000       __enc$textbss$begin        10001000     <linker-defined>
 0001:0004d856       __enc$textbss$end          1004e856     <linker-defined>
 0002:00011dc0       ??$?0$$V@?$_Compressed_pair@V?$allocator@D@std@@V?$_String_val@U?$_Simple_types@D@std@@@2@$00@std@@QAE@U_Zero_then_variadic_args_t@1@@Z 10060dc0 f i FireEventClientSide.obj
 0002:00011e00       ??$?0AAU?$equal_to@H@std@@M@?$_Compressed_pair@U?$equal_to@H@std@@M$00@std@@QAE@U_One_then_variadic_args_t@1@AAU?$equal_to@H@1@$$QAM@Z 10060e00 f i FireEventClientSide.obj
 0002:00011e50       ??$?0AAU?$hash@H@std@@U_One_then_variadic_args_t@1@AAU?$equal_to@H@1@M@?$_Compressed_pair@U?$hash@H@std@@V?$_Compressed_pair@U?$equal_to@H@std@@M$00@2@$00@std@@QAE@U_One_then_variadic_args_t@1@AAU?$hash@H@1@$$QAU21@AAU?$equal_to@H@1@$$QAM@Z 10060e50 f i FireEventClientSide.obj
 0002:00011ec0       ??$?0ABV?$allocator@U?$pair@$$CBHUWeaponItemCfg_t@@@std@@@std@@$$V@?$_Compressed_pair@V?$allocator@U?$_List_node@U?$pair@$$CBHUWeaponItemCfg_t@@@std@@PAX@std@@@std@@V?$_List_val@U?$_List_simple_types@U?$pair@$$CBHUWeaponItemCfg_t@@@std@@@std@@@2@$00@std@@QAE@U_One_then_variadic_args_t@1@ABV?$allocator@U?$pair@$$CBHUWeaponItemCfg_t@@@std@@@1@@Z 10060ec0 f i FireEventClientSide.obj
 0002:00011f10       ??$?0ABV?$allocator@U?$pair@$$CBHUWeaponItemCfg_t@@@std@@@std@@X@?$_List_alloc@U?$_List_base_types@U?$pair@$$CBHUWeaponItemCfg_t@@@std@@V?$allocator@U?$pair@$$CBHUWeaponItemCfg_t@@@std@@@2@@std@@@std@@QAE@ABV?$allocator@U?$pair@$$CBHUWeaponItemCfg_t@@@std@@@1@@Z 10060f10 f i FireEventClientSide.obj
 0002:00011f70       ??$?0ABV?$allocator@U?$pair@$$CBHUWeaponItemCfg_t@@@std@@@std@@X@?$_List_buy@U?$pair@$$CBHUWeaponItemCfg_t@@@std@@V?$allocator@U?$pair@$$CBHUWeaponItemCfg_t@@@std@@@2@@std@@QAE@ABV?$allocator@U?$pair@$$CBHUWeaponItemCfg_t@@@std@@@1@@Z 10060f70 f i FireEventClientSide.obj
 0002:00011fb0       ??$?0ABV?$allocator@V?$_List_unchecked_iterator@V?$_List_val@U?$_List_simple_types@U?$pair@$$CBHUWeaponItemCfg_t@@@std@@@std@@@std@@@std@@@std@@$$V@?$_Compressed_pair@V?$allocator@V?$_List_unchecked_iterator@V?$_List_val@U?$_List_simple_types@U?$pair@$$CBHUWeaponItemCfg_t@@@std@@@std@@@std@@@std@@@std@@V?$_Vector_val@U?$_Simple_types@V?$_List_unchecked_iterator@V?$_List_val@U?$_List_simple_types@U?$pair@$$CBHUWeaponItemCfg_t@@@std@@@std@@@std@@@std@@@std@@@2@$00@std@@QAE@U_One_then_variadic_args_t@1@ABV?$allocator@V?$_List_unchecked_iterator@V?$_List_val@U?$_List_simple_types@U?$pair@$$CBHUWeaponItemCfg_t@@@std@@@std@@@std@@@std@@@1@@Z 10060fb0 f i FireEventClientSide.obj
 0002:00011ff0       ??$?0ABV?$allocator@V?$_List_unchecked_iterator@V?$_List_val@U?$_List_simple_types@U?$pair@$$CBHUWeaponItemCfg_t@@@std@@@std@@@std@@@std@@@std@@X@?$_Vector_alloc@U?$_Vec_base_types@V?$_List_unchecked_iterator@V?$_List_val@U?$_List_simple_types@U?$pair@$$CBHUWeaponItemCfg_t@@@std@@@std@@@std@@@std@@V?$allocator@V?$_List_unchecked_iterator@V?$_List_val@U?$_List_simple_types@U?$pair@$$CBHUWeaponItemCfg_t@@@std@@@std@@@std@@@std@@@2@@std@@@std@@QAE@ABV?$allocator@V?$_List_unchecked_iterator@V?$_List_val@U?$_List_simple_types@U?$pair@$$CBHUWeaponItemCfg_t@@@std@@@std@@@std@@@std@@@1@@Z 10060ff0 f i FireEventClientSide.obj
 0002:00012030       ??$?0U?$integral_constant@_N$00@std@@@_Unused_parameter@std@@QAE@$$QAU?$integral_constant@_N$00@1@@Z 10061030 f i FireEventClientSide.obj
 0002:00012050       ??$?0U?$pair@$$CBHUWeaponItemCfg_t@@@std@@@?$allocator@U?$_List_node@U?$pair@$$CBHUWeaponItemCfg_t@@@std@@PAX@std@@@std@@QAE@ABV?$allocator@U?$pair@$$CBHUWeaponItemCfg_t@@@std@@@1@@Z 10061050 f i FireEventClientSide.obj
 0002:00012070       ??$?0U?$pair@$$CBHUWeaponItemCfg_t@@@std@@@?$allocator@V?$_List_unchecked_iterator@V?$_List_val@U?$_List_simple_types@U?$pair@$$CBHUWeaponItemCfg_t@@@std@@@std@@@std@@@std@@@std@@QAE@ABV?$allocator@U?$pair@$$CBHUWeaponItemCfg_t@@@std@@@1@@Z 10061070 f i FireEventClientSide.obj
 0002:00012090       ??$_Allocate@$07U_Default_allocate_traits@std@@$0A@@std@@YAPAXI@Z 10061090 f i FireEventClientSide.obj
 0002:000120e0       ??$_Allocate_manually_vector_aligned@U_Default_allocate_traits@std@@@std@@YAPAXI@Z 100610e0 f i FireEventClientSide.obj
 0002:00012160       ??$_Convert_size@I@std@@YAII@Z 10061160 f i FireEventClientSide.obj
 0002:00012180       ??$_Deallocate@$07$0A@@std@@YAXPAXI@Z 10061180 f i FireEventClientSide.obj
 0002:000121d0       ??$_Destroy_range1@V?$allocator@V?$_List_unchecked_iterator@V?$_List_val@U?$_List_simple_types@U?$pair@$$CBHUWeaponItemCfg_t@@@std@@@std@@@std@@@std@@@std@@@std@@YAXPAV?$_List_unchecked_iterator@V?$_List_val@U?$_List_simple_types@U?$pair@$$CBHUWeaponItemCfg_t@@@std@@@std@@@std@@@0@0AAV?$allocator@V?$_List_unchecked_iterator@V?$_List_val@U?$_List_simple_types@U?$pair@$$CBHUWeaponItemCfg_t@@@std@@@std@@@std@@@std@@@0@U?$integral_constant@_N$00@0@@Z 100611d0 f i FireEventClientSide.obj
 0002:000121f0       ??$_Destroy_range@V?$allocator@V?$_List_unchecked_iterator@V?$_List_val@U?$_List_simple_types@U?$pair@$$CBHUWeaponItemCfg_t@@@std@@@std@@@std@@@std@@@std@@@std@@YAXPAV?$_List_unchecked_iterator@V?$_List_val@U?$_List_simple_types@U?$pair@$$CBHUWeaponItemCfg_t@@@std@@@std@@@std@@@0@0AAV?$allocator@V?$_List_unchecked_iterator@V?$_List_val@U?$_List_simple_types@U?$pair@$$CBHUWeaponItemCfg_t@@@std@@@std@@@std@@@std@@@0@@Z 100611f0 f i FireEventClientSide.obj
 0002:00012230       ??$_Fill_memset_is_safe@PAV?$_List_unchecked_iterator@V?$_List_val@U?$_List_simple_types@U?$pair@$$CBHUWeaponItemCfg_t@@@std@@@std@@@std@@@std@@V12@@std@@YA?AU?$integral_constant@_N$0A@@0@ABQAV?$_List_unchecked_iterator@V?$_List_val@U?$_List_simple_types@U?$pair@$$CBHUWeaponItemCfg_t@@@std@@@std@@@std@@@0@ABV20@@Z 10061230 f i FireEventClientSide.obj
 0002:00012250       ??$_Fill_unchecked1@PAV?$_List_unchecked_iterator@V?$_List_val@U?$_List_simple_types@U?$pair@$$CBHUWeaponItemCfg_t@@@std@@@std@@@std@@@std@@V12@@std@@YAXPAV?$_List_unchecked_iterator@V?$_List_val@U?$_List_simple_types@U?$pair@$$CBHUWeaponItemCfg_t@@@std@@@std@@@std@@@0@0ABV10@U?$integral_constant@_N$0A@@0@@Z 10061250 f i FireEventClientSide.obj
 0002:00012290       ??$_Fill_unchecked@PAV?$_List_unchecked_iterator@V?$_List_val@U?$_List_simple_types@U?$pair@$$CBHUWeaponItemCfg_t@@@std@@@std@@@std@@@std@@V12@@std@@YAXPAV?$_List_unchecked_iterator@V?$_List_val@U?$_List_simple_types@U?$pair@$$CBHUWeaponItemCfg_t@@@std@@@std@@@std@@@0@0ABV10@@Z 10061290 f i FireEventClientSide.obj
 0002:000122e0       ??$_Freenode0@V?$allocator@U?$_List_node@U?$pair@$$CBHUWeaponItemCfg_t@@@std@@PAX@std@@@std@@@?$_List_node@U?$pair@$$CBHUWeaponItemCfg_t@@@std@@PAX@std@@SAXAAV?$allocator@U?$_List_node@U?$pair@$$CBHUWeaponItemCfg_t@@@std@@PAX@std@@@1@PAU01@@Z 100612e0 f i FireEventClientSide.obj
 0002:000123a0       ??$_Get_size_of_n@$00@std@@YAII@Z 100613a0 f i FireEventClientSide.obj
 0002:000123c0       ??$_Get_size_of_n@$03@std@@YAII@Z 100613c0 f i FireEventClientSide.obj
 0002:00012400       ??$_Get_size_of_n@$0HI@@std@@YAII@Z 10061400 f i FireEventClientSide.obj
 0002:00012440       ??$_Getvals@_W@?$time_get@DV?$istreambuf_iterator@DU?$char_traits@D@std@@@std@@@std@@IAEX_WABV_Locinfo@1@@Z 10061440 f i FireEventClientSide.obj
 0002:00012560       ??$_Getvals@_W@?$time_get@_WV?$istreambuf_iterator@_WU?$char_traits@_W@std@@@std@@@std@@IAEX_WABV_Locinfo@1@@Z 10061560 f i FireEventClientSide.obj
 0002:00012680       ??$_Maklocstr@D@std@@YAPADPBDPADABU_Cvtvec@@@Z 10061680 f i FireEventClientSide.obj
 0002:00012720       ??$_Maklocstr@_W@std@@YAPA_WPBDPA_WABU_Cvtvec@@@Z 10061720 f i FireEventClientSide.obj
 0002:000128a0       ??$_Max_value@I@std@@YAABIABI0@Z 100618a0 f i FireEventClientSide.obj
 0002:000128e0       ??$_Min_value@I@std@@YAABIABI0@Z 100618e0 f i FireEventClientSide.obj
 0002:00012920       ??$_Ptr_move_cat@V?$_List_unchecked_iterator@V?$_List_val@U?$_List_simple_types@U?$pair@$$CBHUWeaponItemCfg_t@@@std@@@std@@@std@@@std@@V12@@std@@YA?AU_Trivially_copyable_ptr_iterator_tag@0@ABQAV?$_List_unchecked_iterator@V?$_List_val@U?$_List_simple_types@U?$pair@$$CBHUWeaponItemCfg_t@@@std@@@std@@@std@@@0@0@Z 10061920 f i FireEventClientSide.obj
 0002:00012a80       ??$_Rechecked@PAV?$_List_unchecked_iterator@V?$_List_val@U?$_List_simple_types@U?$pair@$$CBHUWeaponItemCfg_t@@@std@@@std@@@std@@@std@@PAV12@@std@@YAAAPAV?$_List_unchecked_iterator@V?$_List_val@U?$_List_simple_types@U?$pair@$$CBHUWeaponItemCfg_t@@@std@@@std@@@std@@@0@AAPAV10@QAV10@@Z 10061a80 f i FireEventClientSide.obj
 0002:00012ab0       ??$_Unchecked@PAV?$_List_unchecked_iterator@V?$_List_val@U?$_List_simple_types@U?$pair@$$CBHUWeaponItemCfg_t@@@std@@@std@@@std@@@std@@@std@@YAPAV?$_List_unchecked_iterator@V?$_List_val@U?$_List_simple_types@U?$pair@$$CBHUWeaponItemCfg_t@@@std@@@std@@@std@@@0@PAV10@@Z 10061ab0 f i FireEventClientSide.obj
 0002:00012ad0       ??$_Unfancy@D@std@@YAPADPAD@Z 10061ad0 f i FireEventClientSide.obj
 0002:00012af0       ??$_Unfancy@V?$_List_unchecked_iterator@V?$_List_val@U?$_List_simple_types@U?$pair@$$CBHUWeaponItemCfg_t@@@std@@@std@@@std@@@std@@@std@@YAPAV?$_List_unchecked_iterator@V?$_List_val@U?$_List_simple_types@U?$pair@$$CBHUWeaponItemCfg_t@@@std@@@std@@@std@@@0@PAV10@@Z 10061af0 f i FireEventClientSide.obj
 0002:00012b10       ??$_Uninit_alloc_fill_n1@PAV?$_List_unchecked_iterator@V?$_List_val@U?$_List_simple_types@U?$pair@$$CBHUWeaponItemCfg_t@@@std@@@std@@@std@@@std@@IV?$allocator@V?$_List_unchecked_iterator@V?$_List_val@U?$_List_simple_types@U?$pair@$$CBHUWeaponItemCfg_t@@@std@@@std@@@std@@@std@@@2@@std@@YAPAV?$_List_unchecked_iterator@V?$_List_val@U?$_List_simple_types@U?$pair@$$CBHUWeaponItemCfg_t@@@std@@@std@@@std@@@0@PAV10@IABV10@AAV?$allocator@V?$_List_unchecked_iterator@V?$_List_val@U?$_List_simple_types@U?$pair@$$CBHUWeaponItemCfg_t@@@std@@@std@@@std@@@std@@@0@U?$integral_constant@_N$0A@@0@@Z 10061b10 f i FireEventClientSide.obj
 0002:00012c10       ??$_Uninitialized_fill_n@PAV?$_List_unchecked_iterator@V?$_List_val@U?$_List_simple_types@U?$pair@$$CBHUWeaponItemCfg_t@@@std@@@std@@@std@@@std@@IV?$allocator@V?$_List_unchecked_iterator@V?$_List_val@U?$_List_simple_types@U?$pair@$$CBHUWeaponItemCfg_t@@@std@@@std@@@std@@@std@@@2@@std@@YAPAV?$_List_unchecked_iterator@V?$_List_val@U?$_List_simple_types@U?$pair@$$CBHUWeaponItemCfg_t@@@std@@@std@@@std@@@0@PAV10@IABV10@AAV?$allocator@V?$_List_unchecked_iterator@V?$_List_val@U?$_List_simple_types@U?$pair@$$CBHUWeaponItemCfg_t@@@std@@@std@@@std@@@std@@@0@@Z 10061c10 f i FireEventClientSide.obj
 0002:00012c50       ??$_Uninitialized_move@PAV?$_List_unchecked_iterator@V?$_List_val@U?$_List_simple_types@U?$pair@$$CBHUWeaponItemCfg_t@@@std@@@std@@@std@@@std@@PAV12@V?$allocator@V?$_List_unchecked_iterator@V?$_List_val@U?$_List_simple_types@U?$pair@$$CBHUWeaponItemCfg_t@@@std@@@std@@@std@@@std@@@2@@std@@YAPAV?$_List_unchecked_iterator@V?$_List_val@U?$_List_simple_types@U?$pair@$$CBHUWeaponItemCfg_t@@@std@@@std@@@std@@@0@PAV10@00AAV?$allocator@V?$_List_unchecked_iterator@V?$_List_val@U?$_List_simple_types@U?$pair@$$CBHUWeaponItemCfg_t@@@std@@@std@@@std@@@std@@@0@@Z 10061c50 f i FireEventClientSide.obj
 0002:00012d20       ??$_Uninitialized_move_al_unchecked@PAV?$_List_unchecked_iterator@V?$_List_val@U?$_List_simple_types@U?$pair@$$CBHUWeaponItemCfg_t@@@std@@@std@@@std@@@std@@PAV12@V?$allocator@V?$_List_unchecked_iterator@V?$_List_val@U?$_List_simple_types@U?$pair@$$CBHUWeaponItemCfg_t@@@std@@@std@@@std@@@std@@@2@@std@@YAPAV?$_List_unchecked_iterator@V?$_List_val@U?$_List_simple_types@U?$pair@$$CBHUWeaponItemCfg_t@@@std@@@std@@@std@@@0@PAV10@00AAV?$allocator@V?$_List_unchecked_iterator@V?$_List_val@U?$_List_simple_types@U?$pair@$$CBHUWeaponItemCfg_t@@@std@@@std@@@std@@@std@@@0@U_General_ptr_iterator_tag@0@U_Unused_parameter@0@@Z 10061d20 f i FireEventClientSide.obj
 0002:00012e20       ??$addressof@PAD@std@@YAPAPADAAPAD@Z 10061e20 f i FireEventClientSide.obj
 0002:00012e40       ??$addressof@PAU?$_List_node@U?$pair@$$CBHUWeaponItemCfg_t@@@std@@PAX@std@@@std@@YAPAPAU?$_List_node@U?$pair@$$CBHUWeaponItemCfg_t@@@std@@PAX@0@AAPAU10@@Z 10061e40 f i FireEventClientSide.obj
 0002:00012e60       ??$addressof@U?$pair@$$CBHUWeaponItemCfg_t@@@std@@@std@@YAPAU?$pair@$$CBHUWeaponItemCfg_t@@@0@AAU10@@Z 10061e60 f i FireEventClientSide.obj
 0002:00012e80       ??$construct@PADABQAD@?$_Default_allocator_traits@V?$allocator@D@std@@@std@@SAXAAV?$allocator@D@1@QAPADABQAD@Z 10061e80 f i FireEventClientSide.obj
 0002:00012ed0       ??$construct@PAU?$_List_node@U?$pair@$$CBHUWeaponItemCfg_t@@@std@@PAX@std@@AAPAU12@@?$_Default_allocator_traits@V?$allocator@U?$_List_node@U?$pair@$$CBHUWeaponItemCfg_t@@@std@@PAX@std@@@std@@@std@@SAXAAV?$allocator@U?$_List_node@U?$pair@$$CBHUWeaponItemCfg_t@@@std@@PAX@std@@@1@QAPAU?$_List_node@U?$pair@$$CBHUWeaponItemCfg_t@@@std@@PAX@1@AAPAU31@@Z 10061ed0 f i FireEventClientSide.obj
 0002:00012f20       ??$construct@V?$_List_unchecked_iterator@V?$_List_val@U?$_List_simple_types@U?$pair@$$CBHUWeaponItemCfg_t@@@std@@@std@@@std@@@std@@ABV12@@?$_Default_allocator_traits@V?$allocator@V?$_List_unchecked_iterator@V?$_List_val@U?$_List_simple_types@U?$pair@$$CBHUWeaponItemCfg_t@@@std@@@std@@@std@@@std@@@std@@@std@@SAXAAV?$allocator@V?$_List_unchecked_iterator@V?$_List_val@U?$_List_simple_types@U?$pair@$$CBHUWeaponItemCfg_t@@@std@@@std@@@std@@@std@@@1@QAV?$_List_unchecked_iterator@V?$_List_val@U?$_List_simple_types@U?$pair@$$CBHUWeaponItemCfg_t@@@std@@@std@@@std@@@1@ABV31@@Z 10061f20 f i FireEventClientSide.obj
 0002:00012f70       ??$construct@V?$_List_unchecked_iterator@V?$_List_val@U?$_List_simple_types@U?$pair@$$CBHUWeaponItemCfg_t@@@std@@@std@@@std@@@std@@V12@@?$_Default_allocator_traits@V?$allocator@V?$_List_unchecked_iterator@V?$_List_val@U?$_List_simple_types@U?$pair@$$CBHUWeaponItemCfg_t@@@std@@@std@@@std@@@std@@@std@@@std@@SAXAAV?$allocator@V?$_List_unchecked_iterator@V?$_List_val@U?$_List_simple_types@U?$pair@$$CBHUWeaponItemCfg_t@@@std@@@std@@@std@@@std@@@1@QAV?$_List_unchecked_iterator@V?$_List_val@U?$_List_simple_types@U?$pair@$$CBHUWeaponItemCfg_t@@@std@@@std@@@std@@@1@$$QAV31@@Z 10061f70 f i FireEventClientSide.obj
 0002:00012fc0       ??$destroy@PAD@?$_Default_allocator_traits@V?$allocator@D@std@@@std@@SAXAAV?$allocator@D@1@QAPAD@Z 10061fc0 f i FireEventClientSide.obj
 0002:00012fe0       ??$destroy@PAU?$_List_node@U?$pair@$$CBHUWeaponItemCfg_t@@@std@@PAX@std@@@?$_Default_allocator_traits@V?$allocator@U?$_List_node@U?$pair@$$CBHUWeaponItemCfg_t@@@std@@PAX@std@@@std@@@std@@SAXAAV?$allocator@U?$_List_node@U?$pair@$$CBHUWeaponItemCfg_t@@@std@@PAX@std@@@1@QAPAU?$_List_node@U?$pair@$$CBHUWeaponItemCfg_t@@@std@@PAX@1@@Z 10061fe0 f i FireEventClientSide.obj
 0002:00013000       ??$destroy@U?$pair@$$CBHUWeaponItemCfg_t@@@std@@@?$_Default_allocator_traits@V?$allocator@U?$_List_node@U?$pair@$$CBHUWeaponItemCfg_t@@@std@@PAX@std@@@std@@@std@@SAXAAV?$allocator@U?$_List_node@U?$pair@$$CBHUWeaponItemCfg_t@@@std@@PAX@std@@@1@QAU?$pair@$$CBHUWeaponItemCfg_t@@@1@@Z 10062000 f i FireEventClientSide.obj
 0002:00013020       ??$forward@AAPAU?$_List_node@U?$pair@$$CBHUWeaponItemCfg_t@@@std@@PAX@std@@@std@@YAAAPAU?$_List_node@U?$pair@$$CBHUWeaponItemCfg_t@@@std@@PAX@0@AAPAU10@@Z 10062020 f i FireEventClientSide.obj
 0002:00013040       ??$forward@AAU?$equal_to@H@std@@@std@@YAAAU?$equal_to@H@0@AAU10@@Z 10062040 f i FireEventClientSide.obj
 0002:00013060       ??$forward@AAU?$hash@H@std@@@std@@YAAAU?$hash@H@0@AAU10@@Z 10062060 f i FireEventClientSide.obj
 0002:00013080       ??$forward@ABQAD@std@@YAABQADABQAD@Z 10062080 f i FireEventClientSide.obj
 0002:000130a0       ??$forward@ABV?$_List_unchecked_iterator@V?$_List_val@U?$_List_simple_types@U?$pair@$$CBHUWeaponItemCfg_t@@@std@@@std@@@std@@@std@@@std@@YAABV?$_List_unchecked_iterator@V?$_List_val@U?$_List_simple_types@U?$pair@$$CBHUWeaponItemCfg_t@@@std@@@std@@@std@@@0@ABV10@@Z 100620a0 f i FireEventClientSide.obj
 0002:000130c0       ??$forward@ABV?$allocator@U?$pair@$$CBHUWeaponItemCfg_t@@@std@@@std@@@std@@YAABV?$allocator@U?$pair@$$CBHUWeaponItemCfg_t@@@std@@@0@ABV10@@Z 100620c0 f i FireEventClientSide.obj
 0002:000130e0       ??$forward@ABV?$allocator@V?$_List_unchecked_iterator@V?$_List_val@U?$_List_simple_types@U?$pair@$$CBHUWeaponItemCfg_t@@@std@@@std@@@std@@@std@@@std@@@std@@YAABV?$allocator@V?$_List_unchecked_iterator@V?$_List_val@U?$_List_simple_types@U?$pair@$$CBHUWeaponItemCfg_t@@@std@@@std@@@std@@@std@@@0@ABV10@@Z 100620e0 f i FireEventClientSide.obj
 0002:00013100       ??$forward@M@std@@YA$$QAMAAM@Z 10062100 f i FireEventClientSide.obj
 0002:00013120       ??$forward@U_One_then_variadic_args_t@std@@@std@@YA$$QAU_One_then_variadic_args_t@0@AAU10@@Z 10062120 f i FireEventClientSide.obj
 0002:00013140       ??$forward@V?$_List_unchecked_iterator@V?$_List_val@U?$_List_simple_types@U?$pair@$$CBHUWeaponItemCfg_t@@@std@@@std@@@std@@@std@@@std@@YA$$QAV?$_List_unchecked_iterator@V?$_List_val@U?$_List_simple_types@U?$pair@$$CBHUWeaponItemCfg_t@@@std@@@std@@@std@@@0@AAV10@@Z 10062140 f i FireEventClientSide.obj
 0002:00013160       ??$get_original@P6E_NPAVIGameEventManager2@@PAVIGameEvent@@@Z@vfunc_hook@@QAEP6E_NPAVIGameEventManager2@@PAVIGameEvent@@@ZH@Z 10062160 f i FireEventClientSide.obj
 0002:00013190       ??$move@AAV?$_List_unchecked_iterator@V?$_List_val@U?$_List_simple_types@U?$pair@$$CBHUWeaponItemCfg_t@@@std@@@std@@@std@@@std@@@std@@YA$$QAV?$_List_unchecked_iterator@V?$_List_val@U?$_List_simple_types@U?$pair@$$CBHUWeaponItemCfg_t@@@std@@@std@@@std@@@0@AAV10@@Z 10062190 f i FireEventClientSide.obj
 0002:000131b0       ??0?$Singleton@VSkinchanger@@@@IAE@XZ 100621b0 f i FireEventClientSide.obj
 0002:000131d0       ??0?$_Hash@V?$_Umap_traits@HUWeaponItemCfg_t@@V?$_Uhash_compare@HU?$hash@H@std@@U?$equal_to@H@2@@std@@V?$allocator@U?$pair@$$CBHUWeaponItemCfg_t@@@std@@@3@$0A@@std@@@std@@QAE@ABV?$_Uhash_compare@HU?$hash@H@std@@U?$equal_to@H@2@@1@ABV?$allocator@U?$pair@$$CBHUWeaponItemCfg_t@@@std@@@1@@Z 100621d0 f i FireEventClientSide.obj
 0002:000132a0       ??0?$_List_unchecked_const_iterator@V?$_List_val@U?$_List_simple_types@U?$pair@$$CBHUWeaponItemCfg_t@@@std@@@std@@@std@@U_Iterator_base0@2@@std@@QAE@PAU?$_List_node@U?$pair@$$CBHUWeaponItemCfg_t@@@std@@PAX@1@PBV?$_List_val@U?$_List_simple_types@U?$pair@$$CBHUWeaponItemCfg_t@@@std@@@std@@@1@@Z 100622a0 f i FireEventClientSide.obj
 0002:000132e0       ??0?$_List_unchecked_iterator@V?$_List_val@U?$_List_simple_types@U?$pair@$$CBHUWeaponItemCfg_t@@@std@@@std@@@std@@@std@@QAE@PAU?$_List_node@U?$pair@$$CBHUWeaponItemCfg_t@@@std@@PAX@1@PBV?$_List_val@U?$_List_simple_types@U?$pair@$$CBHUWeaponItemCfg_t@@@std@@@std@@@1@@Z 100622e0 f i FireEventClientSide.obj
 0002:00013320       ??0?$_List_val@U?$_List_simple_types@U?$pair@$$CBHUWeaponItemCfg_t@@@std@@@std@@@std@@QAE@XZ 10062320 f i FireEventClientSide.obj
 0002:00013360       ??0?$_String_alloc@U?$_String_base_types@DV?$allocator@D@std@@@std@@@std@@QAE@XZ 10062360 f i FireEventClientSide.obj
 0002:00013390       ??0?$_String_val@U?$_Simple_types@D@std@@@std@@QAE@XZ 10062390 f i FireEventClientSide.obj
 0002:000133d0       ??0?$_Uhash_compare@HU?$hash@H@std@@U?$equal_to@H@2@@std@@QAE@U?$hash@H@1@U?$equal_to@H@1@@Z 100623d0 f i FireEventClientSide.obj
 0002:00013420       ??0?$_Umap_traits@HUWeaponItemCfg_t@@V?$_Uhash_compare@HU?$hash@H@std@@U?$equal_to@H@2@@std@@V?$allocator@U?$pair@$$CBHUWeaponItemCfg_t@@@std@@@3@$0A@@std@@QAE@ABV?$_Uhash_compare@HU?$hash@H@std@@U?$equal_to@H@2@@1@@Z 10062420 f i FireEventClientSide.obj
 0002:00013450       ??0?$_Vector_val@U?$_Simple_types@V?$_List_unchecked_iterator@V?$_List_val@U?$_List_simple_types@U?$pair@$$CBHUWeaponItemCfg_t@@@std@@@std@@@std@@@std@@@std@@@std@@QAE@XZ 10062450 f i FireEventClientSide.obj
 0002:00013490       ??0?$allocator@D@std@@QAE@XZ 10062490 f i FireEventClientSide.obj
 0002:000134b0       ??0?$allocator@U?$pair@$$CBHUWeaponItemCfg_t@@@std@@@std@@QAE@XZ 100624b0 f i FireEventClientSide.obj
 0002:000134d0       ??0?$basic_string@DU?$char_traits@D@std@@V?$allocator@D@2@@std@@QAE@QBD@Z 100624d0 f i FireEventClientSide.obj
 0002:00013560       ??0?$list@U?$pair@$$CBHUWeaponItemCfg_t@@@std@@V?$allocator@U?$pair@$$CBHUWeaponItemCfg_t@@@std@@@2@@std@@QAE@ABV?$allocator@U?$pair@$$CBHUWeaponItemCfg_t@@@std@@@1@@Z 10062560 f i FireEventClientSide.obj
 0002:00013590       ??0?$unordered_map@HUWeaponItemCfg_t@@U?$hash@H@std@@U?$equal_to@H@3@V?$allocator@U?$pair@$$CBHUWeaponItemCfg_t@@@std@@@3@@std@@QAE@XZ 10062590 f i FireEventClientSide.obj
 0002:000135e0       ??0?$vector@V?$_List_unchecked_iterator@V?$_List_val@U?$_List_simple_types@U?$pair@$$CBHUWeaponItemCfg_t@@@std@@@std@@@std@@@std@@V?$allocator@V?$_List_unchecked_iterator@V?$_List_val@U?$_List_simple_types@U?$pair@$$CBHUWeaponItemCfg_t@@@std@@@std@@@std@@@std@@@2@@std@@QAE@ABV?$allocator@V?$_List_unchecked_iterator@V?$_List_val@U?$_List_simple_types@U?$pair@$$CBHUWeaponItemCfg_t@@@std@@@std@@@std@@@std@@@1@@Z 100625e0 f i FireEventClientSide.obj
 0002:00013650       ??0GloveItemCfg_t@@QAE@XZ  10062650 f i FireEventClientSide.obj
 0002:000136b0       ??0KnifeItemCfg_t@@QAE@XZ  100626b0 f i FireEventClientSide.obj
 0002:00013770       ??0Skinchanger@@QAE@XZ     10062770 f i FireEventClientSide.obj
 0002:00013810       ??0_Bxty@?$_String_val@U?$_Simple_types@D@std@@@std@@QAE@XZ 10062810 f i FireEventClientSide.obj
 0002:00013830       ??1?$Singleton@VSkinchanger@@@@IAE@XZ 10062830 f i FireEventClientSide.obj
 0002:00013850       ??1?$_Compressed_pair@V?$allocator@D@std@@V?$_String_val@U?$_Simple_types@D@std@@@2@$00@std@@QAE@XZ 10062850 f i FireEventClientSide.obj
 0002:00013880       ??1?$_Hash@V?$_Umap_traits@HUWeaponItemCfg_t@@V?$_Uhash_compare@HU?$hash@H@std@@U?$equal_to@H@2@@std@@V?$allocator@U?$pair@$$CBHUWeaponItemCfg_t@@@std@@@3@$0A@@std@@@std@@QAE@XZ 10062880 f i FireEventClientSide.obj
 0002:000138c0       ??1?$_List_alloc@U?$_List_base_types@U?$pair@$$CBHUWeaponItemCfg_t@@@std@@V?$allocator@U?$pair@$$CBHUWeaponItemCfg_t@@@std@@@2@@std@@@std@@QAE@XZ 100628c0 f i FireEventClientSide.obj
 0002:00013930       ??1?$_List_buy@U?$pair@$$CBHUWeaponItemCfg_t@@@std@@V?$allocator@U?$pair@$$CBHUWeaponItemCfg_t@@@std@@@2@@std@@QAE@XZ 10062930 f i FireEventClientSide.obj
 0002:00013960       ??1?$_String_alloc@U?$_String_base_types@DV?$allocator@D@std@@@std@@@std@@QAE@XZ 10062960 f i FireEventClientSide.obj
 0002:00013990       ??1?$_String_val@U?$_Simple_types@D@std@@@std@@QAE@XZ 10062990 f i FireEventClientSide.obj
 0002:000139c0       ??1?$basic_string@DU?$char_traits@D@std@@V?$allocator@D@2@@std@@QAE@XZ 100629c0 f i FireEventClientSide.obj
 0002:00013a20       ??1?$list@U?$pair@$$CBHUWeaponItemCfg_t@@@std@@V?$allocator@U?$pair@$$CBHUWeaponItemCfg_t@@@std@@@2@@std@@QAE@XZ 10062a20 f i FireEventClientSide.obj
 0002:00013a80       ??1?$pair@$$CBHUWeaponItemCfg_t@@@std@@QAE@XZ 10062a80 f i FireEventClientSide.obj
 0002:00013ab0       ??1?$unordered_map@HUWeaponItemCfg_t@@U?$hash@H@std@@U?$equal_to@H@3@V?$allocator@U?$pair@$$CBHUWeaponItemCfg_t@@@std@@@3@@std@@QAE@XZ 10062ab0 f i FireEventClientSide.obj
 0002:00013ae0       ??1?$vector@V?$_List_unchecked_iterator@V?$_List_val@U?$_List_simple_types@U?$pair@$$CBHUWeaponItemCfg_t@@@std@@@std@@@std@@@std@@V?$allocator@V?$_List_unchecked_iterator@V?$_List_val@U?$_List_simple_types@U?$pair@$$CBHUWeaponItemCfg_t@@@std@@@std@@@std@@@std@@@2@@std@@QAE@XZ 10062ae0 f i FireEventClientSide.obj
 0002:00013b40       ??1KnifeItemCfg_t@@QAE@XZ  10062b40 f i FireEventClientSide.obj
 0002:00013b70       ??1Skinchanger@@QAE@XZ     10062b70 f i FireEventClientSide.obj
 0002:00013bb0       ??1WeaponItemCfg_t@@QAE@XZ 10062bb0 f i FireEventClientSide.obj
 0002:00013be0       ??1_Bxty@?$_String_val@U?$_Simple_types@D@std@@@std@@QAE@XZ 10062be0 f i FireEventClientSide.obj
 0002:00013c00       ??2@YAPAXIPAX@Z            10062c00 f i FireEventClientSide.obj
 0002:00013c70       ??_G?$pair@$$CBHUWeaponItemCfg_t@@@std@@QAEPAXI@Z 10062c70 f i FireEventClientSide.obj
 0002:00013cc0       ?Get@?$Singleton@VSkinchanger@@@@SAAAVSkinchanger@@XZ 10062cc0 f i FireEventClientSide.obj
 0002:00013db0       ?_Adjust_manually_vector_aligned@std@@YAXAAPAXAAI@Z 10062db0 f i FireEventClientSide.obj
 0002:00013e30       ?_Adopt@_Iterator_base0@std@@QAEXPBX@Z 10062e30 f i FireEventClientSide.obj
 0002:00013e50       ?_Allocate@_Default_allocate_traits@std@@SAPAXI@Z 10062e50 f i FireEventClientSide.obj
 0002:00013e80       ?_Buy@?$vector@V?$_List_unchecked_iterator@V?$_List_val@U?$_List_simple_types@U?$pair@$$CBHUWeaponItemCfg_t@@@std@@@std@@@std@@@std@@V?$allocator@V?$_List_unchecked_iterator@V?$_List_val@U?$_List_simple_types@U?$pair@$$CBHUWeaponItemCfg_t@@@std@@@std@@@std@@@std@@@2@@std@@AAE_NI@Z 10062e80 f i FireEventClientSide.obj
 0002:00013f60       ?_Buyheadnode@?$_List_alloc@U?$_List_base_types@U?$pair@$$CBHUWeaponItemCfg_t@@@std@@V?$allocator@U?$pair@$$CBHUWeaponItemCfg_t@@@std@@@2@@std@@@std@@QAEPAU?$_List_node@U?$pair@$$CBHUWeaponItemCfg_t@@@std@@PAX@2@XZ 10062f60 f i FireEventClientSide.obj
 0002:00013f90       ?_Buynode0@?$_List_alloc@U?$_List_base_types@U?$pair@$$CBHUWeaponItemCfg_t@@@std@@V?$allocator@U?$pair@$$CBHUWeaponItemCfg_t@@@std@@@2@@std@@@std@@QAEPAU?$_List_node@U?$pair@$$CBHUWeaponItemCfg_t@@@std@@PAX@2@PAU32@0@Z 10062f90 f i FireEventClientSide.obj
 0002:000140c0       ?_Calculate_growth@?$basic_string@DU?$char_traits@D@std@@V?$allocator@D@2@@std@@QBEII@Z 100630c0 f i FireEventClientSide.obj
 0002:00014180       ?_Calculate_growth@?$vector@V?$_List_unchecked_iterator@V?$_List_val@U?$_List_simple_types@U?$pair@$$CBHUWeaponItemCfg_t@@@std@@@std@@@std@@@std@@V?$allocator@V?$_List_unchecked_iterator@V?$_List_val@U?$_List_simple_types@U?$pair@$$CBHUWeaponItemCfg_t@@@std@@@std@@@std@@@std@@@2@@std@@ABEII@Z 10063180 f i FireEventClientSide.obj
 0002:000141f0       ?_Change_array@?$vector@V?$_List_unchecked_iterator@V?$_List_val@U?$_List_simple_types@U?$pair@$$CBHUWeaponItemCfg_t@@@std@@@std@@@std@@@std@@V?$allocator@V?$_List_unchecked_iterator@V?$_List_val@U?$_List_simple_types@U?$pair@$$CBHUWeaponItemCfg_t@@@std@@@std@@@std@@@std@@@2@@std@@AAEXQAV?$_List_unchecked_iterator@V?$_List_val@U?$_List_simple_types@U?$pair@$$CBHUWeaponItemCfg_t@@@std@@@std@@@std@@@2@II@Z 100631f0 f i FireEventClientSide.obj
 0002:000142c0       ?_Destroy@?$vector@V?$_List_unchecked_iterator@V?$_List_val@U?$_List_simple_types@U?$pair@$$CBHUWeaponItemCfg_t@@@std@@@std@@@std@@@std@@V?$allocator@V?$_List_unchecked_iterator@V?$_List_val@U?$_List_simple_types@U?$pair@$$CBHUWeaponItemCfg_t@@@std@@@std@@@std@@@std@@@2@@std@@AAEXPAV?$_List_unchecked_iterator@V?$_List_val@U?$_List_simple_types@U?$pair@$$CBHUWeaponItemCfg_t@@@std@@@std@@@std@@@2@0@Z 100632c0 f i FireEventClientSide.obj
 0002:00014300       ?_Freeheadnode@?$_List_alloc@U?$_List_base_types@U?$pair@$$CBHUWeaponItemCfg_t@@@std@@V?$allocator@U?$pair@$$CBHUWeaponItemCfg_t@@@std@@@2@@std@@@std@@QAEXPAU?$_List_node@U?$pair@$$CBHUWeaponItemCfg_t@@@std@@PAX@2@@Z 10063300 f i FireEventClientSide.obj
 0002:00014340       ?_Freenode@?$_List_buy@U?$pair@$$CBHUWeaponItemCfg_t@@@std@@V?$allocator@U?$pair@$$CBHUWeaponItemCfg_t@@@std@@@2@@std@@QAEXPAU?$_List_node@U?$pair@$$CBHUWeaponItemCfg_t@@@std@@PAX@2@@Z 10063340 f i FireEventClientSide.obj
 0002:000143a0       ?_Get_data@?$_List_alloc@U?$_List_base_types@U?$pair@$$CBHUWeaponItemCfg_t@@@std@@V?$allocator@U?$pair@$$CBHUWeaponItemCfg_t@@@std@@@2@@std@@@std@@QAEAAV?$_List_val@U?$_List_simple_types@U?$pair@$$CBHUWeaponItemCfg_t@@@std@@@std@@@2@XZ 100633a0 f i FireEventClientSide.obj
 0002:000143d0       ?_Get_data@?$_String_alloc@U?$_String_base_types@DV?$allocator@D@std@@@std@@@std@@QAEAAV?$_String_val@U?$_Simple_types@D@std@@@2@XZ 100633d0 f i FireEventClientSide.obj
 0002:00014400       ?_Get_data@?$_String_alloc@U?$_String_base_types@DV?$allocator@D@std@@@std@@@std@@QBEABV?$_String_val@U?$_Simple_types@D@std@@@2@XZ 10063400 f i FireEventClientSide.obj
 0002:00014430       ?_Get_data@?$_Vector_alloc@U?$_Vec_base_types@V?$_List_unchecked_iterator@V?$_List_val@U?$_List_simple_types@U?$pair@$$CBHUWeaponItemCfg_t@@@std@@@std@@@std@@@std@@V?$allocator@V?$_List_unchecked_iterator@V?$_List_val@U?$_List_simple_types@U?$pair@$$CBHUWeaponItemCfg_t@@@std@@@std@@@std@@@std@@@2@@std@@@std@@QAEAAV?$_Vector_val@U?$_Simple_types@V?$_List_unchecked_iterator@V?$_List_val@U?$_List_simple_types@U?$pair@$$CBHUWeaponItemCfg_t@@@std@@@std@@@std@@@std@@@std@@@2@XZ 10063430 f i FireEventClientSide.obj
 0002:00014460       ?_Get_data@?$_Vector_alloc@U?$_Vec_base_types@V?$_List_unchecked_iterator@V?$_List_val@U?$_List_simple_types@U?$pair@$$CBHUWeaponItemCfg_t@@@std@@@std@@@std@@@std@@V?$allocator@V?$_List_unchecked_iterator@V?$_List_val@U?$_List_simple_types@U?$pair@$$CBHUWeaponItemCfg_t@@@std@@@std@@@std@@@std@@@2@@std@@@std@@QBEABV?$_Vector_val@U?$_Simple_types@V?$_List_unchecked_iterator@V?$_List_val@U?$_List_simple_types@U?$pair@$$CBHUWeaponItemCfg_t@@@std@@@std@@@std@@@std@@@std@@@2@XZ 10063460 f i FireEventClientSide.obj
 0002:00014490       ?_Get_first@?$_Compressed_pair@V?$allocator@D@std@@V?$_String_val@U?$_Simple_types@D@std@@@2@$00@std@@QAEAAV?$allocator@D@2@XZ 10063490 f i FireEventClientSide.obj
 0002:000144b0       ?_Get_first@?$_Compressed_pair@V?$allocator@D@std@@V?$_String_val@U?$_Simple_types@D@std@@@2@$00@std@@QBEABV?$allocator@D@2@XZ 100634b0 f i FireEventClientSide.obj
 0002:000144d0       ?_Get_first@?$_Compressed_pair@V?$allocator@U?$_List_node@U?$pair@$$CBHUWeaponItemCfg_t@@@std@@PAX@std@@@std@@V?$_List_val@U?$_List_simple_types@U?$pair@$$CBHUWeaponItemCfg_t@@@std@@@std@@@2@$00@std@@QAEAAV?$allocator@U?$_List_node@U?$pair@$$CBHUWeaponItemCfg_t@@@std@@PAX@std@@@2@XZ 100634d0 f i FireEventClientSide.obj
 0002:000144f0       ?_Get_first@?$_Compressed_pair@V?$allocator@V?$_List_unchecked_iterator@V?$_List_val@U?$_List_simple_types@U?$pair@$$CBHUWeaponItemCfg_t@@@std@@@std@@@std@@@std@@@std@@V?$_Vector_val@U?$_Simple_types@V?$_List_unchecked_iterator@V?$_List_val@U?$_List_simple_types@U?$pair@$$CBHUWeaponItemCfg_t@@@std@@@std@@@std@@@std@@@std@@@2@$00@std@@QAEAAV?$allocator@V?$_List_unchecked_iterator@V?$_List_val@U?$_List_simple_types@U?$pair@$$CBHUWeaponItemCfg_t@@@std@@@std@@@std@@@std@@@2@XZ 100634f0 f i FireEventClientSide.obj
 0002:00014510       ?_Get_first@?$_Compressed_pair@V?$allocator@V?$_List_unchecked_iterator@V?$_List_val@U?$_List_simple_types@U?$pair@$$CBHUWeaponItemCfg_t@@@std@@@std@@@std@@@std@@@std@@V?$_Vector_val@U?$_Simple_types@V?$_List_unchecked_iterator@V?$_List_val@U?$_List_simple_types@U?$pair@$$CBHUWeaponItemCfg_t@@@std@@@std@@@std@@@std@@@std@@@2@$00@std@@QBEABV?$allocator@V?$_List_unchecked_iterator@V?$_List_val@U?$_List_simple_types@U?$pair@$$CBHUWeaponItemCfg_t@@@std@@@std@@@std@@@std@@@2@XZ 10063510 f i FireEventClientSide.obj
 0002:00014530       ?_Get_max_bucket_size@?$_Uhash_compare@HU?$hash@H@std@@U?$equal_to@H@2@@std@@QAEAAMXZ 10063530 f i FireEventClientSide.obj
 0002:00014560       ?_Get_second@?$_Compressed_pair@U?$equal_to@H@std@@M$00@std@@QAEAAMXZ 10063560 f i FireEventClientSide.obj
 0002:00014580       ?_Get_second@?$_Compressed_pair@U?$hash@H@std@@V?$_Compressed_pair@U?$equal_to@H@std@@M$00@2@$00@std@@QAEAAV?$_Compressed_pair@U?$equal_to@H@std@@M$00@2@XZ 10063580 f i FireEventClientSide.obj
 0002:000145a0       ?_Get_second@?$_Compressed_pair@V?$allocator@D@std@@V?$_String_val@U?$_Simple_types@D@std@@@2@$00@std@@QAEAAV?$_String_val@U?$_Simple_types@D@std@@@2@XZ 100635a0 f i FireEventClientSide.obj
 0002:000145c0       ?_Get_second@?$_Compressed_pair@V?$allocator@D@std@@V?$_String_val@U?$_Simple_types@D@std@@@2@$00@std@@QBEABV?$_String_val@U?$_Simple_types@D@std@@@2@XZ 100635c0 f i FireEventClientSide.obj
 0002:000145e0       ?_Get_second@?$_Compressed_pair@V?$allocator@U?$_List_node@U?$pair@$$CBHUWeaponItemCfg_t@@@std@@PAX@std@@@std@@V?$_List_val@U?$_List_simple_types@U?$pair@$$CBHUWeaponItemCfg_t@@@std@@@std@@@2@$00@std@@QAEAAV?$_List_val@U?$_List_simple_types@U?$pair@$$CBHUWeaponItemCfg_t@@@std@@@std@@@2@XZ 100635e0 f i FireEventClientSide.obj
 0002:00014600       ?_Get_second@?$_Compressed_pair@V?$allocator@V?$_List_unchecked_iterator@V?$_List_val@U?$_List_simple_types@U?$pair@$$CBHUWeaponItemCfg_t@@@std@@@std@@@std@@@std@@@std@@V?$_Vector_val@U?$_Simple_types@V?$_List_unchecked_iterator@V?$_List_val@U?$_List_simple_types@U?$pair@$$CBHUWeaponItemCfg_t@@@std@@@std@@@std@@@std@@@std@@@2@$00@std@@QAEAAV?$_Vector_val@U?$_Simple_types@V?$_List_unchecked_iterator@V?$_List_val@U?$_List_simple_types@U?$pair@$$CBHUWeaponItemCfg_t@@@std@@@std@@@std@@@std@@@std@@@2@XZ 10063600 f i FireEventClientSide.obj
 0002:00014620       ?_Get_second@?$_Compressed_pair@V?$allocator@V?$_List_unchecked_iterator@V?$_List_val@U?$_List_simple_types@U?$pair@$$CBHUWeaponItemCfg_t@@@std@@@std@@@std@@@std@@@std@@V?$_Vector_val@U?$_Simple_types@V?$_List_unchecked_iterator@V?$_List_val@U?$_List_simple_types@U?$pair@$$CBHUWeaponItemCfg_t@@@std@@@std@@@std@@@std@@@std@@@2@$00@std@@QBEABV?$_Vector_val@U?$_Simple_types@V?$_List_unchecked_iterator@V?$_List_val@U?$_List_simple_types@U?$pair@$$CBHUWeaponItemCfg_t@@@std@@@std@@@std@@@std@@@std@@@2@XZ 10063620 f i FireEventClientSide.obj
 0002:00014640       ?_Getal@?$_List_alloc@U?$_List_base_types@U?$pair@$$CBHUWeaponItemCfg_t@@@std@@V?$allocator@U?$pair@$$CBHUWeaponItemCfg_t@@@std@@@2@@std@@@std@@QAEAAV?$allocator@U?$_List_node@U?$pair@$$CBHUWeaponItemCfg_t@@@std@@PAX@std@@@2@XZ 10063640 f i FireEventClientSide.obj
 0002:00014670       ?_Getal@?$_String_alloc@U?$_String_base_types@DV?$allocator@D@std@@@std@@@std@@QAEAAV?$allocator@D@2@XZ 10063670 f i FireEventClientSide.obj
 0002:000146a0       ?_Getal@?$_String_alloc@U?$_String_base_types@DV?$allocator@D@std@@@std@@@std@@QBEABV?$allocator@D@2@XZ 100636a0 f i FireEventClientSide.obj
 0002:000146d0       ?_Getal@?$_Vector_alloc@U?$_Vec_base_types@V?$_List_unchecked_iterator@V?$_List_val@U?$_List_simple_types@U?$pair@$$CBHUWeaponItemCfg_t@@@std@@@std@@@std@@@std@@V?$allocator@V?$_List_unchecked_iterator@V?$_List_val@U?$_List_simple_types@U?$pair@$$CBHUWeaponItemCfg_t@@@std@@@std@@@std@@@std@@@2@@std@@@std@@QAEAAV?$allocator@V?$_List_unchecked_iterator@V?$_List_val@U?$_List_simple_types@U?$pair@$$CBHUWeaponItemCfg_t@@@std@@@std@@@std@@@std@@@2@XZ 100636d0 f i FireEventClientSide.obj
 0002:00014700       ?_Getal@?$_Vector_alloc@U?$_Vec_base_types@V?$_List_unchecked_iterator@V?$_List_val@U?$_List_simple_types@U?$pair@$$CBHUWeaponItemCfg_t@@@std@@@std@@@std@@@std@@V?$allocator@V?$_List_unchecked_iterator@V?$_List_val@U?$_List_simple_types@U?$pair@$$CBHUWeaponItemCfg_t@@@std@@@std@@@std@@@std@@@2@@std@@@std@@QBEABV?$allocator@V?$_List_unchecked_iterator@V?$_List_val@U?$_List_simple_types@U?$pair@$$CBHUWeaponItemCfg_t@@@std@@@std@@@std@@@std@@@2@XZ 10063700 f i FireEventClientSide.obj
 0002:00014730       ?_Init@?$_Hash@V?$_Umap_traits@HUWeaponItemCfg_t@@V?$_Uhash_compare@HU?$hash@H@std@@U?$equal_to@H@2@@std@@V?$allocator@U?$pair@$$CBHUWeaponItemCfg_t@@@std@@@3@$0A@@std@@@std@@IAEXI@Z 10063730 f i FireEventClientSide.obj
 0002:000147a0       ?_Large_string_engaged@?$_String_val@U?$_Simple_types@D@std@@@std@@QBE_NXZ 100637a0 f i FireEventClientSide.obj
 0002:000147e0       ?_Maklocwcs@std@@YAPA_WPB_W@Z 100637e0 f i FireEventClientSide.obj
 0002:00014850       ?_Max_bucket_size@?$_Hash@V?$_Umap_traits@HUWeaponItemCfg_t@@V?$_Uhash_compare@HU?$hash@H@std@@U?$equal_to@H@2@@std@@V?$allocator@U?$pair@$$CBHUWeaponItemCfg_t@@@std@@@3@$0A@@std@@@std@@IAEAAMXZ 10063850 f i FireEventClientSide.obj
 0002:00014880       ?_Myend@?$_Vector_alloc@U?$_Vec_base_types@V?$_List_unchecked_iterator@V?$_List_val@U?$_List_simple_types@U?$pair@$$CBHUWeaponItemCfg_t@@@std@@@std@@@std@@@std@@V?$allocator@V?$_List_unchecked_iterator@V?$_List_val@U?$_List_simple_types@U?$pair@$$CBHUWeaponItemCfg_t@@@std@@@std@@@std@@@std@@@2@@std@@@std@@QAEAAPAV?$_List_unchecked_iterator@V?$_List_val@U?$_List_simple_types@U?$pair@$$CBHUWeaponItemCfg_t@@@std@@@std@@@std@@@2@XZ 10063880 f i FireEventClientSide.obj
 0002:000148b0       ?_Myend@?$_Vector_alloc@U?$_Vec_base_types@V?$_List_unchecked_iterator@V?$_List_val@U?$_List_simple_types@U?$pair@$$CBHUWeaponItemCfg_t@@@std@@@std@@@std@@@std@@V?$allocator@V?$_List_unchecked_iterator@V?$_List_val@U?$_List_simple_types@U?$pair@$$CBHUWeaponItemCfg_t@@@std@@@std@@@std@@@std@@@2@@std@@@std@@QBEABQAV?$_List_unchecked_iterator@V?$_List_val@U?$_List_simple_types@U?$pair@$$CBHUWeaponItemCfg_t@@@std@@@std@@@std@@@2@XZ 100638b0 f i FireEventClientSide.obj
 0002:000148e0       ?_Myfirst@?$_Vector_alloc@U?$_Vec_base_types@V?$_List_unchecked_iterator@V?$_List_val@U?$_List_simple_types@U?$pair@$$CBHUWeaponItemCfg_t@@@std@@@std@@@std@@@std@@V?$allocator@V?$_List_unchecked_iterator@V?$_List_val@U?$_List_simple_types@U?$pair@$$CBHUWeaponItemCfg_t@@@std@@@std@@@std@@@std@@@2@@std@@@std@@QAEAAPAV?$_List_unchecked_iterator@V?$_List_val@U?$_List_simple_types@U?$pair@$$CBHUWeaponItemCfg_t@@@std@@@std@@@std@@@2@XZ 100638e0 f i FireEventClientSide.obj
 0002:00014910       ?_Myfirst@?$_Vector_alloc@U?$_Vec_base_types@V?$_List_unchecked_iterator@V?$_List_val@U?$_List_simple_types@U?$pair@$$CBHUWeaponItemCfg_t@@@std@@@std@@@std@@@std@@V?$allocator@V?$_List_unchecked_iterator@V?$_List_val@U?$_List_simple_types@U?$pair@$$CBHUWeaponItemCfg_t@@@std@@@std@@@std@@@std@@@2@@std@@@std@@QBEABQAV?$_List_unchecked_iterator@V?$_List_val@U?$_List_simple_types@U?$pair@$$CBHUWeaponItemCfg_t@@@std@@@std@@@std@@@2@XZ 10063910 f i FireEventClientSide.obj
 0002:00014940       ?_Myhead@?$_List_alloc@U?$_List_base_types@U?$pair@$$CBHUWeaponItemCfg_t@@@std@@V?$allocator@U?$pair@$$CBHUWeaponItemCfg_t@@@std@@@2@@std@@@std@@QAEAAPAU?$_List_node@U?$pair@$$CBHUWeaponItemCfg_t@@@std@@PAX@2@XZ 10063940 f i FireEventClientSide.obj
 0002:00014970       ?_Mylast@?$_Vector_alloc@U?$_Vec_base_types@V?$_List_unchecked_iterator@V?$_List_val@U?$_List_simple_types@U?$pair@$$CBHUWeaponItemCfg_t@@@std@@@std@@@std@@@std@@V?$allocator@V?$_List_unchecked_iterator@V?$_List_val@U?$_List_simple_types@U?$pair@$$CBHUWeaponItemCfg_t@@@std@@@std@@@std@@@std@@@2@@std@@@std@@QAEAAPAV?$_List_unchecked_iterator@V?$_List_val@U?$_List_simple_types@U?$pair@$$CBHUWeaponItemCfg_t@@@std@@@std@@@std@@@2@XZ 10063970 f i FireEventClientSide.obj
 0002:000149a0       ?_Mylast@?$_Vector_alloc@U?$_Vec_base_types@V?$_List_unchecked_iterator@V?$_List_val@U?$_List_simple_types@U?$pair@$$CBHUWeaponItemCfg_t@@@std@@@std@@@std@@@std@@V?$allocator@V?$_List_unchecked_iterator@V?$_List_val@U?$_List_simple_types@U?$pair@$$CBHUWeaponItemCfg_t@@@std@@@std@@@std@@@std@@@2@@std@@@std@@QBEABQAV?$_List_unchecked_iterator@V?$_List_val@U?$_List_simple_types@U?$pair@$$CBHUWeaponItemCfg_t@@@std@@@std@@@std@@@2@XZ 100639a0 f i FireEventClientSide.obj
 0002:000149d0       ?_Myptr@?$_String_val@U?$_Simple_types@D@std@@@std@@QAEPADXZ 100639d0 f i FireEventClientSide.obj
 0002:00014a20       ?_Mysize@?$_List_alloc@U?$_List_base_types@U?$pair@$$CBHUWeaponItemCfg_t@@@std@@V?$allocator@U?$pair@$$CBHUWeaponItemCfg_t@@@std@@@2@@std@@@std@@QAEAAIXZ 10063a20 f i FireEventClientSide.obj
 0002:00014a50       ?_Orphan_all@?$_String_alloc@U?$_String_base_types@DV?$allocator@D@std@@@std@@@std@@QAEXXZ 10063a50 f i FireEventClientSide.obj
 0002:00014a80       ?_Orphan_all@?$_Vector_alloc@U?$_Vec_base_types@V?$_List_unchecked_iterator@V?$_List_val@U?$_List_simple_types@U?$pair@$$CBHUWeaponItemCfg_t@@@std@@@std@@@std@@@std@@V?$allocator@V?$_List_unchecked_iterator@V?$_List_val@U?$_List_simple_types@U?$pair@$$CBHUWeaponItemCfg_t@@@std@@@std@@@std@@@std@@@2@@std@@@std@@QAEXXZ 10063a80 f i FireEventClientSide.obj
 0002:00014ab0       ?_Orphan_all@_Container_base0@std@@QAEXXZ 10063ab0 f i FireEventClientSide.obj
 0002:00014ad0       ?_Reallocate_exactly@?$vector@V?$_List_unchecked_iterator@V?$_List_val@U?$_List_simple_types@U?$pair@$$CBHUWeaponItemCfg_t@@@std@@@std@@@std@@@std@@V?$allocator@V?$_List_unchecked_iterator@V?$_List_val@U?$_List_simple_types@U?$pair@$$CBHUWeaponItemCfg_t@@@std@@@std@@@std@@@std@@@2@@std@@AAEXI@Z 10063ad0 f i FireEventClientSide.obj
 0002:00014be0       ?_Tidy@?$list@U?$pair@$$CBHUWeaponItemCfg_t@@@std@@V?$allocator@U?$pair@$$CBHUWeaponItemCfg_t@@@std@@@2@@std@@QAEXXZ 10063be0 f i FireEventClientSide.obj
 0002:00014c10       ?_Tidy@?$vector@V?$_List_unchecked_iterator@V?$_List_val@U?$_List_simple_types@U?$pair@$$CBHUWeaponItemCfg_t@@@std@@@std@@@std@@@std@@V?$allocator@V?$_List_unchecked_iterator@V?$_List_val@U?$_List_simple_types@U?$pair@$$CBHUWeaponItemCfg_t@@@std@@@std@@@std@@@std@@@2@@std@@AAEXXZ 10063c10 f i FireEventClientSide.obj
 0002:00014cd0       ?_Tidy_deallocate@?$basic_string@DU?$char_traits@D@std@@V?$allocator@D@2@@std@@QAEXXZ 10063cd0 f i FireEventClientSide.obj
 0002:00014da0       ?_Tidy_init@?$basic_string@DU?$char_traits@D@std@@V?$allocator@D@2@@std@@QAEXXZ 10063da0 f i FireEventClientSide.obj
 0002:00014e10       ?_Ufill@?$vector@V?$_List_unchecked_iterator@V?$_List_val@U?$_List_simple_types@U?$pair@$$CBHUWeaponItemCfg_t@@@std@@@std@@@std@@@std@@V?$allocator@V?$_List_unchecked_iterator@V?$_List_val@U?$_List_simple_types@U?$pair@$$CBHUWeaponItemCfg_t@@@std@@@std@@@std@@@std@@@2@@std@@AAEPAV?$_List_unchecked_iterator@V?$_List_val@U?$_List_simple_types@U?$pair@$$CBHUWeaponItemCfg_t@@@std@@@std@@@std@@@2@PAV32@IABV32@@Z 10063e10 f i FireEventClientSide.obj
 0002:00014e50       ?_Umove_if_noexcept1@?$vector@V?$_List_unchecked_iterator@V?$_List_val@U?$_List_simple_types@U?$pair@$$CBHUWeaponItemCfg_t@@@std@@@std@@@std@@@std@@V?$allocator@V?$_List_unchecked_iterator@V?$_List_val@U?$_List_simple_types@U?$pair@$$CBHUWeaponItemCfg_t@@@std@@@std@@@std@@@std@@@2@@std@@AAEXPAV?$_List_unchecked_iterator@V?$_List_val@U?$_List_simple_types@U?$pair@$$CBHUWeaponItemCfg_t@@@std@@@std@@@std@@@2@00U?$integral_constant@_N$00@2@@Z 10063e50 f i FireEventClientSide.obj
 0002:00014e90       ?_Umove_if_noexcept@?$vector@V?$_List_unchecked_iterator@V?$_List_val@U?$_List_simple_types@U?$pair@$$CBHUWeaponItemCfg_t@@@std@@@std@@@std@@@std@@V?$allocator@V?$_List_unchecked_iterator@V?$_List_val@U?$_List_simple_types@U?$pair@$$CBHUWeaponItemCfg_t@@@std@@@std@@@std@@@std@@@2@@std@@AAEXPAV?$_List_unchecked_iterator@V?$_List_val@U?$_List_simple_types@U?$pair@$$CBHUWeaponItemCfg_t@@@std@@@std@@@std@@@2@00@Z 10063e90 f i FireEventClientSide.obj
 0002:00014ed0       ?_Unchecked_end@?$_Hash@V?$_Umap_traits@HUWeaponItemCfg_t@@V?$_Uhash_compare@HU?$hash@H@std@@U?$equal_to@H@2@@std@@V?$allocator@U?$pair@$$CBHUWeaponItemCfg_t@@@std@@@3@$0A@@std@@@std@@QAE?AV?$_List_unchecked_iterator@V?$_List_val@U?$_List_simple_types@U?$pair@$$CBHUWeaponItemCfg_t@@@std@@@std@@@std@@@2@XZ 10063ed0 f i FireEventClientSide.obj
 0002:00014f00       ?_Unchecked_end@?$list@U?$pair@$$CBHUWeaponItemCfg_t@@@std@@V?$allocator@U?$pair@$$CBHUWeaponItemCfg_t@@@std@@@2@@std@@QAE?AV?$_List_unchecked_iterator@V?$_List_val@U?$_List_simple_types@U?$pair@$$CBHUWeaponItemCfg_t@@@std@@@std@@@std@@@2@XZ 10063f00 f i FireEventClientSide.obj
 0002:00014f40       ?_Xlen@?$basic_string@DU?$char_traits@D@std@@V?$allocator@D@2@@std@@SAXXZ 10063f40 f i FireEventClientSide.obj
 0002:00014f60       ?_Xlength@?$vector@V?$_List_unchecked_iterator@V?$_List_val@U?$_List_simple_types@U?$pair@$$CBHUWeaponItemCfg_t@@@std@@@std@@@std@@@std@@V?$allocator@V?$_List_unchecked_iterator@V?$_List_val@U?$_List_simple_types@U?$pair@$$CBHUWeaponItemCfg_t@@@std@@@std@@@std@@@std@@@2@@std@@CAXXZ 10063f60 f i FireEventClientSide.obj
 0002:00014f80       ?__autoclassinit2@Skinchanger@@QAEXI@Z 10063f80 f i FireEventClientSide.obj
 0002:00014fb0       ?allocate@?$allocator@D@std@@QAEPADI@Z 10063fb0 f i FireEventClientSide.obj
 0002:00014ff0       ?allocate@?$allocator@U?$_List_node@U?$pair@$$CBHUWeaponItemCfg_t@@@std@@PAX@std@@@std@@QAEPAU?$_List_node@U?$pair@$$CBHUWeaponItemCfg_t@@@std@@PAX@2@I@Z 10063ff0 f i FireEventClientSide.obj
 0002:00015030       ?allocate@?$allocator@V?$_List_unchecked_iterator@V?$_List_val@U?$_List_simple_types@U?$pair@$$CBHUWeaponItemCfg_t@@@std@@@std@@@std@@@std@@@std@@QAEPAV?$_List_unchecked_iterator@V?$_List_val@U?$_List_simple_types@U?$pair@$$CBHUWeaponItemCfg_t@@@std@@@std@@@std@@@2@I@Z 10064030 f i FireEventClientSide.obj
 0002:00015070       ?assign@?$basic_string@DU?$char_traits@D@std@@V?$allocator@D@2@@std@@QAEAAV12@QBD@Z 10064070 f i FireEventClientSide.obj
 0002:000150c0       ?assign@?$basic_string@DU?$char_traits@D@std@@V?$allocator@D@2@@std@@QAEAAV12@QBDI@Z 100640c0 f i FireEventClientSide.obj
 0002:00015170       ?assign@?$char_traits@D@std@@SAXAADABD@Z 10064170 f i FireEventClientSide.obj
 0002:00015190       ?assign@?$vector@V?$_List_unchecked_iterator@V?$_List_val@U?$_List_simple_types@U?$pair@$$CBHUWeaponItemCfg_t@@@std@@@std@@@std@@@std@@V?$allocator@V?$_List_unchecked_iterator@V?$_List_val@U?$_List_simple_types@U?$pair@$$CBHUWeaponItemCfg_t@@@std@@@std@@@std@@@std@@@2@@std@@QAEXIABV?$_List_unchecked_iterator@V?$_List_val@U?$_List_simple_types@U?$pair@$$CBHUWeaponItemCfg_t@@@std@@@std@@@std@@@2@@Z 10064190 f i FireEventClientSide.obj
 0002:00015380       ?capacity@?$vector@V?$_List_unchecked_iterator@V?$_List_val@U?$_List_simple_types@U?$pair@$$CBHUWeaponItemCfg_t@@@std@@@std@@@std@@@std@@V?$allocator@V?$_List_unchecked_iterator@V?$_List_val@U?$_List_simple_types@U?$pair@$$CBHUWeaponItemCfg_t@@@std@@@std@@@std@@@std@@@2@@std@@QBEIXZ 10064380 f i FireEventClientSide.obj
 0002:000153c0       ?clear@?$list@U?$pair@$$CBHUWeaponItemCfg_t@@@std@@V?$allocator@U?$pair@$$CBHUWeaponItemCfg_t@@@std@@@2@@std@@QAEXXZ 100643c0 f i FireEventClientSide.obj
 0002:000154b0       ?copy@?$char_traits@D@std@@SAPADQADQBDI@Z 100644b0 f i FireEventClientSide.obj
 0002:000154e0       ?deallocate@?$_Default_allocator_traits@V?$allocator@U?$_List_node@U?$pair@$$CBHUWeaponItemCfg_t@@@std@@PAX@std@@@std@@@std@@SAXAAV?$allocator@U?$_List_node@U?$pair@$$CBHUWeaponItemCfg_t@@@std@@PAX@std@@@2@QAU?$_List_node@U?$pair@$$CBHUWeaponItemCfg_t@@@std@@PAX@2@I@Z 100644e0 f i FireEventClientSide.obj
 0002:00015510       ?deallocate@?$allocator@D@std@@QAEXQADI@Z 10064510 f i FireEventClientSide.obj
 0002:00015540       ?deallocate@?$allocator@U?$_List_node@U?$pair@$$CBHUWeaponItemCfg_t@@@std@@PAX@std@@@std@@QAEXQAU?$_List_node@U?$pair@$$CBHUWeaponItemCfg_t@@@std@@PAX@2@I@Z 10064540 f i FireEventClientSide.obj
 0002:00015570       ?deallocate@?$allocator@V?$_List_unchecked_iterator@V?$_List_val@U?$_List_simple_types@U?$pair@$$CBHUWeaponItemCfg_t@@@std@@@std@@@std@@@std@@@std@@QAEXQAV?$_List_unchecked_iterator@V?$_List_val@U?$_List_simple_types@U?$pair@$$CBHUWeaponItemCfg_t@@@std@@@std@@@std@@@2@I@Z 10064570 f i FireEventClientSide.obj
 0002:000155b0       ?hkFireEventClientSide@Hooks@@YG_NPAVIGameEvent@@@Z 100645b0 f   FireEventClientSide.obj
 0002:000157b0       ?length@?$char_traits@D@std@@SAIQBD@Z 100647b0 f i FireEventClientSide.obj
 0002:000157e0       ?max@?$numeric_limits@H@std@@SAHXZ 100647e0 f i FireEventClientSide.obj
 0002:00015800       ?max_size@?$_Default_allocator_traits@V?$allocator@D@std@@@std@@SAIABV?$allocator@D@2@@Z 10064800 f i FireEventClientSide.obj
 0002:00015820       ?max_size@?$_Default_allocator_traits@V?$allocator@V?$_List_unchecked_iterator@V?$_List_val@U?$_List_simple_types@U?$pair@$$CBHUWeaponItemCfg_t@@@std@@@std@@@std@@@std@@@std@@@std@@SAIABV?$allocator@V?$_List_unchecked_iterator@V?$_List_val@U?$_List_simple_types@U?$pair@$$CBHUWeaponItemCfg_t@@@std@@@std@@@std@@@std@@@2@@Z 10064820 f i FireEventClientSide.obj
 0002:00015840       ?max_size@?$basic_string@DU?$char_traits@D@std@@V?$allocator@D@2@@std@@QBEIXZ 10064840 f i FireEventClientSide.obj
 0002:000158e0       ?max_size@?$vector@V?$_List_unchecked_iterator@V?$_List_val@U?$_List_simple_types@U?$pair@$$CBHUWeaponItemCfg_t@@@std@@@std@@@std@@@std@@V?$allocator@V?$_List_unchecked_iterator@V?$_List_val@U?$_List_simple_types@U?$pair@$$CBHUWeaponItemCfg_t@@@std@@@std@@@std@@@std@@@2@@std@@QBEIXZ 100648e0 f i FireEventClientSide.obj
 0002:00015940       ?move@?$char_traits@D@std@@SAPADQADQBDI@Z 10064940 f i FireEventClientSide.obj
 0002:00015970       ?reserve@?$vector@V?$_List_unchecked_iterator@V?$_List_val@U?$_List_simple_types@U?$pair@$$CBHUWeaponItemCfg_t@@@std@@@std@@@std@@@std@@V?$allocator@V?$_List_unchecked_iterator@V?$_List_val@U?$_List_simple_types@U?$pair@$$CBHUWeaponItemCfg_t@@@std@@@std@@@std@@@std@@@2@@std@@QAEXI@Z 10064970 f i FireEventClientSide.obj
 0002:000159c0       ?size@?$vector@V?$_List_unchecked_iterator@V?$_List_val@U?$_List_simple_types@U?$pair@$$CBHUWeaponItemCfg_t@@@std@@@std@@@std@@@std@@V?$allocator@V?$_List_unchecked_iterator@V?$_List_val@U?$_List_simple_types@U?$pair@$$CBHUWeaponItemCfg_t@@@std@@@std@@@std@@@std@@@2@@std@@QBEIXZ 100649c0 f i FireEventClientSide.obj
 0002:00015a00       _wmemcpy                   10064a00 f i FireEventClientSide.obj
 0002:00015a30       ??$?0$$CBIUItem_t@ItemDefinitions@@$0A@@?$pair@$$CBIUItem_t@ItemDefinitions@@@std@@QAE@ABIABUItem_t@ItemDefinitions@@@Z 10064a30 f i ItemDefinitions.obj
 0002:00015a70       ??$?0$$V@?$_Compressed_pair@V?$allocator@U?$_Tree_node@U?$pair@$$CBIUItem_t@ItemDefinitions@@@std@@PAX@std@@@std@@V?$_Tree_val@U?$_Tree_simple_types@U?$pair@$$CBIUItem_t@ItemDefinitions@@@std@@@std@@@2@$00@std@@QAE@U_Zero_then_variadic_args_t@1@@Z 10064a70 f i ItemDefinitions.obj
 0002:00015ab0       ??$?0AAV?$_Tree_iterator@V?$_Tree_val@U?$_Tree_simple_types@U?$pair@$$CBIUItem_t@ItemDefinitions@@@std@@@std@@@std@@@std@@_N$0A@@?$pair@V?$_Tree_iterator@V?$_Tree_val@U?$_Tree_simple_types@U?$pair@$$CBIUItem_t@ItemDefinitions@@@std@@@std@@@std@@@std@@_N@std@@QAE@AAV?$_Tree_iterator@V?$_Tree_val@U?$_Tree_simple_types@U?$pair@$$CBIUItem_t@ItemDefinitions@@@std@@@std@@@std@@@1@$$QA_N@Z 10064ab0 f i ItemDefinitions.obj
 0002:00015b00       ??$?0ABU?$less@I@std@@U_Zero_then_variadic_args_t@1@@?$_Compressed_pair@U?$less@I@std@@V?$_Compressed_pair@V?$allocator@U?$_Tree_node@U?$pair@$$CBIUItem_t@ItemDefinitions@@@std@@PAX@std@@@std@@V?$_Tree_val@U?$_Tree_simple_types@U?$pair@$$CBIUItem_t@ItemDefinitions@@@std@@@std@@@2@$00@2@$00@std@@QAE@U_One_then_variadic_args_t@1@ABU?$less@I@1@$$QAU_Zero_then_variadic_args_t@1@@Z 10064b00 f i ItemDefinitions.obj
 0002:00015b50       ??$?0ABV?$allocator@UQualityName_t@ItemDefinitions@@@std@@$$V@?$_Compressed_pair@V?$allocator@UQualityName_t@ItemDefinitions@@@std@@V?$_Vector_val@U?$_Simple_types@UQualityName_t@ItemDefinitions@@@std@@@2@$00@std@@QAE@U_One_then_variadic_args_t@1@ABV?$allocator@UQualityName_t@ItemDefinitions@@@1@@Z 10064b50 f i ItemDefinitions.obj
 0002:00015b90       ??$?0ABV?$allocator@UQualityName_t@ItemDefinitions@@@std@@X@?$_Vector_alloc@U?$_Vec_base_types@UQualityName_t@ItemDefinitions@@V?$allocator@UQualityName_t@ItemDefinitions@@@std@@@std@@@std@@QAE@ABV?$allocator@UQualityName_t@ItemDefinitions@@@1@@Z 10064b90 f i ItemDefinitions.obj
 0002:00015bd0       ??$?0ABV?$allocator@UWeaponName_t@ItemDefinitions@@@std@@$$V@?$_Compressed_pair@V?$allocator@UWeaponName_t@ItemDefinitions@@@std@@V?$_Vector_val@U?$_Simple_types@UWeaponName_t@ItemDefinitions@@@std@@@2@$00@std@@QAE@U_One_then_variadic_args_t@1@ABV?$allocator@UWeaponName_t@ItemDefinitions@@@1@@Z 10064bd0 f i ItemDefinitions.obj
 0002:00015c10       ??$?0ABV?$allocator@UWeaponName_t@ItemDefinitions@@@std@@X@?$_Vector_alloc@U?$_Vec_base_types@UWeaponName_t@ItemDefinitions@@V?$allocator@UWeaponName_t@ItemDefinitions@@@std@@@std@@@std@@QAE@ABV?$allocator@UWeaponName_t@ItemDefinitions@@@1@@Z 10064c10 f i ItemDefinitions.obj
 0002:00015c50       ??$?0V?$_Tree_iterator@V?$_Tree_val@U?$_Tree_simple_types@U?$pair@$$CBIUItem_t@ItemDefinitions@@@std@@@std@@@std@@@std@@_N$0A@@?$pair@V?$_Tree_iterator@V?$_Tree_val@U?$_Tree_simple_types@U?$pair@$$CBIUItem_t@ItemDefinitions@@@std@@@std@@@std@@@std@@_N@std@@QAE@$$QAV?$_Tree_iterator@V?$_Tree_val@U?$_Tree_simple_types@U?$pair@$$CBIUItem_t@ItemDefinitions@@@std@@@std@@@std@@@1@$$QA_N@Z 10064c50 f i ItemDefinitions.obj
 0002:00015ca0       ??$_Buy_if_not_node@AAU?$pair@$$CBIUItem_t@ItemDefinitions@@@std@@@?$_Tree@V?$_Tmap_traits@IUItem_t@ItemDefinitions@@U?$less@I@std@@V?$allocator@U?$pair@$$CBIUItem_t@ItemDefinitions@@@std@@@4@$0A@@std@@@std@@IAEPAU?$_Tree_node@U?$pair@$$CBIUItem_t@ItemDefinitions@@@std@@PAX@1@PAU21@AAU?$pair@$$CBIUItem_t@ItemDefinitions@@@1@@Z 10064ca0 f i ItemDefinitions.obj
 0002:00015cc0       ??$_Buynode@ABU?$pair@$$CBIUItem_t@ItemDefinitions@@@std@@@?$_Tree_comp_alloc@V?$_Tmap_traits@IUItem_t@ItemDefinitions@@U?$less@I@std@@V?$allocator@U?$pair@$$CBIUItem_t@ItemDefinitions@@@std@@@4@$0A@@std@@@std@@QAEPAU?$_Tree_node@U?$pair@$$CBIUItem_t@ItemDefinitions@@@std@@PAX@1@ABU?$pair@$$CBIUItem_t@ItemDefinitions@@@1@@Z 10064cc0 f i ItemDefinitions.obj
 0002:00015dc0       ??$_Destroy_range1@V?$allocator@UQualityName_t@ItemDefinitions@@@std@@@std@@YAXPAUQualityName_t@ItemDefinitions@@0AAV?$allocator@UQualityName_t@ItemDefinitions@@@0@U?$integral_constant@_N$00@0@@Z 10064dc0 f i ItemDefinitions.obj
 0002:00015de0       ??$_Destroy_range1@V?$allocator@UWeaponName_t@ItemDefinitions@@@std@@@std@@YAXPAUWeaponName_t@ItemDefinitions@@0AAV?$allocator@UWeaponName_t@ItemDefinitions@@@0@U?$integral_constant@_N$00@0@@Z 10064de0 f i ItemDefinitions.obj
 0002:00015e00       ??$_Destroy_range@V?$allocator@UQualityName_t@ItemDefinitions@@@std@@@std@@YAXPAUQualityName_t@ItemDefinitions@@0AAV?$allocator@UQualityName_t@ItemDefinitions@@@0@@Z 10064e00 f i ItemDefinitions.obj
 0002:00015e40       ??$_Destroy_range@V?$allocator@UWeaponName_t@ItemDefinitions@@@std@@@std@@YAXPAUWeaponName_t@ItemDefinitions@@0AAV?$allocator@UWeaponName_t@ItemDefinitions@@@0@@Z 10064e40 f i ItemDefinitions.obj
 0002:00015e80       ??$_Distance1@PBUQualityName_t@ItemDefinitions@@@std@@YAHPBUQualityName_t@ItemDefinitions@@0Urandom_access_iterator_tag@0@@Z 10064e80 f i ItemDefinitions.obj
 0002:00015ea0       ??$_Distance1@PBUWeaponName_t@ItemDefinitions@@@std@@YAHPBUWeaponName_t@ItemDefinitions@@0Urandom_access_iterator_tag@0@@Z 10064ea0 f i ItemDefinitions.obj
 0002:00015ec0       ??$_Freenode0@V?$allocator@U?$_Tree_node@U?$pair@$$CBIUItem_t@ItemDefinitions@@@std@@PAX@std@@@std@@@?$_Tree_node@U?$pair@$$CBIUItem_t@ItemDefinitions@@@std@@PAX@std@@SAXAAV?$allocator@U?$_Tree_node@U?$pair@$$CBIUItem_t@ItemDefinitions@@@std@@PAX@std@@@1@PAU01@@Z 10064ec0 f i ItemDefinitions.obj
 0002:00015fa0       ??$_Get_size_of_n@$07@std@@YAII@Z 10064fa0 f i ItemDefinitions.obj
 0002:00015fe0       ??$_Get_size_of_n@$0BM@@std@@YAII@Z 10064fe0 f i ItemDefinitions.obj
 0002:00016020       ??$_Insert_at@AAU?$pair@$$CBIUItem_t@ItemDefinitions@@@std@@PAU?$_Tree_node@U?$pair@$$CBIUItem_t@ItemDefinitions@@@std@@PAX@2@@?$_Tree@V?$_Tmap_traits@IUItem_t@ItemDefinitions@@U?$less@I@std@@V?$allocator@U?$pair@$$CBIUItem_t@ItemDefinitions@@@std@@@4@$0A@@std@@@std@@IAE?AV?$_Tree_iterator@V?$_Tree_val@U?$_Tree_simple_types@U?$pair@$$CBIUItem_t@ItemDefinitions@@@std@@@std@@@std@@@1@_NPAU?$_Tree_node@U?$pair@$$CBIUItem_t@ItemDefinitions@@@std@@PAX@1@AAU?$pair@$$CBIUItem_t@ItemDefinitions@@@1@1@Z 10065020 f i ItemDefinitions.obj
 0002:00016360       ??$_Insert_hint@AAU?$pair@$$CBIUItem_t@ItemDefinitions@@@std@@PAU?$_Tree_node@U?$pair@$$CBIUItem_t@ItemDefinitions@@@std@@PAX@2@@?$_Tree@V?$_Tmap_traits@IUItem_t@ItemDefinitions@@U?$less@I@std@@V?$allocator@U?$pair@$$CBIUItem_t@ItemDefinitions@@@std@@@4@$0A@@std@@@std@@IAE?AV?$_Tree_iterator@V?$_Tree_val@U?$_Tree_simple_types@U?$pair@$$CBIUItem_t@ItemDefinitions@@@std@@@std@@@std@@@1@V?$_Tree_const_iterator@V?$_Tree_val@U?$_Tree_simple_types@U?$pair@$$CBIUItem_t@ItemDefinitions@@@std@@@std@@@std@@@1@AAU?$pair@$$CBIUItem_t@ItemDefinitions@@@1@PAU?$_Tree_node@U?$pair@$$CBIUItem_t@ItemDefinitions@@@std@@PAX@1@@Z 10065360 f i ItemDefinitions.obj
 0002:00016eb0       ??$_Insert_nohint@AAU?$pair@$$CBIUItem_t@ItemDefinitions@@@std@@PAU?$_Tree_node@U?$pair@$$CBIUItem_t@ItemDefinitions@@@std@@PAX@2@@?$_Tree@V?$_Tmap_traits@IUItem_t@ItemDefinitions@@U?$less@I@std@@V?$allocator@U?$pair@$$CBIUItem_t@ItemDefinitions@@@std@@@4@$0A@@std@@@std@@IAE?AU?$pair@V?$_Tree_iterator@V?$_Tree_val@U?$_Tree_simple_types@U?$pair@$$CBIUItem_t@ItemDefinitions@@@std@@@std@@@std@@@std@@_N@1@_NAAU?$pair@$$CBIUItem_t@ItemDefinitions@@@1@PAU?$_Tree_node@U?$pair@$$CBIUItem_t@ItemDefinitions@@@std@@PAX@1@@Z 10065eb0 f i ItemDefinitions.obj
 0002:00017320       ??$_Kfn@$$CBIUItem_t@ItemDefinitions@@@?$_Tmap_traits@IUItem_t@ItemDefinitions@@U?$less@I@std@@V?$allocator@U?$pair@$$CBIUItem_t@ItemDefinitions@@@std@@@4@$0A@@std@@SAABIABU?$pair@$$CBIUItem_t@ItemDefinitions@@@1@@Z 10066320 f i ItemDefinitions.obj
 0002:00017340       ??$_Ptr_copy_cat@$$CBUQualityName_t@ItemDefinitions@@U12@@std@@YA?AU_Trivially_copyable_ptr_iterator_tag@0@ABQBUQualityName_t@ItemDefinitions@@ABQAU23@@Z 10066340 f i ItemDefinitions.obj
 0002:00017360       ??$_Ptr_copy_cat@$$CBUWeaponName_t@ItemDefinitions@@U12@@std@@YA?AU_Trivially_copyable_ptr_iterator_tag@0@ABQBUWeaponName_t@ItemDefinitions@@ABQAU23@@Z 10066360 f i ItemDefinitions.obj
 0002:00017380       ??$_Range_construct_or_tidy@PBUQualityName_t@ItemDefinitions@@@?$vector@UQualityName_t@ItemDefinitions@@V?$allocator@UQualityName_t@ItemDefinitions@@@std@@@std@@AAEXPBUQualityName_t@ItemDefinitions@@0Uforward_iterator_tag@1@@Z 10066380 f i ItemDefinitions.obj
 0002:00017480       ??$_Range_construct_or_tidy@PBUWeaponName_t@ItemDefinitions@@@?$vector@UWeaponName_t@ItemDefinitions@@V?$allocator@UWeaponName_t@ItemDefinitions@@@std@@@std@@AAEXPBUWeaponName_t@ItemDefinitions@@0Uforward_iterator_tag@1@@Z 10066480 f i ItemDefinitions.obj
 0002:000176c0       ??$_Rechecked@PAUQualityName_t@ItemDefinitions@@PAU12@@std@@YAAAPAUQualityName_t@ItemDefinitions@@AAPAU12@QAU12@@Z 100666c0 f i ItemDefinitions.obj
 0002:000176f0       ??$_Rechecked@PAUWeaponName_t@ItemDefinitions@@PAU12@@std@@YAAAPAUWeaponName_t@ItemDefinitions@@AAPAU12@QAU12@@Z 100666f0 f i ItemDefinitions.obj
 0002:00017720       ??$_Ucopy@PBUQualityName_t@ItemDefinitions@@@?$vector@UQualityName_t@ItemDefinitions@@V?$allocator@UQualityName_t@ItemDefinitions@@@std@@@std@@AAEPAUQualityName_t@ItemDefinitions@@PBU23@0PAU23@@Z 10066720 f i ItemDefinitions.obj
 0002:00017760       ??$_Ucopy@PBUWeaponName_t@ItemDefinitions@@@?$vector@UWeaponName_t@ItemDefinitions@@V?$allocator@UWeaponName_t@ItemDefinitions@@@std@@@std@@AAEPAUWeaponName_t@ItemDefinitions@@PBU23@0PAU23@@Z 10066760 f i ItemDefinitions.obj
 0002:000177a0       ??$_Unchecked@PAUQualityName_t@ItemDefinitions@@@std@@YAPAUQualityName_t@ItemDefinitions@@PAU12@@Z 100667a0 f i ItemDefinitions.obj
 0002:000177c0       ??$_Unchecked@PAUWeaponName_t@ItemDefinitions@@@std@@YAPAUWeaponName_t@ItemDefinitions@@PAU12@@Z 100667c0 f i ItemDefinitions.obj
 0002:000177e0       ??$_Unchecked@PBUQualityName_t@ItemDefinitions@@@std@@YAPBUQualityName_t@ItemDefinitions@@PBU12@@Z 100667e0 f i ItemDefinitions.obj
 0002:00017800       ??$_Unchecked@PBUWeaponName_t@ItemDefinitions@@@std@@YAPBUWeaponName_t@ItemDefinitions@@PBU12@@Z 10066800 f i ItemDefinitions.obj
 0002:00017820       ??$_Unfancy@UQualityName_t@ItemDefinitions@@@std@@YAPAUQualityName_t@ItemDefinitions@@PAU12@@Z 10066820 f i ItemDefinitions.obj
 0002:00017840       ??$_Unfancy@UWeaponName_t@ItemDefinitions@@@std@@YAPAUWeaponName_t@ItemDefinitions@@PAU12@@Z 10066840 f i ItemDefinitions.obj
 0002:00017860       ??$_Uninitialized_copy@PBUQualityName_t@ItemDefinitions@@PAU12@V?$allocator@UQualityName_t@ItemDefinitions@@@std@@@std@@YAPAUQualityName_t@ItemDefinitions@@PBU12@0PAU12@AAV?$allocator@UQualityName_t@ItemDefinitions@@@0@@Z 10066860 f i ItemDefinitions.obj
 0002:00017930       ??$_Uninitialized_copy@PBUWeaponName_t@ItemDefinitions@@PAU12@V?$allocator@UWeaponName_t@ItemDefinitions@@@std@@@std@@YAPAUWeaponName_t@ItemDefinitions@@PBU12@0PAU12@AAV?$allocator@UWeaponName_t@ItemDefinitions@@@0@@Z 10066930 f i ItemDefinitions.obj
 0002:00017a00       ??$_Uninitialized_copy_al_unchecked@PBUQualityName_t@ItemDefinitions@@PAU12@V?$allocator@UQualityName_t@ItemDefinitions@@@std@@@std@@YAPAUQualityName_t@ItemDefinitions@@PBU12@0PAU12@AAV?$allocator@UQualityName_t@ItemDefinitions@@@0@U_General_ptr_iterator_tag@0@U_Unused_parameter@0@@Z 10066a00 f i ItemDefinitions.obj
 0002:00017b00       ??$_Uninitialized_copy_al_unchecked@PBUWeaponName_t@ItemDefinitions@@PAU12@V?$allocator@UWeaponName_t@ItemDefinitions@@@std@@@std@@YAPAUWeaponName_t@ItemDefinitions@@PBU12@0PAU12@AAV?$allocator@UWeaponName_t@ItemDefinitions@@@0@U_General_ptr_iterator_tag@0@U_Unused_parameter@0@@Z 10066b00 f i ItemDefinitions.obj
 0002:00017c00       ??$addressof@PAU?$_Tree_node@U?$pair@$$CBIUItem_t@ItemDefinitions@@@std@@PAX@std@@@std@@YAPAPAU?$_Tree_node@U?$pair@$$CBIUItem_t@ItemDefinitions@@@std@@PAX@0@AAPAU10@@Z 10066c00 f i ItemDefinitions.obj
 0002:00017c20       ??$addressof@U?$pair@$$CBIUItem_t@ItemDefinitions@@@std@@@std@@YAPAU?$pair@$$CBIUItem_t@ItemDefinitions@@@0@AAU10@@Z 10066c20 f i ItemDefinitions.obj
 0002:00017c40       ??$addressof@V?$_Tree_val@U?$_Tree_simple_types@U?$pair@$$CBIUItem_t@ItemDefinitions@@@std@@@std@@@std@@@std@@YAPAV?$_Tree_val@U?$_Tree_simple_types@U?$pair@$$CBIUItem_t@ItemDefinitions@@@std@@@std@@@0@AAV10@@Z 10066c40 f i ItemDefinitions.obj
 0002:00017c60       ??$construct@PAU?$_Tree_node@U?$pair@$$CBIUItem_t@ItemDefinitions@@@std@@PAX@std@@AAPAU12@@?$_Default_allocator_traits@V?$allocator@U?$_Tree_node@U?$pair@$$CBIUItem_t@ItemDefinitions@@@std@@PAX@std@@@std@@@std@@SAXAAV?$allocator@U?$_Tree_node@U?$pair@$$CBIUItem_t@ItemDefinitions@@@std@@PAX@std@@@1@QAPAU?$_Tree_node@U?$pair@$$CBIUItem_t@ItemDefinitions@@@std@@PAX@1@AAPAU31@@Z 10066c60 f i ItemDefinitions.obj
 0002:00017cb0       ??$construct@U?$pair@$$CBIUItem_t@ItemDefinitions@@@std@@ABU12@@?$_Default_allocator_traits@V?$allocator@U?$_Tree_node@U?$pair@$$CBIUItem_t@ItemDefinitions@@@std@@PAX@std@@@std@@@std@@SAXAAV?$allocator@U?$_Tree_node@U?$pair@$$CBIUItem_t@ItemDefinitions@@@std@@PAX@std@@@1@QAU?$pair@$$CBIUItem_t@ItemDefinitions@@@1@ABU31@@Z 10066cb0 f i ItemDefinitions.obj
 0002:00017d00       ??$construct@UQualityName_t@ItemDefinitions@@ABU12@@?$_Default_allocator_traits@V?$allocator@UQualityName_t@ItemDefinitions@@@std@@@std@@SAXAAV?$allocator@UQualityName_t@ItemDefinitions@@@1@QAUQualityName_t@ItemDefinitions@@ABU34@@Z 10066d00 f i ItemDefinitions.obj
 0002:00017d50       ??$construct@UWeaponName_t@ItemDefinitions@@ABU12@@?$_Default_allocator_traits@V?$allocator@UWeaponName_t@ItemDefinitions@@@std@@@std@@SAXAAV?$allocator@UWeaponName_t@ItemDefinitions@@@1@QAUWeaponName_t@ItemDefinitions@@ABU34@@Z 10066d50 f i ItemDefinitions.obj
 0002:00017da0       ??$destroy@PAU?$_Tree_node@U?$pair@$$CBIUItem_t@ItemDefinitions@@@std@@PAX@std@@@?$_Default_allocator_traits@V?$allocator@U?$_Tree_node@U?$pair@$$CBIUItem_t@ItemDefinitions@@@std@@PAX@std@@@std@@@std@@SAXAAV?$allocator@U?$_Tree_node@U?$pair@$$CBIUItem_t@ItemDefinitions@@@std@@PAX@std@@@1@QAPAU?$_Tree_node@U?$pair@$$CBIUItem_t@ItemDefinitions@@@std@@PAX@1@@Z 10066da0 f i ItemDefinitions.obj
 0002:00017dc0       ??$destroy@U?$pair@$$CBIUItem_t@ItemDefinitions@@@std@@@?$_Default_allocator_traits@V?$allocator@U?$_Tree_node@U?$pair@$$CBIUItem_t@ItemDefinitions@@@std@@PAX@std@@@std@@@std@@SAXAAV?$allocator@U?$_Tree_node@U?$pair@$$CBIUItem_t@ItemDefinitions@@@std@@PAX@std@@@1@QAU?$pair@$$CBIUItem_t@ItemDefinitions@@@1@@Z 10066dc0 f i ItemDefinitions.obj
 0002:00017de0       ??$distance@PBUQualityName_t@ItemDefinitions@@@std@@YAHPBUQualityName_t@ItemDefinitions@@0@Z 10066de0 f i ItemDefinitions.obj
 0002:00017e10       ??$distance@PBUWeaponName_t@ItemDefinitions@@@std@@YAHPBUWeaponName_t@ItemDefinitions@@0@Z 10066e10 f i ItemDefinitions.obj
 0002:00017e40       ??$emplace_hint@ABU?$pair@$$CBIUItem_t@ItemDefinitions@@@std@@@?$_Tree@V?$_Tmap_traits@IUItem_t@ItemDefinitions@@U?$less@I@std@@V?$allocator@U?$pair@$$CBIUItem_t@ItemDefinitions@@@std@@@4@$0A@@std@@@std@@QAE?AV?$_Tree_iterator@V?$_Tree_val@U?$_Tree_simple_types@U?$pair@$$CBIUItem_t@ItemDefinitions@@@std@@@std@@@std@@@1@V?$_Tree_const_iterator@V?$_Tree_val@U?$_Tree_simple_types@U?$pair@$$CBIUItem_t@ItemDefinitions@@@std@@@std@@@std@@@1@ABU?$pair@$$CBIUItem_t@ItemDefinitions@@@1@@Z 10066e40 f i ItemDefinitions.obj
 0002:00017ea0       ??$forward@AAPAU?$_Tree_node@U?$pair@$$CBIUItem_t@ItemDefinitions@@@std@@PAX@std@@@std@@YAAAPAU?$_Tree_node@U?$pair@$$CBIUItem_t@ItemDefinitions@@@std@@PAX@0@AAPAU10@@Z 10066ea0 f i ItemDefinitions.obj
 0002:00017ec0       ??$forward@AAU?$pair@$$CBIUItem_t@ItemDefinitions@@@std@@@std@@YAAAU?$pair@$$CBIUItem_t@ItemDefinitions@@@0@AAU10@@Z 10066ec0 f i ItemDefinitions.obj
 0002:00017ee0       ??$forward@AAV?$_Tree_iterator@V?$_Tree_val@U?$_Tree_simple_types@U?$pair@$$CBIUItem_t@ItemDefinitions@@@std@@@std@@@std@@@std@@@std@@YAAAV?$_Tree_iterator@V?$_Tree_val@U?$_Tree_simple_types@U?$pair@$$CBIUItem_t@ItemDefinitions@@@std@@@std@@@std@@@0@AAV10@@Z 10066ee0 f i ItemDefinitions.obj
 0002:00017f00       ??$forward@ABU?$less@I@std@@@std@@YAABU?$less@I@0@ABU10@@Z 10066f00 f i ItemDefinitions.obj
 0002:00017f20       ??$forward@ABU?$pair@$$CBIUItem_t@ItemDefinitions@@@std@@@std@@YAABU?$pair@$$CBIUItem_t@ItemDefinitions@@@0@ABU10@@Z 10066f20 f i ItemDefinitions.obj
 0002:00017f40       ??$forward@ABUQualityName_t@ItemDefinitions@@@std@@YAABUQualityName_t@ItemDefinitions@@ABU12@@Z 10066f40 f i ItemDefinitions.obj
 0002:00017f60       ??$forward@ABUWeaponName_t@ItemDefinitions@@@std@@YAABUWeaponName_t@ItemDefinitions@@ABU12@@Z 10066f60 f i ItemDefinitions.obj
 0002:00017f80       ??$forward@ABV?$allocator@UQualityName_t@ItemDefinitions@@@std@@@std@@YAABV?$allocator@UQualityName_t@ItemDefinitions@@@0@ABV10@@Z 10066f80 f i ItemDefinitions.obj
 0002:00017fa0       ??$forward@ABV?$allocator@UWeaponName_t@ItemDefinitions@@@std@@@std@@YAABV?$allocator@UWeaponName_t@ItemDefinitions@@@0@ABV10@@Z 10066fa0 f i ItemDefinitions.obj
 0002:00017fc0       ??$forward@U_Zero_then_variadic_args_t@std@@@std@@YA$$QAU_Zero_then_variadic_args_t@0@AAU10@@Z 10066fc0 f i ItemDefinitions.obj
 0002:00017fe0       ??$forward@V?$_Tree_iterator@V?$_Tree_val@U?$_Tree_simple_types@U?$pair@$$CBIUItem_t@ItemDefinitions@@@std@@@std@@@std@@@std@@@std@@YA$$QAV?$_Tree_iterator@V?$_Tree_val@U?$_Tree_simple_types@U?$pair@$$CBIUItem_t@ItemDefinitions@@@std@@@std@@@std@@@0@AAV10@@Z 10066fe0 f i ItemDefinitions.obj
 0002:00018000       ??$forward@_N@std@@YA$$QA_NAA_N@Z 10067000 f i ItemDefinitions.obj
 0002:00018020       ??$insert@PBU?$pair@$$CBIUItem_t@ItemDefinitions@@@std@@@?$_Tree@V?$_Tmap_traits@IUItem_t@ItemDefinitions@@U?$less@I@std@@V?$allocator@U?$pair@$$CBIUItem_t@ItemDefinitions@@@std@@@4@$0A@@std@@@std@@QAEXPBU?$pair@$$CBIUItem_t@ItemDefinitions@@@1@0@Z 10067020 f i ItemDefinitions.obj
 0002:00018090       ??$move@AAD@std@@YA$$QADAAD@Z 10067090 f i ItemDefinitions.obj
 0002:000180b0       ??$swap@DX@std@@YAXAAD0@Z  100670b0 f i ItemDefinitions.obj
 0002:00018130       ??0?$_Tree@V?$_Tmap_traits@IUItem_t@ItemDefinitions@@U?$less@I@std@@V?$allocator@U?$pair@$$CBIUItem_t@ItemDefinitions@@@std@@@4@$0A@@std@@@std@@QAE@ABU?$less@I@1@@Z 10067130 f i ItemDefinitions.obj
 0002:00018160       ??0?$_Tree_comp_alloc@V?$_Tmap_traits@IUItem_t@ItemDefinitions@@U?$less@I@std@@V?$allocator@U?$pair@$$CBIUItem_t@ItemDefinitions@@@std@@@4@$0A@@std@@@std@@QAE@ABU?$less@I@1@@Z 10067160 f i ItemDefinitions.obj
 0002:000181b0       ??0?$_Tree_const_iterator@V?$_Tree_val@U?$_Tree_simple_types@U?$pair@$$CBIUItem_t@ItemDefinitions@@@std@@@std@@@std@@@std@@QAE@PAU?$_Tree_node@U?$pair@$$CBIUItem_t@ItemDefinitions@@@std@@PAX@1@PBV?$_Tree_val@U?$_Tree_simple_types@U?$pair@$$CBIUItem_t@ItemDefinitions@@@std@@@std@@@1@@Z 100671b0 f i ItemDefinitions.obj
 0002:000181f0       ??0?$_Tree_const_iterator@V?$_Tree_val@U?$_Tree_simple_types@U?$pair@$$CBIUItem_t@ItemDefinitions@@@std@@@std@@@std@@@std@@QAE@XZ 100671f0 f i ItemDefinitions.obj
 0002:00018220       ??0?$_Tree_iterator@V?$_Tree_val@U?$_Tree_simple_types@U?$pair@$$CBIUItem_t@ItemDefinitions@@@std@@@std@@@std@@@std@@QAE@PAU?$_Tree_node@U?$pair@$$CBIUItem_t@ItemDefinitions@@@std@@PAX@1@PBV?$_Tree_val@U?$_Tree_simple_types@U?$pair@$$CBIUItem_t@ItemDefinitions@@@std@@@std@@@1@@Z 10067220 f i ItemDefinitions.obj
 0002:00018260       ??0?$_Tree_unchecked_const_iterator@V?$_Tree_val@U?$_Tree_simple_types@U?$pair@$$CBIUItem_t@ItemDefinitions@@@std@@@std@@@std@@U_Iterator_base0@2@@std@@QAE@PAU?$_Tree_node@U?$pair@$$CBIUItem_t@ItemDefinitions@@@std@@PAX@1@PBV?$_Tree_val@U?$_Tree_simple_types@U?$pair@$$CBIUItem_t@ItemDefinitions@@@std@@@std@@@1@@Z 10067260 f i ItemDefinitions.obj
 0002:000182a0       ??0?$_Tree_unchecked_const_iterator@V?$_Tree_val@U?$_Tree_simple_types@U?$pair@$$CBIUItem_t@ItemDefinitions@@@std@@@std@@@std@@U_Iterator_base0@2@@std@@QAE@XZ 100672a0 f i ItemDefinitions.obj
 0002:000182d0       ??0?$_Tree_val@U?$_Tree_simple_types@U?$pair@$$CBIUItem_t@ItemDefinitions@@@std@@@std@@@std@@QAE@XZ 100672d0 f i ItemDefinitions.obj
 0002:00018310       ??0?$_Vector_val@U?$_Simple_types@UQualityName_t@ItemDefinitions@@@std@@@std@@QAE@XZ 10067310 f i ItemDefinitions.obj
 0002:00018350       ??0?$_Vector_val@U?$_Simple_types@UWeaponName_t@ItemDefinitions@@@std@@@std@@QAE@XZ 10067350 f i ItemDefinitions.obj
 0002:00018390       ??0?$allocator@U?$_Tree_node@U?$pair@$$CBIUItem_t@ItemDefinitions@@@std@@PAX@std@@@std@@QAE@XZ 10067390 f i ItemDefinitions.obj
 0002:000183b0       ??0?$allocator@UQualityName_t@ItemDefinitions@@@std@@QAE@XZ 100673b0 f i ItemDefinitions.obj
 0002:000183d0       ??0?$allocator@UWeaponName_t@ItemDefinitions@@@std@@QAE@XZ 100673d0 f i ItemDefinitions.obj
 0002:000183f0       ??0?$initializer_list@U?$pair@$$CBIUItem_t@ItemDefinitions@@@std@@@std@@QAE@PBU?$pair@$$CBIUItem_t@ItemDefinitions@@@1@0@Z 100673f0 f i ItemDefinitions.obj
 0002:00018430       ??0?$initializer_list@UQualityName_t@ItemDefinitions@@@std@@QAE@PBUQualityName_t@ItemDefinitions@@0@Z 10067430 f i ItemDefinitions.obj
 0002:00018470       ??0?$initializer_list@UWeaponName_t@ItemDefinitions@@@std@@QAE@PBUWeaponName_t@ItemDefinitions@@0@Z 10067470 f i ItemDefinitions.obj
 0002:000184b0       ??0?$map@IUItem_t@ItemDefinitions@@U?$less@I@std@@V?$allocator@U?$pair@$$CBIUItem_t@ItemDefinitions@@@std@@@4@@std@@QAE@V?$initializer_list@U?$pair@$$CBIUItem_t@ItemDefinitions@@@std@@@1@@Z 100674b0 f i ItemDefinitions.obj
 0002:00018540       ??0?$vector@UQualityName_t@ItemDefinitions@@V?$allocator@UQualityName_t@ItemDefinitions@@@std@@@std@@QAE@V?$initializer_list@UQualityName_t@ItemDefinitions@@@1@ABV?$allocator@UQualityName_t@ItemDefinitions@@@1@@Z 10067540 f i ItemDefinitions.obj
 0002:000185a0       ??0?$vector@UWeaponName_t@ItemDefinitions@@V?$allocator@UWeaponName_t@ItemDefinitions@@@std@@@std@@QAE@V?$initializer_list@UWeaponName_t@ItemDefinitions@@@1@ABV?$allocator@UWeaponName_t@ItemDefinitions@@@1@@Z 100675a0 f i ItemDefinitions.obj
 0002:00018600       ??0Item_t@ItemDefinitions@@QAE@PBD0@Z 10067600 f i ItemDefinitions.obj
 0002:00018640       ??0QualityName_t@ItemDefinitions@@QAE@HPBD@Z 10067640 f i ItemDefinitions.obj
 0002:00018680       ??0WeaponName_t@ItemDefinitions@@QAE@HPBD@Z 10067680 f i ItemDefinitions.obj
 0002:000186c0       ??1?$_Tree@V?$_Tmap_traits@IUItem_t@ItemDefinitions@@U?$less@I@std@@V?$allocator@U?$pair@$$CBIUItem_t@ItemDefinitions@@@std@@@4@$0A@@std@@@std@@QAE@XZ 100676c0 f i ItemDefinitions.obj
 0002:00018720       ??1?$_Tree_comp_alloc@V?$_Tmap_traits@IUItem_t@ItemDefinitions@@U?$less@I@std@@V?$allocator@U?$pair@$$CBIUItem_t@ItemDefinitions@@@std@@@4@$0A@@std@@@std@@QAE@XZ 10067720 f i ItemDefinitions.obj
 0002:00018790       ??1?$map@IUItem_t@ItemDefinitions@@U?$less@I@std@@V?$allocator@U?$pair@$$CBIUItem_t@ItemDefinitions@@@std@@@4@@std@@QAE@XZ 10067790 f i ItemDefinitions.obj
 0002:000187c0       ??1?$vector@UQualityName_t@ItemDefinitions@@V?$allocator@UQualityName_t@ItemDefinitions@@@std@@@std@@QAE@XZ 100677c0 f i ItemDefinitions.obj
 0002:00018820       ??1?$vector@UWeaponName_t@ItemDefinitions@@V?$allocator@UWeaponName_t@ItemDefinitions@@@std@@@std@@QAE@XZ 10067820 f i ItemDefinitions.obj
 0002:00018880       ??8?$_Tree_const_iterator@V?$_Tree_val@U?$_Tree_simple_types@U?$pair@$$CBIUItem_t@ItemDefinitions@@@std@@@std@@@std@@@std@@QBE_NABV01@@Z 10067880 f i ItemDefinitions.obj
 0002:000188d0       ??9?$_Tree_const_iterator@V?$_Tree_val@U?$_Tree_simple_types@U?$pair@$$CBIUItem_t@ItemDefinitions@@@std@@@std@@@std@@@std@@QBE_NABV01@@Z 100678d0 f i ItemDefinitions.obj
 0002:00018920       ??E?$_Tree_const_iterator@V?$_Tree_val@U?$_Tree_simple_types@U?$pair@$$CBIUItem_t@ItemDefinitions@@@std@@@std@@@std@@@std@@QAE?AV01@H@Z 10067920 f i ItemDefinitions.obj
 0002:00018990       ??E?$_Tree_const_iterator@V?$_Tree_val@U?$_Tree_simple_types@U?$pair@$$CBIUItem_t@ItemDefinitions@@@std@@@std@@@std@@@std@@QAEAAV01@XZ 10067990 f i ItemDefinitions.obj
 0002:000189c0       ??E?$_Tree_unchecked_const_iterator@V?$_Tree_val@U?$_Tree_simple_types@U?$pair@$$CBIUItem_t@ItemDefinitions@@@std@@@std@@@std@@U_Iterator_base0@2@@std@@QAEAAV01@XZ 100679c0 f i ItemDefinitions.obj
 0002:00018a70       ??F?$_Tree_const_iterator@V?$_Tree_val@U?$_Tree_simple_types@U?$pair@$$CBIUItem_t@ItemDefinitions@@@std@@@std@@@std@@@std@@QAEAAV01@XZ 10067a70 f i ItemDefinitions.obj
 0002:00018aa0       ??F?$_Tree_iterator@V?$_Tree_val@U?$_Tree_simple_types@U?$pair@$$CBIUItem_t@ItemDefinitions@@@std@@@std@@@std@@@std@@QAEAAV01@XZ 10067aa0 f i ItemDefinitions.obj
 0002:00018ad0       ??F?$_Tree_unchecked_const_iterator@V?$_Tree_val@U?$_Tree_simple_types@U?$pair@$$CBIUItem_t@ItemDefinitions@@@std@@@std@@@std@@U_Iterator_base0@2@@std@@QAEAAV01@XZ 10067ad0 f i ItemDefinitions.obj
 0002:00018bf0       ??R?$less@I@std@@QBE_NABI0@Z 10067bf0 f i ItemDefinitions.obj
 0002:00018c40       ?_Buy@?$vector@UQualityName_t@ItemDefinitions@@V?$allocator@UQualityName_t@ItemDefinitions@@@std@@@std@@AAE_NI@Z 10067c40 f i ItemDefinitions.obj
 0002:00018d20       ?_Buy@?$vector@UWeaponName_t@ItemDefinitions@@V?$allocator@UWeaponName_t@ItemDefinitions@@@std@@@std@@AAE_NI@Z 10067d20 f i ItemDefinitions.obj
 0002:00018e00       ?_Buyheadnode@?$_Tree_comp_alloc@V?$_Tmap_traits@IUItem_t@ItemDefinitions@@U?$less@I@std@@V?$allocator@U?$pair@$$CBIUItem_t@ItemDefinitions@@@std@@@4@$0A@@std@@@std@@QAEPAU?$_Tree_node@U?$pair@$$CBIUItem_t@ItemDefinitions@@@std@@PAX@2@XZ 10067e00 f i ItemDefinitions.obj
 0002:00018f50       ?_Buynode0@?$_Tree_comp_alloc@V?$_Tmap_traits@IUItem_t@ItemDefinitions@@U?$less@I@std@@V?$allocator@U?$pair@$$CBIUItem_t@ItemDefinitions@@@std@@@4@$0A@@std@@@std@@QAEPAU?$_Tree_node@U?$pair@$$CBIUItem_t@ItemDefinitions@@@std@@PAX@2@XZ 10067f50 f i ItemDefinitions.obj
 0002:00019090       ?_Construct@?$_Tree_comp_alloc@V?$_Tmap_traits@IUItem_t@ItemDefinitions@@U?$less@I@std@@V?$allocator@U?$pair@$$CBIUItem_t@ItemDefinitions@@@std@@@4@$0A@@std@@@std@@QAEXXZ 10068090 f i ItemDefinitions.obj
 0002:000190c0       ?_Destroy@?$vector@UQualityName_t@ItemDefinitions@@V?$allocator@UQualityName_t@ItemDefinitions@@@std@@@std@@AAEXPAUQualityName_t@ItemDefinitions@@0@Z 100680c0 f i ItemDefinitions.obj
 0002:00019100       ?_Destroy@?$vector@UWeaponName_t@ItemDefinitions@@V?$allocator@UWeaponName_t@ItemDefinitions@@@std@@@std@@AAEXPAUWeaponName_t@ItemDefinitions@@0@Z 10068100 f i ItemDefinitions.obj
 0002:00019140       ?_Destroy_if_node@?$_Tree@V?$_Tmap_traits@IUItem_t@ItemDefinitions@@U?$less@I@std@@V?$allocator@U?$pair@$$CBIUItem_t@ItemDefinitions@@@std@@@4@$0A@@std@@@std@@IAEXPAU?$_Tree_node@U?$pair@$$CBIUItem_t@ItemDefinitions@@@std@@PAX@2@@Z 10068140 f i ItemDefinitions.obj
 0002:000191a0       ?_Erase@?$_Tree@V?$_Tmap_traits@IUItem_t@ItemDefinitions@@U?$less@I@std@@V?$allocator@U?$pair@$$CBIUItem_t@ItemDefinitions@@@std@@@4@$0A@@std@@@std@@IAEXPAU?$_Tree_node@U?$pair@$$CBIUItem_t@ItemDefinitions@@@std@@PAX@2@@Z 100681a0 f i ItemDefinitions.obj
 0002:00019240       ?_Extract@?$_Tree@V?$_Tmap_traits@IUItem_t@ItemDefinitions@@U?$less@I@std@@V?$allocator@U?$pair@$$CBIUItem_t@ItemDefinitions@@@std@@@4@$0A@@std@@@std@@QAEPAU?$_Tree_node@U?$pair@$$CBIUItem_t@ItemDefinitions@@@std@@PAX@2@V?$_Tree_const_iterator@V?$_Tree_val@U?$_Tree_simple_types@U?$pair@$$CBIUItem_t@ItemDefinitions@@@std@@@std@@@std@@@2@@Z 10068240 f i ItemDefinitions.obj
 0002:000197a0       ?_Freeheadnode@?$_Tree_comp_alloc@V?$_Tmap_traits@IUItem_t@ItemDefinitions@@U?$less@I@std@@V?$allocator@U?$pair@$$CBIUItem_t@ItemDefinitions@@@std@@@4@$0A@@std@@@std@@QAEXPAU?$_Tree_node@U?$pair@$$CBIUItem_t@ItemDefinitions@@@std@@PAX@2@@Z 100687a0 f i ItemDefinitions.obj
 0002:000197e0       ?_Freenode0@?$_Tree_comp_alloc@V?$_Tmap_traits@IUItem_t@ItemDefinitions@@U?$less@I@std@@V?$allocator@U?$pair@$$CBIUItem_t@ItemDefinitions@@@std@@@4@$0A@@std@@@std@@QAEXPAU?$_Tree_node@U?$pair@$$CBIUItem_t@ItemDefinitions@@@std@@PAX@2@@Z 100687e0 f i ItemDefinitions.obj
 0002:00019820       ?_Get_data@?$_Tree_comp_alloc@V?$_Tmap_traits@IUItem_t@ItemDefinitions@@U?$less@I@std@@V?$allocator@U?$pair@$$CBIUItem_t@ItemDefinitions@@@std@@@4@$0A@@std@@@std@@QAEAAV?$_Tree_val@U?$_Tree_simple_types@U?$pair@$$CBIUItem_t@ItemDefinitions@@@std@@@std@@@2@XZ 10068820 f i ItemDefinitions.obj
 0002:00019850       ?_Get_data@?$_Tree_comp_alloc@V?$_Tmap_traits@IUItem_t@ItemDefinitions@@U?$less@I@std@@V?$allocator@U?$pair@$$CBIUItem_t@ItemDefinitions@@@std@@@4@$0A@@std@@@std@@QBEABV?$_Tree_val@U?$_Tree_simple_types@U?$pair@$$CBIUItem_t@ItemDefinitions@@@std@@@std@@@2@XZ 10068850 f i ItemDefinitions.obj
 0002:00019880       ?_Get_data@?$_Vector_alloc@U?$_Vec_base_types@UQualityName_t@ItemDefinitions@@V?$allocator@UQualityName_t@ItemDefinitions@@@std@@@std@@@std@@QAEAAV?$_Vector_val@U?$_Simple_types@UQualityName_t@ItemDefinitions@@@std@@@2@XZ 10068880 f i ItemDefinitions.obj
 0002:000198b0       ?_Get_data@?$_Vector_alloc@U?$_Vec_base_types@UQualityName_t@ItemDefinitions@@V?$allocator@UQualityName_t@ItemDefinitions@@@std@@@std@@@std@@QBEABV?$_Vector_val@U?$_Simple_types@UQualityName_t@ItemDefinitions@@@std@@@2@XZ 100688b0 f i ItemDefinitions.obj
 0002:000198e0       ?_Get_data@?$_Vector_alloc@U?$_Vec_base_types@UWeaponName_t@ItemDefinitions@@V?$allocator@UWeaponName_t@ItemDefinitions@@@std@@@std@@@std@@QAEAAV?$_Vector_val@U?$_Simple_types@UWeaponName_t@ItemDefinitions@@@std@@@2@XZ 100688e0 f i ItemDefinitions.obj
 0002:00019910       ?_Get_data@?$_Vector_alloc@U?$_Vec_base_types@UWeaponName_t@ItemDefinitions@@V?$allocator@UWeaponName_t@ItemDefinitions@@@std@@@std@@@std@@QBEABV?$_Vector_val@U?$_Simple_types@UWeaponName_t@ItemDefinitions@@@std@@@2@XZ 10068910 f i ItemDefinitions.obj
 0002:00019940       ?_Get_first@?$_Compressed_pair@U?$less@I@std@@V?$_Compressed_pair@V?$allocator@U?$_Tree_node@U?$pair@$$CBIUItem_t@ItemDefinitions@@@std@@PAX@std@@@std@@V?$_Tree_val@U?$_Tree_simple_types@U?$pair@$$CBIUItem_t@ItemDefinitions@@@std@@@std@@@2@$00@2@$00@std@@QAEAAU?$less@I@2@XZ 10068940 f i ItemDefinitions.obj
 0002:00019960       ?_Get_first@?$_Compressed_pair@V?$allocator@U?$_Tree_node@U?$pair@$$CBIUItem_t@ItemDefinitions@@@std@@PAX@std@@@std@@V?$_Tree_val@U?$_Tree_simple_types@U?$pair@$$CBIUItem_t@ItemDefinitions@@@std@@@std@@@2@$00@std@@QAEAAV?$allocator@U?$_Tree_node@U?$pair@$$CBIUItem_t@ItemDefinitions@@@std@@PAX@std@@@2@XZ 10068960 f i ItemDefinitions.obj
 0002:00019980       ?_Get_first@?$_Compressed_pair@V?$allocator@U?$_Tree_node@U?$pair@$$CBIUItem_t@ItemDefinitions@@@std@@PAX@std@@@std@@V?$_Tree_val@U?$_Tree_simple_types@U?$pair@$$CBIUItem_t@ItemDefinitions@@@std@@@std@@@2@$00@std@@QBEABV?$allocator@U?$_Tree_node@U?$pair@$$CBIUItem_t@ItemDefinitions@@@std@@PAX@std@@@2@XZ 10068980 f i ItemDefinitions.obj
 0002:000199a0       ?_Get_first@?$_Compressed_pair@V?$allocator@UQualityName_t@ItemDefinitions@@@std@@V?$_Vector_val@U?$_Simple_types@UQualityName_t@ItemDefinitions@@@std@@@2@$00@std@@QAEAAV?$allocator@UQualityName_t@ItemDefinitions@@@2@XZ 100689a0 f i ItemDefinitions.obj
 0002:000199c0       ?_Get_first@?$_Compressed_pair@V?$allocator@UQualityName_t@ItemDefinitions@@@std@@V?$_Vector_val@U?$_Simple_types@UQualityName_t@ItemDefinitions@@@std@@@2@$00@std@@QBEABV?$allocator@UQualityName_t@ItemDefinitions@@@2@XZ 100689c0 f i ItemDefinitions.obj
 0002:000199e0       ?_Get_first@?$_Compressed_pair@V?$allocator@UWeaponName_t@ItemDefinitions@@@std@@V?$_Vector_val@U?$_Simple_types@UWeaponName_t@ItemDefinitions@@@std@@@2@$00@std@@QAEAAV?$allocator@UWeaponName_t@ItemDefinitions@@@2@XZ 100689e0 f i ItemDefinitions.obj
 0002:00019a00       ?_Get_first@?$_Compressed_pair@V?$allocator@UWeaponName_t@ItemDefinitions@@@std@@V?$_Vector_val@U?$_Simple_types@UWeaponName_t@ItemDefinitions@@@std@@@2@$00@std@@QBEABV?$allocator@UWeaponName_t@ItemDefinitions@@@2@XZ 10068a00 f i ItemDefinitions.obj
 0002:00019a20       ?_Get_second@?$_Compressed_pair@U?$less@I@std@@V?$_Compressed_pair@V?$allocator@U?$_Tree_node@U?$pair@$$CBIUItem_t@ItemDefinitions@@@std@@PAX@std@@@std@@V?$_Tree_val@U?$_Tree_simple_types@U?$pair@$$CBIUItem_t@ItemDefinitions@@@std@@@std@@@2@$00@2@$00@std@@QAEAAV?$_Compressed_pair@V?$allocator@U?$_Tree_node@U?$pair@$$CBIUItem_t@ItemDefinitions@@@std@@PAX@std@@@std@@V?$_Tree_val@U?$_Tree_simple_types@U?$pair@$$CBIUItem_t@ItemDefinitions@@@std@@@std@@@2@$00@2@XZ 10068a20 f i ItemDefinitions.obj
 0002:00019a40       ?_Get_second@?$_Compressed_pair@U?$less@I@std@@V?$_Compressed_pair@V?$allocator@U?$_Tree_node@U?$pair@$$CBIUItem_t@ItemDefinitions@@@std@@PAX@std@@@std@@V?$_Tree_val@U?$_Tree_simple_types@U?$pair@$$CBIUItem_t@ItemDefinitions@@@std@@@std@@@2@$00@2@$00@std@@QBEABV?$_Compressed_pair@V?$allocator@U?$_Tree_node@U?$pair@$$CBIUItem_t@ItemDefinitions@@@std@@PAX@std@@@std@@V?$_Tree_val@U?$_Tree_simple_types@U?$pair@$$CBIUItem_t@ItemDefinitions@@@std@@@std@@@2@$00@2@XZ 10068a40 f i ItemDefinitions.obj
 0002:00019a60       ?_Get_second@?$_Compressed_pair@V?$allocator@U?$_Tree_node@U?$pair@$$CBIUItem_t@ItemDefinitions@@@std@@PAX@std@@@std@@V?$_Tree_val@U?$_Tree_simple_types@U?$pair@$$CBIUItem_t@ItemDefinitions@@@std@@@std@@@2@$00@std@@QAEAAV?$_Tree_val@U?$_Tree_simple_types@U?$pair@$$CBIUItem_t@ItemDefinitions@@@std@@@std@@@2@XZ 10068a60 f i ItemDefinitions.obj
 0002:00019a80       ?_Get_second@?$_Compressed_pair@V?$allocator@U?$_Tree_node@U?$pair@$$CBIUItem_t@ItemDefinitions@@@std@@PAX@std@@@std@@V?$_Tree_val@U?$_Tree_simple_types@U?$pair@$$CBIUItem_t@ItemDefinitions@@@std@@@std@@@2@$00@std@@QBEABV?$_Tree_val@U?$_Tree_simple_types@U?$pair@$$CBIUItem_t@ItemDefinitions@@@std@@@std@@@2@XZ 10068a80 f i ItemDefinitions.obj
 0002:00019aa0       ?_Get_second@?$_Compressed_pair@V?$allocator@UQualityName_t@ItemDefinitions@@@std@@V?$_Vector_val@U?$_Simple_types@UQualityName_t@ItemDefinitions@@@std@@@2@$00@std@@QAEAAV?$_Vector_val@U?$_Simple_types@UQualityName_t@ItemDefinitions@@@std@@@2@XZ 10068aa0 f i ItemDefinitions.obj
 0002:00019ac0       ?_Get_second@?$_Compressed_pair@V?$allocator@UQualityName_t@ItemDefinitions@@@std@@V?$_Vector_val@U?$_Simple_types@UQualityName_t@ItemDefinitions@@@std@@@2@$00@std@@QBEABV?$_Vector_val@U?$_Simple_types@UQualityName_t@ItemDefinitions@@@std@@@2@XZ 10068ac0 f i ItemDefinitions.obj
 0002:00019ae0       ?_Get_second@?$_Compressed_pair@V?$allocator@UWeaponName_t@ItemDefinitions@@@std@@V?$_Vector_val@U?$_Simple_types@UWeaponName_t@ItemDefinitions@@@std@@@2@$00@std@@QAEAAV?$_Vector_val@U?$_Simple_types@UWeaponName_t@ItemDefinitions@@@std@@@2@XZ 10068ae0 f i ItemDefinitions.obj
 0002:00019b00       ?_Get_second@?$_Compressed_pair@V?$allocator@UWeaponName_t@ItemDefinitions@@@std@@V?$_Vector_val@U?$_Simple_types@UWeaponName_t@ItemDefinitions@@@std@@@2@$00@std@@QBEABV?$_Vector_val@U?$_Simple_types@UWeaponName_t@ItemDefinitions@@@std@@@2@XZ 10068b00 f i ItemDefinitions.obj
 0002:00019b20       ?_Getal@?$_Tree_comp_alloc@V?$_Tmap_traits@IUItem_t@ItemDefinitions@@U?$less@I@std@@V?$allocator@U?$pair@$$CBIUItem_t@ItemDefinitions@@@std@@@4@$0A@@std@@@std@@QAEAAV?$allocator@U?$_Tree_node@U?$pair@$$CBIUItem_t@ItemDefinitions@@@std@@PAX@std@@@2@XZ 10068b20 f i ItemDefinitions.obj
 0002:00019b50       ?_Getal@?$_Tree_comp_alloc@V?$_Tmap_traits@IUItem_t@ItemDefinitions@@U?$less@I@std@@V?$allocator@U?$pair@$$CBIUItem_t@ItemDefinitions@@@std@@@4@$0A@@std@@@std@@QBEABV?$allocator@U?$_Tree_node@U?$pair@$$CBIUItem_t@ItemDefinitions@@@std@@PAX@std@@@2@XZ 10068b50 f i ItemDefinitions.obj
 0002:00019b80       ?_Getal@?$_Vector_alloc@U?$_Vec_base_types@UQualityName_t@ItemDefinitions@@V?$allocator@UQualityName_t@ItemDefinitions@@@std@@@std@@@std@@QAEAAV?$allocator@UQualityName_t@ItemDefinitions@@@2@XZ 10068b80 f i ItemDefinitions.obj
 0002:00019bb0       ?_Getal@?$_Vector_alloc@U?$_Vec_base_types@UQualityName_t@ItemDefinitions@@V?$allocator@UQualityName_t@ItemDefinitions@@@std@@@std@@@std@@QBEABV?$allocator@UQualityName_t@ItemDefinitions@@@2@XZ 10068bb0 f i ItemDefinitions.obj
 0002:00019be0       ?_Getal@?$_Vector_alloc@U?$_Vec_base_types@UWeaponName_t@ItemDefinitions@@V?$allocator@UWeaponName_t@ItemDefinitions@@@std@@@std@@@std@@QAEAAV?$allocator@UWeaponName_t@ItemDefinitions@@@2@XZ 10068be0 f i ItemDefinitions.obj
 0002:00019c10       ?_Getal@?$_Vector_alloc@U?$_Vec_base_types@UWeaponName_t@ItemDefinitions@@V?$allocator@UWeaponName_t@ItemDefinitions@@@std@@@std@@@std@@QBEABV?$allocator@UWeaponName_t@ItemDefinitions@@@2@XZ 10068c10 f i ItemDefinitions.obj
 0002:00019c40       ?_Getcomp@?$_Tree_comp_alloc@V?$_Tmap_traits@IUItem_t@ItemDefinitions@@U?$less@I@std@@V?$allocator@U?$pair@$$CBIUItem_t@ItemDefinitions@@@std@@@4@$0A@@std@@@std@@QAEAAU?$less@I@2@XZ 10068c40 f i ItemDefinitions.obj
 0002:00019c70       ?_Key@?$_Tree@V?$_Tmap_traits@IUItem_t@ItemDefinitions@@U?$less@I@std@@V?$allocator@U?$pair@$$CBIUItem_t@ItemDefinitions@@@std@@@4@$0A@@std@@@std@@IBEABIPAU?$_Tree_node@U?$pair@$$CBIUItem_t@ItemDefinitions@@@std@@PAX@2@@Z 10068c70 f i ItemDefinitions.obj
 0002:00019ca0       ?_Kfn@?$_Tree@V?$_Tmap_traits@IUItem_t@ItemDefinitions@@U?$less@I@std@@V?$allocator@U?$pair@$$CBIUItem_t@ItemDefinitions@@@std@@@4@$0A@@std@@@std@@IBEABIABU?$pair@$$CBIUItem_t@ItemDefinitions@@@2@@Z 10068ca0 f i ItemDefinitions.obj
 0002:00019cd0       ?_Lmost@?$_Tree@V?$_Tmap_traits@IUItem_t@ItemDefinitions@@U?$less@I@std@@V?$allocator@U?$pair@$$CBIUItem_t@ItemDefinitions@@@std@@@4@$0A@@std@@@std@@IBEAAPAU?$_Tree_node@U?$pair@$$CBIUItem_t@ItemDefinitions@@@std@@PAX@2@XZ 10068cd0 f i ItemDefinitions.obj
 0002:00019d00       ?_Lrotate@?$_Tree@V?$_Tmap_traits@IUItem_t@ItemDefinitions@@U?$less@I@std@@V?$allocator@U?$pair@$$CBIUItem_t@ItemDefinitions@@@std@@@4@$0A@@std@@@std@@IAEXPAU?$_Tree_node@U?$pair@$$CBIUItem_t@ItemDefinitions@@@std@@PAX@2@@Z 10068d00 f i ItemDefinitions.obj
 0002:00019dd0       ?_Max@?$_Tree_comp_alloc@V?$_Tmap_traits@IUItem_t@ItemDefinitions@@U?$less@I@std@@V?$allocator@U?$pair@$$CBIUItem_t@ItemDefinitions@@@std@@@4@$0A@@std@@@std@@SAPAU?$_Tree_node@U?$pair@$$CBIUItem_t@ItemDefinitions@@@std@@PAX@2@PAU32@@Z 10068dd0 f i ItemDefinitions.obj
 0002:00019e00       ?_Max@?$_Tree_val@U?$_Tree_simple_types@U?$pair@$$CBIUItem_t@ItemDefinitions@@@std@@@std@@@std@@SAPAU?$_Tree_node@U?$pair@$$CBIUItem_t@ItemDefinitions@@@std@@PAX@2@PAU32@@Z 10068e00 f i ItemDefinitions.obj
 0002:00019e40       ?_Min@?$_Tree_comp_alloc@V?$_Tmap_traits@IUItem_t@ItemDefinitions@@U?$less@I@std@@V?$allocator@U?$pair@$$CBIUItem_t@ItemDefinitions@@@std@@@4@$0A@@std@@@std@@SAPAU?$_Tree_node@U?$pair@$$CBIUItem_t@ItemDefinitions@@@std@@PAX@2@PAU32@@Z 10068e40 f i ItemDefinitions.obj
 0002:00019e70       ?_Min@?$_Tree_val@U?$_Tree_simple_types@U?$pair@$$CBIUItem_t@ItemDefinitions@@@std@@@std@@@std@@SAPAU?$_Tree_node@U?$pair@$$CBIUItem_t@ItemDefinitions@@@std@@PAX@2@PAU32@@Z 10068e70 f i ItemDefinitions.obj
 0002:00019eb0       ?_Myend@?$_Vector_alloc@U?$_Vec_base_types@UQualityName_t@ItemDefinitions@@V?$allocator@UQualityName_t@ItemDefinitions@@@std@@@std@@@std@@QAEAAPAUQualityName_t@ItemDefinitions@@XZ 10068eb0 f i ItemDefinitions.obj
 0002:00019ee0       ?_Myend@?$_Vector_alloc@U?$_Vec_base_types@UQualityName_t@ItemDefinitions@@V?$allocator@UQualityName_t@ItemDefinitions@@@std@@@std@@@std@@QBEABQAUQualityName_t@ItemDefinitions@@XZ 10068ee0 f i ItemDefinitions.obj
 0002:00019f10       ?_Myend@?$_Vector_alloc@U?$_Vec_base_types@UWeaponName_t@ItemDefinitions@@V?$allocator@UWeaponName_t@ItemDefinitions@@@std@@@std@@@std@@QAEAAPAUWeaponName_t@ItemDefinitions@@XZ 10068f10 f i ItemDefinitions.obj
 0002:00019f40       ?_Myend@?$_Vector_alloc@U?$_Vec_base_types@UWeaponName_t@ItemDefinitions@@V?$allocator@UWeaponName_t@ItemDefinitions@@@std@@@std@@@std@@QBEABQAUWeaponName_t@ItemDefinitions@@XZ 10068f40 f i ItemDefinitions.obj
 0002:00019f70       ?_Myfirst@?$_Vector_alloc@U?$_Vec_base_types@UQualityName_t@ItemDefinitions@@V?$allocator@UQualityName_t@ItemDefinitions@@@std@@@std@@@std@@QAEAAPAUQualityName_t@ItemDefinitions@@XZ 10068f70 f i ItemDefinitions.obj
 0002:00019fa0       ?_Myfirst@?$_Vector_alloc@U?$_Vec_base_types@UQualityName_t@ItemDefinitions@@V?$allocator@UQualityName_t@ItemDefinitions@@@std@@@std@@@std@@QBEABQAUQualityName_t@ItemDefinitions@@XZ 10068fa0 f i ItemDefinitions.obj
 0002:00019fd0       ?_Myfirst@?$_Vector_alloc@U?$_Vec_base_types@UWeaponName_t@ItemDefinitions@@V?$allocator@UWeaponName_t@ItemDefinitions@@@std@@@std@@@std@@QAEAAPAUWeaponName_t@ItemDefinitions@@XZ 10068fd0 f i ItemDefinitions.obj
 0002:0001a000       ?_Myfirst@?$_Vector_alloc@U?$_Vec_base_types@UWeaponName_t@ItemDefinitions@@V?$allocator@UWeaponName_t@ItemDefinitions@@@std@@@std@@@std@@QBEABQAUWeaponName_t@ItemDefinitions@@XZ 10069000 f i ItemDefinitions.obj
 0002:0001a030       ?_Myhead@?$_Tree_comp_alloc@V?$_Tmap_traits@IUItem_t@ItemDefinitions@@U?$less@I@std@@V?$allocator@U?$pair@$$CBIUItem_t@ItemDefinitions@@@std@@@4@$0A@@std@@@std@@QAEAAPAU?$_Tree_node@U?$pair@$$CBIUItem_t@ItemDefinitions@@@std@@PAX@2@XZ 10069030 f i ItemDefinitions.obj
 0002:0001a060       ?_Myhead@?$_Tree_comp_alloc@V?$_Tmap_traits@IUItem_t@ItemDefinitions@@U?$less@I@std@@V?$allocator@U?$pair@$$CBIUItem_t@ItemDefinitions@@@std@@@4@$0A@@std@@@std@@QBEABQAU?$_Tree_node@U?$pair@$$CBIUItem_t@ItemDefinitions@@@std@@PAX@2@XZ 10069060 f i ItemDefinitions.obj
 0002:0001a090       ?_Mylast@?$_Vector_alloc@U?$_Vec_base_types@UQualityName_t@ItemDefinitions@@V?$allocator@UQualityName_t@ItemDefinitions@@@std@@@std@@@std@@QAEAAPAUQualityName_t@ItemDefinitions@@XZ 10069090 f i ItemDefinitions.obj
 0002:0001a0c0       ?_Mylast@?$_Vector_alloc@U?$_Vec_base_types@UWeaponName_t@ItemDefinitions@@V?$allocator@UWeaponName_t@ItemDefinitions@@@std@@@std@@@std@@QAEAAPAUWeaponName_t@ItemDefinitions@@XZ 100690c0 f i ItemDefinitions.obj
 0002:0001a0f0       ?_Mysize@?$_Tree_comp_alloc@V?$_Tmap_traits@IUItem_t@ItemDefinitions@@U?$less@I@std@@V?$allocator@U?$pair@$$CBIUItem_t@ItemDefinitions@@@std@@@4@$0A@@std@@@std@@QAEAAIXZ 100690f0 f i ItemDefinitions.obj
 0002:0001a120       ?_Mysize@?$_Tree_comp_alloc@V?$_Tmap_traits@IUItem_t@ItemDefinitions@@U?$less@I@std@@V?$allocator@U?$pair@$$CBIUItem_t@ItemDefinitions@@@std@@@4@$0A@@std@@@std@@QBEABIXZ 10069120 f i ItemDefinitions.obj
 0002:0001a150       ?_Orphan_all@?$_Vector_alloc@U?$_Vec_base_types@UQualityName_t@ItemDefinitions@@V?$allocator@UQualityName_t@ItemDefinitions@@@std@@@std@@@std@@QAEXXZ 10069150 f i ItemDefinitions.obj
 0002:0001a180       ?_Orphan_all@?$_Vector_alloc@U?$_Vec_base_types@UWeaponName_t@ItemDefinitions@@V?$allocator@UWeaponName_t@ItemDefinitions@@@std@@@std@@@std@@QAEXXZ 10069180 f i ItemDefinitions.obj
 0002:0001a1b0       ?_Rmost@?$_Tree@V?$_Tmap_traits@IUItem_t@ItemDefinitions@@U?$less@I@std@@V?$allocator@U?$pair@$$CBIUItem_t@ItemDefinitions@@@std@@@4@$0A@@std@@@std@@IBEAAPAU?$_Tree_node@U?$pair@$$CBIUItem_t@ItemDefinitions@@@std@@PAX@2@XZ 100691b0 f i ItemDefinitions.obj
 0002:0001a1e0       ?_Root@?$_Tree@V?$_Tmap_traits@IUItem_t@ItemDefinitions@@U?$less@I@std@@V?$allocator@U?$pair@$$CBIUItem_t@ItemDefinitions@@@std@@@4@$0A@@std@@@std@@IBEAAPAU?$_Tree_node@U?$pair@$$CBIUItem_t@ItemDefinitions@@@std@@PAX@2@XZ 100691e0 f i ItemDefinitions.obj
 0002:0001a210       ?_Rrotate@?$_Tree@V?$_Tmap_traits@IUItem_t@ItemDefinitions@@U?$less@I@std@@V?$allocator@U?$pair@$$CBIUItem_t@ItemDefinitions@@@std@@@4@$0A@@std@@@std@@IAEXPAU?$_Tree_node@U?$pair@$$CBIUItem_t@ItemDefinitions@@@std@@PAX@2@@Z 10069210 f i ItemDefinitions.obj
 0002:0001a2e0       ?_Tidy@?$_Tree@V?$_Tmap_traits@IUItem_t@ItemDefinitions@@U?$less@I@std@@V?$allocator@U?$pair@$$CBIUItem_t@ItemDefinitions@@@std@@@4@$0A@@std@@@std@@IAEXXZ 100692e0 f i ItemDefinitions.obj
 0002:0001a340       ?_Tidy@?$vector@UQualityName_t@ItemDefinitions@@V?$allocator@UQualityName_t@ItemDefinitions@@@std@@@std@@AAEXXZ 10069340 f i ItemDefinitions.obj
 0002:0001a400       ?_Tidy@?$vector@UWeaponName_t@ItemDefinitions@@V?$allocator@UWeaponName_t@ItemDefinitions@@@std@@@std@@AAEXXZ 10069400 f i ItemDefinitions.obj
 0002:0001a4c0       ?_Xlength@?$vector@UQualityName_t@ItemDefinitions@@V?$allocator@UQualityName_t@ItemDefinitions@@@std@@@std@@CAXXZ 100694c0 f i ItemDefinitions.obj
 0002:0001a4e0       ?_Xlength@?$vector@UWeaponName_t@ItemDefinitions@@V?$allocator@UWeaponName_t@ItemDefinitions@@@std@@@std@@CAXXZ 100694e0 f i ItemDefinitions.obj
 0002:0001a500       ?__autoclassinit2@?$_Tree_const_iterator@V?$_Tree_val@U?$_Tree_simple_types@U?$pair@$$CBIUItem_t@ItemDefinitions@@@std@@@std@@@std@@@std@@QAEXI@Z 10069500 f i ItemDefinitions.obj
 0002:0001a530       ?__autoclassinit2@?$_Tree_iterator@V?$_Tree_val@U?$_Tree_simple_types@U?$pair@$$CBIUItem_t@ItemDefinitions@@@std@@@std@@@std@@@std@@QAEXI@Z 10069530 f i ItemDefinitions.obj
 0002:0001a560       ?__autoclassinit2@?$map@IUItem_t@ItemDefinitions@@U?$less@I@std@@V?$allocator@U?$pair@$$CBIUItem_t@ItemDefinitions@@@std@@@4@@std@@QAEXI@Z 10069560 f i ItemDefinitions.obj
 0002:0001a590       ?__autoclassinit2@?$vector@UQualityName_t@ItemDefinitions@@V?$allocator@UQualityName_t@ItemDefinitions@@@std@@@std@@QAEXI@Z 10069590 f i ItemDefinitions.obj
 0002:0001a5c0       ?__autoclassinit2@?$vector@UWeaponName_t@ItemDefinitions@@V?$allocator@UWeaponName_t@ItemDefinitions@@@std@@@std@@QAEXI@Z 100695c0 f i ItemDefinitions.obj
 0002:0001a5f0       ?allocate@?$allocator@U?$_Tree_node@U?$pair@$$CBIUItem_t@ItemDefinitions@@@std@@PAX@std@@@std@@QAEPAU?$_Tree_node@U?$pair@$$CBIUItem_t@ItemDefinitions@@@std@@PAX@2@I@Z 100695f0 f i ItemDefinitions.obj
 0002:0001a630       ?allocate@?$allocator@UQualityName_t@ItemDefinitions@@@std@@QAEPAUQualityName_t@ItemDefinitions@@I@Z 10069630 f i ItemDefinitions.obj
 0002:0001a670       ?allocate@?$allocator@UWeaponName_t@ItemDefinitions@@@std@@QAEPAUWeaponName_t@ItemDefinitions@@I@Z 10069670 f i ItemDefinitions.obj
 0002:0001a6b0       ?begin@?$_Tree@V?$_Tmap_traits@IUItem_t@ItemDefinitions@@U?$less@I@std@@V?$allocator@U?$pair@$$CBIUItem_t@ItemDefinitions@@@std@@@4@$0A@@std@@@std@@QAE?AV?$_Tree_iterator@V?$_Tree_val@U?$_Tree_simple_types@U?$pair@$$CBIUItem_t@ItemDefinitions@@@std@@@std@@@std@@@2@XZ 100696b0 f i ItemDefinitions.obj
 0002:0001a730       ?begin@?$initializer_list@U?$pair@$$CBIUItem_t@ItemDefinitions@@@std@@@std@@QBEPBU?$pair@$$CBIUItem_t@ItemDefinitions@@@2@XZ 10069730 f i ItemDefinitions.obj
 0002:0001a750       ?begin@?$initializer_list@UQualityName_t@ItemDefinitions@@@std@@QBEPBUQualityName_t@ItemDefinitions@@XZ 10069750 f i ItemDefinitions.obj
 0002:0001a770       ?begin@?$initializer_list@UWeaponName_t@ItemDefinitions@@@std@@QBEPBUWeaponName_t@ItemDefinitions@@XZ 10069770 f i ItemDefinitions.obj
 0002:0001a790       ?capacity@?$vector@UQualityName_t@ItemDefinitions@@V?$allocator@UQualityName_t@ItemDefinitions@@@std@@@std@@QBEIXZ 10069790 f i ItemDefinitions.obj
 0002:0001a7d0       ?capacity@?$vector@UWeaponName_t@ItemDefinitions@@V?$allocator@UWeaponName_t@ItemDefinitions@@@std@@@std@@QBEIXZ 100697d0 f i ItemDefinitions.obj
 0002:0001a810       ?clear@?$_Tree@V?$_Tmap_traits@IUItem_t@ItemDefinitions@@U?$less@I@std@@V?$allocator@U?$pair@$$CBIUItem_t@ItemDefinitions@@@std@@@4@$0A@@std@@@std@@QAEXXZ 10069810 f i ItemDefinitions.obj
 0002:0001a8e0       ?deallocate@?$_Default_allocator_traits@V?$allocator@U?$_Tree_node@U?$pair@$$CBIUItem_t@ItemDefinitions@@@std@@PAX@std@@@std@@@std@@SAXAAV?$allocator@U?$_Tree_node@U?$pair@$$CBIUItem_t@ItemDefinitions@@@std@@PAX@std@@@2@QAU?$_Tree_node@U?$pair@$$CBIUItem_t@ItemDefinitions@@@std@@PAX@2@I@Z 100698e0 f i ItemDefinitions.obj
 0002:0001a910       ?deallocate@?$allocator@U?$_Tree_node@U?$pair@$$CBIUItem_t@ItemDefinitions@@@std@@PAX@std@@@std@@QAEXQAU?$_Tree_node@U?$pair@$$CBIUItem_t@ItemDefinitions@@@std@@PAX@2@I@Z 10069910 f i ItemDefinitions.obj
 0002:0001a940       ?deallocate@?$allocator@UQualityName_t@ItemDefinitions@@@std@@QAEXQAUQualityName_t@ItemDefinitions@@I@Z 10069940 f i ItemDefinitions.obj
 0002:0001a980       ?deallocate@?$allocator@UWeaponName_t@ItemDefinitions@@@std@@QAEXQAUWeaponName_t@ItemDefinitions@@I@Z 10069980 f i ItemDefinitions.obj
 0002:0001a9c0       ?end@?$_Tree@V?$_Tmap_traits@IUItem_t@ItemDefinitions@@U?$less@I@std@@V?$allocator@U?$pair@$$CBIUItem_t@ItemDefinitions@@@std@@@4@$0A@@std@@@std@@QAE?AV?$_Tree_iterator@V?$_Tree_val@U?$_Tree_simple_types@U?$pair@$$CBIUItem_t@ItemDefinitions@@@std@@@std@@@std@@@2@XZ 100699c0 f i ItemDefinitions.obj
 0002:0001aa40       ?end@?$initializer_list@U?$pair@$$CBIUItem_t@ItemDefinitions@@@std@@@std@@QBEPBU?$pair@$$CBIUItem_t@ItemDefinitions@@@2@XZ 10069a40 f i ItemDefinitions.obj
 0002:0001aa60       ?end@?$initializer_list@UQualityName_t@ItemDefinitions@@@std@@QBEPBUQualityName_t@ItemDefinitions@@XZ 10069a60 f i ItemDefinitions.obj
 0002:0001aa80       ?end@?$initializer_list@UWeaponName_t@ItemDefinitions@@@std@@QBEPBUWeaponName_t@ItemDefinitions@@XZ 10069a80 f i ItemDefinitions.obj
 0002:0001aaa0       ?erase@?$_Tree@V?$_Tmap_traits@IUItem_t@ItemDefinitions@@U?$less@I@std@@V?$allocator@U?$pair@$$CBIUItem_t@ItemDefinitions@@@std@@@4@$0A@@std@@@std@@QAE?AV?$_Tree_iterator@V?$_Tree_val@U?$_Tree_simple_types@U?$pair@$$CBIUItem_t@ItemDefinitions@@@std@@@std@@@std@@@2@V?$_Tree_const_iterator@V?$_Tree_val@U?$_Tree_simple_types@U?$pair@$$CBIUItem_t@ItemDefinitions@@@std@@@std@@@std@@@2@0@Z 10069aa0 f i ItemDefinitions.obj
 0002:0001ab90       ?erase@?$_Tree@V?$_Tmap_traits@IUItem_t@ItemDefinitions@@U?$less@I@std@@V?$allocator@U?$pair@$$CBIUItem_t@ItemDefinitions@@@std@@@4@$0A@@std@@@std@@QAE?AV?$_Tree_iterator@V?$_Tree_val@U?$_Tree_simple_types@U?$pair@$$CBIUItem_t@ItemDefinitions@@@std@@@std@@@std@@@2@V?$_Tree_const_iterator@V?$_Tree_val@U?$_Tree_simple_types@U?$pair@$$CBIUItem_t@ItemDefinitions@@@std@@@std@@@std@@@2@@Z 10069b90 f i ItemDefinitions.obj
 0002:0001ac70       ?insert@?$_Tree@V?$_Tmap_traits@IUItem_t@ItemDefinitions@@U?$less@I@std@@V?$allocator@U?$pair@$$CBIUItem_t@ItemDefinitions@@@std@@@4@$0A@@std@@@std@@QAEXV?$initializer_list@U?$pair@$$CBIUItem_t@ItemDefinitions@@@std@@@2@@Z 10069c70 f i ItemDefinitions.obj
 0002:0001acb0       ?max_size@?$_Default_allocator_traits@V?$allocator@U?$_Tree_node@U?$pair@$$CBIUItem_t@ItemDefinitions@@@std@@PAX@std@@@std@@@std@@SAIABV?$allocator@U?$_Tree_node@U?$pair@$$CBIUItem_t@ItemDefinitions@@@std@@PAX@std@@@2@@Z 10069cb0 f i ItemDefinitions.obj
 0002:0001acd0       ?max_size@?$_Default_allocator_traits@V?$allocator@UQualityName_t@ItemDefinitions@@@std@@@std@@SAIABV?$allocator@UQualityName_t@ItemDefinitions@@@2@@Z 10069cd0 f i ItemDefinitions.obj
 0002:0001acf0       ?max_size@?$_Default_allocator_traits@V?$allocator@UWeaponName_t@ItemDefinitions@@@std@@@std@@SAIABV?$allocator@UWeaponName_t@ItemDefinitions@@@2@@Z 10069cf0 f i ItemDefinitions.obj
 0002:0001ad10       ?max_size@?$_Tree@V?$_Tmap_traits@IUItem_t@ItemDefinitions@@U?$less@I@std@@V?$allocator@U?$pair@$$CBIUItem_t@ItemDefinitions@@@std@@@4@$0A@@std@@@std@@QBEIXZ 10069d10 f i ItemDefinitions.obj
 0002:0001ad40       ?max_size@?$vector@UQualityName_t@ItemDefinitions@@V?$allocator@UQualityName_t@ItemDefinitions@@@std@@@std@@QBEIXZ 10069d40 f i ItemDefinitions.obj
 0002:0001ada0       ?max_size@?$vector@UWeaponName_t@ItemDefinitions@@V?$allocator@UWeaponName_t@ItemDefinitions@@@std@@@std@@QBEIXZ 10069da0 f i ItemDefinitions.obj
 0002:0001ae00       ?size@?$_Tree@V?$_Tmap_traits@IUItem_t@ItemDefinitions@@U?$less@I@std@@V?$allocator@U?$pair@$$CBIUItem_t@ItemDefinitions@@@std@@@4@$0A@@std@@@std@@QBEIXZ 10069e00 f i ItemDefinitions.obj
 0002:0001ae30       ??$?0$$CBV?$basic_string@DU?$char_traits@D@std@@V?$allocator@D@2@@std@@V01@$0A@@?$pair@$$CBV?$basic_string@DU?$char_traits@D@std@@V?$allocator@D@2@@std@@V?$basic_json@Vmap@std@@Vvector@2@V?$basic_string@DU?$char_traits@D@std@@V?$allocator@D@2@@2@_N_J_KNVallocator@2@Uadl_serializer@nlohmann@@@nlohmann@@@std@@QAE@ABU?$pair@$$CBV?$basic_string@DU?$char_traits@D@std@@V?$allocator@D@2@@std@@V12@@1@@Z 10069e30 f i KitParser.obj
 0002:0001aec0       ??$?0$$QAV?$basic_string@DU?$char_traits@D@std@@V?$allocator@D@2@@std@@$$Z$$V@?$pair@$$CBV?$basic_string@DU?$char_traits@D@std@@V?$allocator@D@2@@std@@V12@@std@@QAE@Upiecewise_construct_t@1@V?$tuple@$$QAV?$basic_string@DU?$char_traits@D@std@@V?$allocator@D@2@@std@@@1@V?$tuple@$$V@1@@Z 10069ec0 f i KitParser.obj
 0002:0001af00       ??$?0$$V@?$_Compressed_pair@V?$allocator@U?$_Tree_node@U?$pair@$$CBV?$basic_string@DU?$char_traits@D@std@@V?$allocator@D@2@@std@@V?$basic_json@Vmap@std@@Vvector@2@V?$basic_string@DU?$char_traits@D@std@@V?$allocator@D@2@@2@_N_J_KNVallocator@2@Uadl_serializer@nlohmann@@@nlohmann@@@std@@PAX@std@@@std@@V?$_Tree_val@U?$_Tree_simple_types@U?$pair@$$CBV?$basic_string@DU?$char_traits@D@std@@V?$allocator@D@2@@std@@V?$basic_json@Vmap@std@@Vvector@2@V?$basic_string@DU?$char_traits@D@std@@V?$allocator@D@2@@2@_N_J_KNVallocator@2@Uadl_serializer@nlohmann@@@nlohmann@@@std@@@std@@@2@$00@std@@QAE@U_Zero_then_variadic_args_t@1@@Z 10069f00 f i KitParser.obj
 0002:0001af40       ??$?0$$V@?$_Compressed_pair@V?$allocator@_W@std@@V?$_String_val@U?$_Simple_types@_W@std@@@2@$00@std@@QAE@U_Zero_then_variadic_args_t@1@@Z 10069f40 f i KitParser.obj
 0002:0001af80       ??$?0AAV?$_Tree_iterator@V?$_Tree_val@U?$_Tree_simple_types@U?$pair@$$CBV?$basic_string@DU?$char_traits@D@std@@V?$allocator@D@2@@std@@V12@@std@@@std@@@std@@@std@@_N$0A@@?$pair@V?$_Tree_iterator@V?$_Tree_val@U?$_Tree_simple_types@U?$pair@$$CBV?$basic_string@DU?$char_traits@D@std@@V?$allocator@D@2@@std@@V12@@std@@@std@@@std@@@std@@_N@std@@QAE@AAV?$_Tree_iterator@V?$_Tree_val@U?$_Tree_simple_types@U?$pair@$$CBV?$basic_string@DU?$char_traits@D@std@@V?$allocator@D@2@@std@@V12@@std@@@std@@@std@@@1@$$QA_N@Z 10069f80 f i KitParser.obj
 0002:0001afd0       ??$?0AAV?$_Tree_iterator@V?$_Tree_val@U?$_Tree_simple_types@U?$pair@$$CBV?$basic_string@DU?$char_traits@D@std@@V?$allocator@D@2@@std@@V?$basic_json@Vmap@std@@Vvector@2@V?$basic_string@DU?$char_traits@D@std@@V?$allocator@D@2@@2@_N_J_KNVallocator@2@Uadl_serializer@nlohmann@@@nlohmann@@@std@@@std@@@std@@@std@@_N$0A@@?$pair@V?$_Tree_iterator@V?$_Tree_val@U?$_Tree_simple_types@U?$pair@$$CBV?$basic_string@DU?$char_traits@D@std@@V?$allocator@D@2@@std@@V?$basic_json@Vmap@std@@Vvector@2@V?$basic_string@DU?$char_traits@D@std@@V?$allocator@D@2@@2@_N_J_KNVallocator@2@Uadl_serializer@nlohmann@@@nlohmann@@@std@@@std@@@std@@@std@@_N@std@@QAE@AAV?$_Tree_iterator@V?$_Tree_val@U?$_Tree_simple_types@U?$pair@$$CBV?$basic_string@DU?$char_traits@D@std@@V?$allocator@D@2@@std@@V?$basic_json@Vmap@std@@Vvector@2@V?$basic_string@DU?$char_traits@D@std@@V?$allocator@D@2@@2@_N_J_KNVallocator@2@Uadl_serializer@nlohmann@@@nlohmann@@@std@@@std@@@std@@@1@$$QA_N@Z 10069fd0 f i KitParser.obj
 0002:0001b020       ??$?0AAV?$basic_ostream@DU?$char_traits@D@std@@@std@@@?$_Ref_count_obj@V?$output_stream_adapter@D@detail@nlohmann@@@std@@QAE@AAV?$basic_ostream@DU?$char_traits@D@std@@@1@@Z 1006a020 f i KitParser.obj
 0002:0001b0e0       ??$?0AAV?$map@V?$basic_string@DU?$char_traits@D@std@@V?$allocator@D@2@@std@@V12@U?$less@V?$basic_string@DU?$char_traits@D@std@@V?$allocator@D@2@@std@@@2@V?$allocator@U?$pair@$$CBV?$basic_string@DU?$char_traits@D@std@@V?$allocator@D@2@@std@@V12@@std@@@2@@std@@V01@$0A@@?$basic_json@Vmap@std@@Vvector@2@V?$basic_string@DU?$char_traits@D@std@@V?$allocator@D@2@@2@_N_J_KNVallocator@2@Uadl_serializer@nlohmann@@@nlohmann@@QAE@AAV?$map@V?$basic_string@DU?$char_traits@D@std@@V?$allocator@D@2@@std@@V12@U?$less@V?$basic_string@DU?$char_traits@D@std@@V?$allocator@D@2@@std@@@2@V?$allocator@U?$pair@$$CBV?$basic_string@DU?$char_traits@D@std@@V?$allocator@D@2@@std@@V12@@std@@@2@@std@@@Z 1006a0e0 f i KitParser.obj
 0002:0001b140       ??$?0ABU?$less@V?$basic_string@DU?$char_traits@D@std@@V?$allocator@D@2@@std@@@std@@U_Zero_then_variadic_args_t@1@@?$_Compressed_pair@U?$less@V?$basic_string@DU?$char_traits@D@std@@V?$allocator@D@2@@std@@@std@@V?$_Compressed_pair@V?$allocator@U?$_Tree_node@U?$pair@$$CBV?$basic_string@DU?$char_traits@D@std@@V?$allocator@D@2@@std@@V?$basic_json@Vmap@std@@Vvector@2@V?$basic_string@DU?$char_traits@D@std@@V?$allocator@D@2@@2@_N_J_KNVallocator@2@Uadl_serializer@nlohmann@@@nlohmann@@@std@@PAX@std@@@std@@V?$_Tree_val@U?$_Tree_simple_types@U?$pair@$$CBV?$basic_string@DU?$char_traits@D@std@@V?$allocator@D@2@@std@@V?$basic_json@Vmap@std@@Vvector@2@V?$basic_string@DU?$char_traits@D@std@@V?$allocator@D@2@@2@_N_J_KNVallocator@2@Uadl_serializer@nlohmann@@@nlohmann@@@std@@@std@@@2@$00@2@$00@std@@QAE@U_One_then_variadic_args_t@1@ABU?$less@V?$basic_string@DU?$char_traits@D@std@@V?$allocator@D@2@@std@@@1@$$QAU_Zero_then_variadic_args_t@1@@Z 1006a140 f i KitParser.obj
 0002:0001b230       ??$?0ABV?$allocator@D@std@@$$V@?$_Compressed_pair@V?$allocator@D@std@@V?$_String_val@U?$_Simple_types@D@std@@@2@$00@std@@QAE@U_One_then_variadic_args_t@1@ABV?$allocator@D@1@@Z 1006a230 f i KitParser.obj
 0002:0001b270       ??$?0ABV?$allocator@D@std@@X@?$_String_alloc@U?$_String_base_types@DV?$allocator@D@std@@@std@@@std@@QAE@ABV?$allocator@D@1@@Z 1006a270 f i KitParser.obj
 0002:0001b2b0       ??$?0ABV?$basic_string@DU?$char_traits@D@std@@V?$allocator@D@2@@std@@V01@$0A@@?$basic_json@Vmap@std@@Vvector@2@V?$basic_string@DU?$char_traits@D@std@@V?$allocator@D@2@@2@_N_J_KNVallocator@2@Uadl_serializer@nlohmann@@@nlohmann@@QAE@ABV?$basic_string@DU?$char_traits@D@std@@V?$allocator@D@2@@std@@@Z 1006a2b0 f i KitParser.obj
 0002:0001b310       ??$?0PADX@?$basic_string@DU?$char_traits@D@std@@V?$allocator@D@2@@std@@QAE@PAD0ABV?$allocator@D@1@@Z 1006a310 f i KitParser.obj
 0002:0001b460       ??$?0U_Exact_args_t@std@@$0A@@?$tuple@$$V@std@@QAE@U_Exact_args_t@1@@Z 1006a460 f i KitParser.obj
 0002:0001b480       ??$?0U_Exact_args_t@std@@V?$basic_string@DU?$char_traits@D@std@@V?$allocator@D@2@@1@$$V$0A@@?$tuple@$$QAV?$basic_string@DU?$char_traits@D@std@@V?$allocator@D@2@@std@@@std@@QAE@U_Exact_args_t@1@$$QAV?$basic_string@DU?$char_traits@D@std@@V?$allocator@D@2@@1@@Z 1006a480 f i KitParser.obj
 0002:0001b5b0       ??$?0V?$_Tree_const_iterator@V?$_Tree_val@U?$_Tree_simple_types@U?$pair@$$CBV?$basic_string@DU?$char_traits@D@std@@V?$allocator@D@2@@std@@V12@@std@@@std@@@std@@@std@@@?$map@V?$basic_string@DU?$char_traits@D@std@@V?$allocator@D@2@@std@@V?$basic_json@Vmap@std@@Vvector@2@V?$basic_string@DU?$char_traits@D@std@@V?$allocator@D@2@@2@_N_J_KNVallocator@2@Uadl_serializer@nlohmann@@@nlohmann@@U?$less@V?$basic_string@DU?$char_traits@D@std@@V?$allocator@D@2@@std@@@2@V?$allocator@U?$pair@$$CBV?$basic_string@DU?$char_traits@D@std@@V?$allocator@D@2@@std@@V?$basic_json@Vmap@std@@Vvector@2@V?$basic_string@DU?$char_traits@D@std@@V?$allocator@D@2@@2@_N_J_KNVallocator@2@Uadl_serializer@nlohmann@@@nlohmann@@@std@@@2@@std@@QAE@V?$_Tree_const_iterator@V?$_Tree_val@U?$_Tree_simple_types@U?$pair@$$CBV?$basic_string@DU?$char_traits@D@std@@V?$allocator@D@2@@std@@V12@@std@@@std@@@std@@@1@0@Z 1006a5b0 f i KitParser.obj
 0002:0001b640       ??$?0V?$_Tree_iterator@V?$_Tree_val@U?$_Tree_simple_types@U?$pair@$$CBV?$basic_string@DU?$char_traits@D@std@@V?$allocator@D@2@@std@@V12@@std@@@std@@@std@@@std@@_N$0A@@?$pair@V?$_Tree_iterator@V?$_Tree_val@U?$_Tree_simple_types@U?$pair@$$CBV?$basic_string@DU?$char_traits@D@std@@V?$allocator@D@2@@std@@V12@@std@@@std@@@std@@@std@@_N@std@@QAE@$$QAV?$_Tree_iterator@V?$_Tree_val@U?$_Tree_simple_types@U?$pair@$$CBV?$basic_string@DU?$char_traits@D@std@@V?$allocator@D@2@@std@@V12@@std@@@std@@@std@@@1@$$QA_N@Z 1006a640 f i KitParser.obj
 0002:0001b690       ??$?0V?$_Tree_iterator@V?$_Tree_val@U?$_Tree_simple_types@U?$pair@$$CBV?$basic_string@DU?$char_traits@D@std@@V?$allocator@D@2@@std@@V?$basic_json@Vmap@std@@Vvector@2@V?$basic_string@DU?$char_traits@D@std@@V?$allocator@D@2@@2@_N_J_KNVallocator@2@Uadl_serializer@nlohmann@@@nlohmann@@@std@@@std@@@std@@@std@@_N$0A@@?$pair@V?$_Tree_iterator@V?$_Tree_val@U?$_Tree_simple_types@U?$pair@$$CBV?$basic_string@DU?$char_traits@D@std@@V?$allocator@D@2@@std@@V?$basic_json@Vmap@std@@Vvector@2@V?$basic_string@DU?$char_traits@D@std@@V?$allocator@D@2@@2@_N_J_KNVallocator@2@Uadl_serializer@nlohmann@@@nlohmann@@@std@@@std@@@std@@@std@@_N@std@@QAE@$$QAV?$_Tree_iterator@V?$_Tree_val@U?$_Tree_simple_types@U?$pair@$$CBV?$basic_string@DU?$char_traits@D@std@@V?$allocator@D@2@@std@@V?$basic_json@Vmap@std@@Vvector@2@V?$basic_string@DU?$char_traits@D@std@@V?$allocator@D@2@@2@_N_J_KNVallocator@2@Uadl_serializer@nlohmann@@@nlohmann@@@std@@@std@@@std@@@1@$$QA_N@Z 1006a690 f i KitParser.obj
 0002:0001b6e0       ??$?0V?$allocator@D@std@@$$V@?$_Compressed_pair@V?$allocator@D@std@@V?$_String_val@U?$_Simple_types@D@std@@@2@$00@std@@QAE@U_One_then_variadic_args_t@1@$$QAV?$allocator@D@1@@Z 1006a6e0 f i KitParser.obj
 0002:0001b720       ??$?0V?$allocator@D@std@@X@?$_String_alloc@U?$_String_base_types@DV?$allocator@D@std@@@std@@@std@@QAE@$$QAV?$allocator@D@1@@Z 1006a720 f i KitParser.obj
 0002:0001b760       ??$?0V?$basic_string@DU?$char_traits@D@std@@V?$allocator@D@2@@std@@$$V$0A@@?$tuple@$$QAV?$basic_string@DU?$char_traits@D@std@@V?$allocator@D@2@@std@@@std@@QAE@$$QAV?$basic_string@DU?$char_traits@D@std@@V?$allocator@D@2@@1@@Z 1006a760 f i KitParser.obj
 0002:0001b7b0       ??$?0V?$basic_string@DU?$char_traits@D@std@@V?$allocator@D@2@@std@@@?$_Tuple_val@$$QAV?$basic_string@DU?$char_traits@D@std@@V?$allocator@D@2@@std@@@std@@QAE@$$QAV?$basic_string@DU?$char_traits@D@std@@V?$allocator@D@2@@1@@Z 1006a7b0 f i KitParser.obj
 0002:0001b7f0       ??$?0V?$codecvt_utf8_utf16@_W$0BAPPPP@$0A@@std@@@locale@std@@QAE@ABV01@PBV?$codecvt_utf8_utf16@_W$0BAPPPP@$0A@@1@@Z 1006a7f0 f i KitParser.obj
 0002:0001b880       ??$?0V?$output_stream_adapter@D@detail@nlohmann@@$0A@@?$shared_ptr@U?$output_adapter_protocol@D@detail@nlohmann@@@std@@QAE@$$QAV?$shared_ptr@V?$output_stream_adapter@D@detail@nlohmann@@@1@@Z 1006a880 f i KitParser.obj
 0002:0001b900       ??$?0V?$tuple@$$QAV?$basic_string@DU?$char_traits@D@std@@V?$allocator@D@2@@std@@@std@@V?$tuple@$$V@1@$0A@$$Z$S@?$pair@$$CBV?$basic_string@DU?$char_traits@D@std@@V?$allocator@D@2@@std@@V12@@std@@QAE@AAV?$tuple@$$QAV?$basic_string@DU?$char_traits@D@std@@V?$allocator@D@2@@std@@@1@AAV?$tuple@$$V@1@U?$integer_sequence@I$0A@@1@U?$integer_sequence@I$S@1@@Z 1006a900 f i KitParser.obj
 0002:0001b960       ??$?6DU?$char_traits@D@std@@D@std@@YAAAV?$basic_ostream@DU?$char_traits@D@std@@@0@AAV10@ABU?$_Fillobj@D@0@@Z 1006a960 f i KitParser.obj
 0002:0001b9a0       ??$?6DU?$char_traits@D@std@@_J@std@@YAAAV?$basic_ostream@DU?$char_traits@D@std@@@0@AAV10@ABU?$_Smanip@_J@0@@Z 1006a9a0 f i KitParser.obj
 0002:0001bb10       ??$?CU?$output_adapter_protocol@D@detail@nlohmann@@$0A@@?$shared_ptr@U?$output_adapter_protocol@D@detail@nlohmann@@@std@@QBEPAU?$output_adapter_protocol@D@detail@nlohmann@@XZ 1006ab10 f i KitParser.obj
 0002:0001bb40       ??$?HDU?$char_traits@D@std@@V?$allocator@D@1@@std@@YA?AV?$basic_string@DU?$char_traits@D@std@@V?$allocator@D@2@@0@$$QAV10@0@Z 1006ab40 f i KitParser.obj
 0002:0001bc20       ??$?HDU?$char_traits@D@std@@V?$allocator@D@1@@std@@YA?AV?$basic_string@DU?$char_traits@D@std@@V?$allocator@D@2@@0@$$QAV10@ABV10@@Z 1006ac20 f i KitParser.obj
 0002:0001bc80       ??$?HDU?$char_traits@D@std@@V?$allocator@D@1@@std@@YA?AV?$basic_string@DU?$char_traits@D@std@@V?$allocator@D@2@@0@$$QAV10@QBD@Z 1006ac80 f i KitParser.obj
 0002:0001bce0       ??$?HDU?$char_traits@D@std@@V?$allocator@D@1@@std@@YA?AV?$basic_string@DU?$char_traits@D@std@@V?$allocator@D@2@@0@QBD$$QAV10@@Z 1006ace0 f i KitParser.obj
 0002:0001bd40       ??$?HDU?$char_traits@D@std@@V?$allocator@D@1@@std@@YA?AV?$basic_string@DU?$char_traits@D@std@@V?$allocator@D@2@@0@QBDABV10@@Z 1006ad40 f i KitParser.obj
 0002:0001be40       ??$?MDU?$char_traits@D@std@@V?$allocator@D@1@@std@@YA_NABV?$basic_string@DU?$char_traits@D@std@@V?$allocator@D@2@@0@0@Z 1006ae40 f i KitParser.obj
 0002:0001be80       ??$?RV?$basic_json@Vmap@std@@Vvector@2@V?$basic_string@DU?$char_traits@D@std@@V?$allocator@D@2@@2@_N_J_KNVallocator@2@Uadl_serializer@nlohmann@@@nlohmann@@AAV?$map@V?$basic_string@DU?$char_traits@D@std@@V?$allocator@D@2@@std@@V12@U?$less@V?$basic_string@DU?$char_traits@D@std@@V?$allocator@D@2@@std@@@2@V?$allocator@U?$pair@$$CBV?$basic_string@DU?$char_traits@D@std@@V?$allocator@D@2@@std@@V12@@std@@@2@@std@@@to_json_fn@detail@nlohmann@@QBEXAAV?$basic_json@Vmap@std@@Vvector@2@V?$basic_string@DU?$char_traits@D@std@@V?$allocator@D@2@@2@_N_J_KNVallocator@2@Uadl_serializer@nlohmann@@@2@AAV?$map@V?$basic_string@DU?$char_traits@D@std@@V?$allocator@D@2@@std@@V12@U?$less@V?$basic_string@DU?$char_traits@D@std@@V?$allocator@D@2@@std@@@2@V?$allocator@U?$pair@$$CBV?$basic_string@DU?$char_traits@D@std@@V?$allocator@D@2@@std@@V12@@std@@@2@@std@@@Z 1006ae80 f i KitParser.obj
 0002:0001bec0       ??$?RV?$basic_json@Vmap@std@@Vvector@2@V?$basic_string@DU?$char_traits@D@std@@V?$allocator@D@2@@2@_N_J_KNVallocator@2@Uadl_serializer@nlohmann@@@nlohmann@@ABV?$basic_string@DU?$char_traits@D@std@@V?$allocator@D@2@@std@@@to_json_fn@detail@nlohmann@@QBEXAAV?$basic_json@Vmap@std@@Vvector@2@V?$basic_string@DU?$char_traits@D@std@@V?$allocator@D@2@@2@_N_J_KNVallocator@2@Uadl_serializer@nlohmann@@@2@ABV?$basic_string@DU?$char_traits@D@std@@V?$allocator@D@2@@std@@@Z 1006aec0 f i KitParser.obj
 0002:0001bf00       ??$_Advance1@V?$_Tree_const_iterator@V?$_Tree_val@U?$_Tree_simple_types@U?$pair@$$CBV?$basic_string@DU?$char_traits@D@std@@V?$allocator@D@2@@std@@V?$basic_json@Vmap@std@@Vvector@2@V?$basic_string@DU?$char_traits@D@std@@V?$allocator@D@2@@2@_N_J_KNVallocator@2@Uadl_serializer@nlohmann@@@nlohmann@@@std@@@std@@@std@@@std@@H@std@@YAXAAV?$_Tree_const_iterator@V?$_Tree_val@U?$_Tree_simple_types@U?$pair@$$CBV?$basic_string@DU?$char_traits@D@std@@V?$allocator@D@2@@std@@V?$basic_json@Vmap@std@@Vvector@2@V?$basic_string@DU?$char_traits@D@std@@V?$allocator@D@2@@2@_N_J_KNVallocator@2@Uadl_serializer@nlohmann@@@nlohmann@@@std@@@std@@@std@@@0@HUbidirectional_iterator_tag@0@@Z 1006af00 f i KitParser.obj
 0002:0001bf60       ??$_Buy_if_not_node@AAU?$pair@$$CBV?$basic_string@DU?$char_traits@D@std@@V?$allocator@D@2@@std@@V12@@std@@@?$_Tree@V?$_Tmap_traits@V?$basic_string@DU?$char_traits@D@std@@V?$allocator@D@2@@std@@V12@U?$less@V?$basic_string@DU?$char_traits@D@std@@V?$allocator@D@2@@std@@@2@V?$allocator@U?$pair@$$CBV?$basic_string@DU?$char_traits@D@std@@V?$allocator@D@2@@std@@V12@@std@@@2@$0A@@std@@@std@@IAEPAU?$_Tree_node@U?$pair@$$CBV?$basic_string@DU?$char_traits@D@std@@V?$allocator@D@2@@std@@V12@@std@@PAX@1@PAU21@AAU?$pair@$$CBV?$basic_string@DU?$char_traits@D@std@@V?$allocator@D@2@@std@@V12@@1@@Z 1006af60 f i KitParser.obj
 0002:0001bf80       ??$_Buy_if_not_node@AAU?$pair@$$CBV?$basic_string@DU?$char_traits@D@std@@V?$allocator@D@2@@std@@V?$basic_json@Vmap@std@@Vvector@2@V?$basic_string@DU?$char_traits@D@std@@V?$allocator@D@2@@2@_N_J_KNVallocator@2@Uadl_serializer@nlohmann@@@nlohmann@@@std@@@?$_Tree@V?$_Tmap_traits@V?$basic_string@DU?$char_traits@D@std@@V?$allocator@D@2@@std@@V?$basic_json@Vmap@std@@Vvector@2@V?$basic_string@DU?$char_traits@D@std@@V?$allocator@D@2@@2@_N_J_KNVallocator@2@Uadl_serializer@nlohmann@@@nlohmann@@U?$less@V?$basic_string@DU?$char_traits@D@std@@V?$allocator@D@2@@std@@@2@V?$allocator@U?$pair@$$CBV?$basic_string@DU?$char_traits@D@std@@V?$allocator@D@2@@std@@V?$basic_json@Vmap@std@@Vvector@2@V?$basic_string@DU?$char_traits@D@std@@V?$allocator@D@2@@2@_N_J_KNVallocator@2@Uadl_serializer@nlohmann@@@nlohmann@@@std@@@2@$0A@@std@@@std@@IAEPAU?$_Tree_node@U?$pair@$$CBV?$basic_string@DU?$char_traits@D@std@@V?$allocator@D@2@@std@@V?$basic_json@Vmap@std@@Vvector@2@V?$basic_string@DU?$char_traits@D@std@@V?$allocator@D@2@@2@_N_J_KNVallocator@2@Uadl_serializer@nlohmann@@@nlohmann@@@std@@PAX@1@PAU21@AAU?$pair@$$CBV?$basic_string@DU?$char_traits@D@std@@V?$allocator@D@2@@std@@V?$basic_json@Vmap@std@@Vvector@2@V?$basic_string@DU?$char_traits@D@std@@V?$allocator@D@2@@2@_N_J_KNVallocator@2@Uadl_serializer@nlohmann@@@nlohmann@@@1@@Z 1006af80 f i KitParser.obj
 0002:0001bfa0       ??$_Buynode@ABU?$pair@$$CBV?$basic_string@DU?$char_traits@D@std@@V?$allocator@D@2@@std@@V12@@std@@@?$_Tree_comp_alloc@V?$_Tmap_traits@V?$basic_string@DU?$char_traits@D@std@@V?$allocator@D@2@@std@@V?$basic_json@Vmap@std@@Vvector@2@V?$basic_string@DU?$char_traits@D@std@@V?$allocator@D@2@@2@_N_J_KNVallocator@2@Uadl_serializer@nlohmann@@@nlohmann@@U?$less@V?$basic_string@DU?$char_traits@D@std@@V?$allocator@D@2@@std@@@2@V?$allocator@U?$pair@$$CBV?$basic_string@DU?$char_traits@D@std@@V?$allocator@D@2@@std@@V?$basic_json@Vmap@std@@Vvector@2@V?$basic_string@DU?$char_traits@D@std@@V?$allocator@D@2@@2@_N_J_KNVallocator@2@Uadl_serializer@nlohmann@@@nlohmann@@@std@@@2@$0A@@std@@@std@@QAEPAU?$_Tree_node@U?$pair@$$CBV?$basic_string@DU?$char_traits@D@std@@V?$allocator@D@2@@std@@V?$basic_json@Vmap@std@@Vvector@2@V?$basic_string@DU?$char_traits@D@std@@V?$allocator@D@2@@2@_N_J_KNVallocator@2@Uadl_serializer@nlohmann@@@nlohmann@@@std@@PAX@1@ABU?$pair@$$CBV?$basic_string@DU?$char_traits@D@std@@V?$allocator@D@2@@std@@V12@@1@@Z 1006afa0 f i KitParser.obj
 0002:0001c0a0       ??$_Buynode@ABUpiecewise_construct_t@std@@V?$tuple@$$QAV?$basic_string@DU?$char_traits@D@std@@V?$allocator@D@2@@std@@@2@V?$tuple@$$V@2@@?$_Tree_comp_alloc@V?$_Tmap_traits@V?$basic_string@DU?$char_traits@D@std@@V?$allocator@D@2@@std@@V12@U?$less@V?$basic_string@DU?$char_traits@D@std@@V?$allocator@D@2@@std@@@2@V?$allocator@U?$pair@$$CBV?$basic_string@DU?$char_traits@D@std@@V?$allocator@D@2@@std@@V12@@std@@@2@$0A@@std@@@std@@QAEPAU?$_Tree_node@U?$pair@$$CBV?$basic_string@DU?$char_traits@D@std@@V?$allocator@D@2@@std@@V12@@std@@PAX@1@ABUpiecewise_construct_t@1@$$QAV?$tuple@$$QAV?$basic_string@DU?$char_traits@D@std@@V?$allocator@D@2@@std@@@1@$$QAV?$tuple@$$V@1@@Z 1006b0a0 f i KitParser.obj
 0002:0001c1c0       ??$_Copy_construct_from@U?$output_adapter_protocol@D@detail@nlohmann@@@?$_Ptr_base@U?$output_adapter_protocol@D@detail@nlohmann@@@std@@IAEXABV?$shared_ptr@U?$output_adapter_protocol@D@detail@nlohmann@@@1@@Z 1006b1c0 f i KitParser.obj
 0002:0001c210       ??$_Destroy_range1@V?$allocator@V?$basic_json@Vmap@std@@Vvector@2@V?$basic_string@DU?$char_traits@D@std@@V?$allocator@D@2@@2@_N_J_KNVallocator@2@Uadl_serializer@nlohmann@@@nlohmann@@@std@@@std@@YAXPAV?$basic_json@Vmap@std@@Vvector@2@V?$basic_string@DU?$char_traits@D@std@@V?$allocator@D@2@@2@_N_J_KNVallocator@2@Uadl_serializer@nlohmann@@@nlohmann@@0AAV?$allocator@V?$basic_json@Vmap@std@@Vvector@2@V?$basic_string@DU?$char_traits@D@std@@V?$allocator@D@2@@2@_N_J_KNVallocator@2@Uadl_serializer@nlohmann@@@nlohmann@@@0@U?$integral_constant@_N$0A@@0@@Z 1006b210 f i KitParser.obj
 0002:0001c260       ??$_Destroy_range@V?$allocator@V?$basic_json@Vmap@std@@Vvector@2@V?$basic_string@DU?$char_traits@D@std@@V?$allocator@D@2@@2@_N_J_KNVallocator@2@Uadl_serializer@nlohmann@@@nlohmann@@@std@@@std@@YAXPAV?$basic_json@Vmap@std@@Vvector@2@V?$basic_string@DU?$char_traits@D@std@@V?$allocator@D@2@@2@_N_J_KNVallocator@2@Uadl_serializer@nlohmann@@@nlohmann@@0AAV?$allocator@V?$basic_json@Vmap@std@@Vvector@2@V?$basic_string@DU?$char_traits@D@std@@V?$allocator@D@2@@2@_N_J_KNVallocator@2@Uadl_serializer@nlohmann@@@nlohmann@@@0@@Z 1006b260 f i KitParser.obj
 0002:0001c2a0       ??$_Enable_shared_from_this1@V?$output_stream_adapter@D@detail@nlohmann@@V123@@std@@YAXABV?$shared_ptr@V?$output_stream_adapter@D@detail@nlohmann@@@0@PAV?$output_stream_adapter@D@detail@nlohmann@@U?$integral_constant@_N$0A@@0@@Z 1006b2a0 f i KitParser.obj
 0002:0001c2c0       ??$_Enable_shared_from_this@V?$output_stream_adapter@D@detail@nlohmann@@V123@@std@@YAXABV?$shared_ptr@V?$output_stream_adapter@D@detail@nlohmann@@@0@PAV?$output_stream_adapter@D@detail@nlohmann@@@Z 1006b2c0 f i KitParser.obj
 0002:0001c300       ??$_Fgetc@D@std@@YA_NAADPAU_iobuf@@@Z 1006b300 f i KitParser.obj
 0002:0001c350       ??$_Fill_memset_is_safe@PADD@std@@YA?AU?$integral_constant@_N$00@0@ABQADABD@Z 1006b350 f i KitParser.obj
 0002:0001c370       ??$_Fill_unchecked1@PADD@std@@YAXPAD0ABDU?$integral_constant@_N$00@0@@Z 1006b370 f i KitParser.obj
 0002:0001c3b0       ??$_Fill_unchecked@PADD@std@@YAXPAD0ABD@Z 1006b3b0 f i KitParser.obj
 0002:0001c400       ??$_Find_unchecked1@PADD@std@@YAPADPADQADABDU?$integral_constant@_N$00@0@@Z 1006b400 f i KitParser.obj
 0002:0001c480       ??$_Find_unchecked@PADD@std@@YAPADQAD0ABD@Z 1006b480 f i KitParser.obj
 0002:0001c4c0       ??$_Fputc@D@std@@YA_NDPAU_iobuf@@@Z 1006b4c0 f i KitParser.obj
 0002:0001c510       ??$_Freenode0@V?$allocator@U?$_Tree_node@U?$pair@$$CBV?$basic_string@DU?$char_traits@D@std@@V?$allocator@D@2@@std@@V12@@std@@PAX@std@@@std@@@?$_Tree_node@U?$pair@$$CBV?$basic_string@DU?$char_traits@D@std@@V?$allocator@D@2@@std@@V12@@std@@PAX@std@@SAXAAV?$allocator@U?$_Tree_node@U?$pair@$$CBV?$basic_string@DU?$char_traits@D@std@@V?$allocator@D@2@@std@@V12@@std@@PAX@std@@@1@PAU01@@Z 1006b510 f i KitParser.obj
 0002:0001c5f0       ??$_Freenode0@V?$allocator@U?$_Tree_node@U?$pair@$$CBV?$basic_string@DU?$char_traits@D@std@@V?$allocator@D@2@@std@@V?$basic_json@Vmap@std@@Vvector@2@V?$basic_string@DU?$char_traits@D@std@@V?$allocator@D@2@@2@_N_J_KNVallocator@2@Uadl_serializer@nlohmann@@@nlohmann@@@std@@PAX@std@@@std@@@?$_Tree_node@U?$pair@$$CBV?$basic_string@DU?$char_traits@D@std@@V?$allocator@D@2@@std@@V?$basic_json@Vmap@std@@Vvector@2@V?$basic_string@DU?$char_traits@D@std@@V?$allocator@D@2@@2@_N_J_KNVallocator@2@Uadl_serializer@nlohmann@@@nlohmann@@@std@@PAX@std@@SAXAAV?$allocator@U?$_Tree_node@U?$pair@$$CBV?$basic_string@DU?$char_traits@D@std@@V?$allocator@D@2@@std@@V?$basic_json@Vmap@std@@Vvector@2@V?$basic_string@DU?$char_traits@D@std@@V?$allocator@D@2@@2@_N_J_KNVallocator@2@Uadl_serializer@nlohmann@@@nlohmann@@@std@@PAX@std@@@1@PAU01@@Z 1006b5f0 f i KitParser.obj
 0002:0001c6d0       ??$_Get_size_of_n@$0BI@@std@@YAII@Z 1006b6d0 f i KitParser.obj
 0002:0001c710       ??$_Get_size_of_n@$0DI@@std@@YAII@Z 1006b710 f i KitParser.obj
 0002:0001c750       ??$_Get_size_of_n@$0EA@@std@@YAII@Z 1006b750 f i KitParser.obj
 0002:0001c790       ??$_Insert_at@AAU?$pair@$$CBV?$basic_string@DU?$char_traits@D@std@@V?$allocator@D@2@@std@@V12@@std@@PAU?$_Tree_node@U?$pair@$$CBV?$basic_string@DU?$char_traits@D@std@@V?$allocator@D@2@@std@@V12@@std@@PAX@2@@?$_Tree@V?$_Tmap_traits@V?$basic_string@DU?$char_traits@D@std@@V?$allocator@D@2@@std@@V12@U?$less@V?$basic_string@DU?$char_traits@D@std@@V?$allocator@D@2@@std@@@2@V?$allocator@U?$pair@$$CBV?$basic_string@DU?$char_traits@D@std@@V?$allocator@D@2@@std@@V12@@std@@@2@$0A@@std@@@std@@IAE?AV?$_Tree_iterator@V?$_Tree_val@U?$_Tree_simple_types@U?$pair@$$CBV?$basic_string@DU?$char_traits@D@std@@V?$allocator@D@2@@std@@V12@@std@@@std@@@std@@@1@_NPAU?$_Tree_node@U?$pair@$$CBV?$basic_string@DU?$char_traits@D@std@@V?$allocator@D@2@@std@@V12@@std@@PAX@1@AAU?$pair@$$CBV?$basic_string@DU?$char_traits@D@std@@V?$allocator@D@2@@std@@V12@@1@1@Z 1006b790 f i KitParser.obj
 0002:0001cad0       ??$_Insert_at@AAU?$pair@$$CBV?$basic_string@DU?$char_traits@D@std@@V?$allocator@D@2@@std@@V?$basic_json@Vmap@std@@Vvector@2@V?$basic_string@DU?$char_traits@D@std@@V?$allocator@D@2@@2@_N_J_KNVallocator@2@Uadl_serializer@nlohmann@@@nlohmann@@@std@@PAU?$_Tree_node@U?$pair@$$CBV?$basic_string@DU?$char_traits@D@std@@V?$allocator@D@2@@std@@V?$basic_json@Vmap@std@@Vvector@2@V?$basic_string@DU?$char_traits@D@std@@V?$allocator@D@2@@2@_N_J_KNVallocator@2@Uadl_serializer@nlohmann@@@nlohmann@@@std@@PAX@2@@?$_Tree@V?$_Tmap_traits@V?$basic_string@DU?$char_traits@D@std@@V?$allocator@D@2@@std@@V?$basic_json@Vmap@std@@Vvector@2@V?$basic_string@DU?$char_traits@D@std@@V?$allocator@D@2@@2@_N_J_KNVallocator@2@Uadl_serializer@nlohmann@@@nlohmann@@U?$less@V?$basic_string@DU?$char_traits@D@std@@V?$allocator@D@2@@std@@@2@V?$allocator@U?$pair@$$CBV?$basic_string@DU?$char_traits@D@std@@V?$allocator@D@2@@std@@V?$basic_json@Vmap@std@@Vvector@2@V?$basic_string@DU?$char_traits@D@std@@V?$allocator@D@2@@2@_N_J_KNVallocator@2@Uadl_serializer@nlohmann@@@nlohmann@@@std@@@2@$0A@@std@@@std@@IAE?AV?$_Tree_iterator@V?$_Tree_val@U?$_Tree_simple_types@U?$pair@$$CBV?$basic_string@DU?$char_traits@D@std@@V?$allocator@D@2@@std@@V?$basic_json@Vmap@std@@Vvector@2@V?$basic_string@DU?$char_traits@D@std@@V?$allocator@D@2@@2@_N_J_KNVallocator@2@Uadl_serializer@nlohmann@@@nlohmann@@@std@@@std@@@std@@@1@_NPAU?$_Tree_node@U?$pair@$$CBV?$basic_string@DU?$char_traits@D@std@@V?$allocator@D@2@@std@@V?$basic_json@Vmap@std@@Vvector@2@V?$basic_string@DU?$char_traits@D@std@@V?$allocator@D@2@@2@_N_J_KNVallocator@2@Uadl_serializer@nlohmann@@@nlohmann@@@std@@PAX@1@AAU?$pair@$$CBV?$basic_string@DU?$char_traits@D@std@@V?$allocator@D@2@@std@@V?$basic_json@Vmap@std@@Vvector@2@V?$basic_string@DU?$char_traits@D@std@@V?$allocator@D@2@@2@_N_J_KNVallocator@2@Uadl_serializer@nlohmann@@@nlohmann@@@1@1@Z 1006bad0 f i KitParser.obj
 0002:0001ce10       ??$_Insert_hint@AAU?$pair@$$CBV?$basic_string@DU?$char_traits@D@std@@V?$allocator@D@2@@std@@V12@@std@@PAU?$_Tree_node@U?$pair@$$CBV?$basic_string@DU?$char_traits@D@std@@V?$allocator@D@2@@std@@V12@@std@@PAX@2@@?$_Tree@V?$_Tmap_traits@V?$basic_string@DU?$char_traits@D@std@@V?$allocator@D@2@@std@@V12@U?$less@V?$basic_string@DU?$char_traits@D@std@@V?$allocator@D@2@@std@@@2@V?$allocator@U?$pair@$$CBV?$basic_string@DU?$char_traits@D@std@@V?$allocator@D@2@@std@@V12@@std@@@2@$0A@@std@@@std@@IAE?AV?$_Tree_iterator@V?$_Tree_val@U?$_Tree_simple_types@U?$pair@$$CBV?$basic_string@DU?$char_traits@D@std@@V?$allocator@D@2@@std@@V12@@std@@@std@@@std@@@1@V?$_Tree_const_iterator@V?$_Tree_val@U?$_Tree_simple_types@U?$pair@$$CBV?$basic_string@DU?$char_traits@D@std@@V?$allocator@D@2@@std@@V12@@std@@@std@@@std@@@1@AAU?$pair@$$CBV?$basic_string@DU?$char_traits@D@std@@V?$allocator@D@2@@std@@V12@@1@PAU?$_Tree_node@U?$pair@$$CBV?$basic_string@DU?$char_traits@D@std@@V?$allocator@D@2@@std@@V12@@std@@PAX@1@@Z 1006be10 f i KitParser.obj
 0002:0001d960       ??$_Insert_hint@AAU?$pair@$$CBV?$basic_string@DU?$char_traits@D@std@@V?$allocator@D@2@@std@@V?$basic_json@Vmap@std@@Vvector@2@V?$basic_string@DU?$char_traits@D@std@@V?$allocator@D@2@@2@_N_J_KNVallocator@2@Uadl_serializer@nlohmann@@@nlohmann@@@std@@PAU?$_Tree_node@U?$pair@$$CBV?$basic_string@DU?$char_traits@D@std@@V?$allocator@D@2@@std@@V?$basic_json@Vmap@std@@Vvector@2@V?$basic_string@DU?$char_traits@D@std@@V?$allocator@D@2@@2@_N_J_KNVallocator@2@Uadl_serializer@nlohmann@@@nlohmann@@@std@@PAX@2@@?$_Tree@V?$_Tmap_traits@V?$basic_string@DU?$char_traits@D@std@@V?$allocator@D@2@@std@@V?$basic_json@Vmap@std@@Vvector@2@V?$basic_string@DU?$char_traits@D@std@@V?$allocator@D@2@@2@_N_J_KNVallocator@2@Uadl_serializer@nlohmann@@@nlohmann@@U?$less@V?$basic_string@DU?$char_traits@D@std@@V?$allocator@D@2@@std@@@2@V?$allocator@U?$pair@$$CBV?$basic_string@DU?$char_traits@D@std@@V?$allocator@D@2@@std@@V?$basic_json@Vmap@std@@Vvector@2@V?$basic_string@DU?$char_traits@D@std@@V?$allocator@D@2@@2@_N_J_KNVallocator@2@Uadl_serializer@nlohmann@@@nlohmann@@@std@@@2@$0A@@std@@@std@@IAE?AV?$_Tree_iterator@V?$_Tree_val@U?$_Tree_simple_types@U?$pair@$$CBV?$basic_string@DU?$char_traits@D@std@@V?$allocator@D@2@@std@@V?$basic_json@Vmap@std@@Vvector@2@V?$basic_string@DU?$char_traits@D@std@@V?$allocator@D@2@@2@_N_J_KNVallocator@2@Uadl_serializer@nlohmann@@@nlohmann@@@std@@@std@@@std@@@1@V?$_Tree_const_iterator@V?$_Tree_val@U?$_Tree_simple_types@U?$pair@$$CBV?$basic_string@DU?$char_traits@D@std@@V?$allocator@D@2@@std@@V?$basic_json@Vmap@std@@Vvector@2@V?$basic_string@DU?$char_traits@D@std@@V?$allocator@D@2@@2@_N_J_KNVallocator@2@Uadl_serializer@nlohmann@@@nlohmann@@@std@@@std@@@std@@@1@AAU?$pair@$$CBV?$basic_string@DU?$char_traits@D@std@@V?$allocator@D@2@@std@@V?$basic_json@Vmap@std@@Vvector@2@V?$basic_string@DU?$char_traits@D@std@@V?$allocator@D@2@@2@_N_J_KNVallocator@2@Uadl_serializer@nlohmann@@@nlohmann@@@1@PAU?$_Tree_node@U?$pair@$$CBV?$basic_string@DU?$char_traits@D@std@@V?$allocator@D@2@@std@@V?$basic_json@Vmap@std@@Vvector@2@V?$basic_string@DU?$char_traits@D@std@@V?$allocator@D@2@@2@_N_J_KNVallocator@2@Uadl_serializer@nlohmann@@@nlohmann@@@std@@PAX@1@@Z 1006c960 f i KitParser.obj
 0002:0001e4b0       ??$_Insert_nohint@AAU?$pair@$$CBV?$basic_string@DU?$char_traits@D@std@@V?$allocator@D@2@@std@@V12@@std@@PAU?$_Tree_node@U?$pair@$$CBV?$basic_string@DU?$char_traits@D@std@@V?$allocator@D@2@@std@@V12@@std@@PAX@2@@?$_Tree@V?$_Tmap_traits@V?$basic_string@DU?$char_traits@D@std@@V?$allocator@D@2@@std@@V12@U?$less@V?$basic_string@DU?$char_traits@D@std@@V?$allocator@D@2@@std@@@2@V?$allocator@U?$pair@$$CBV?$basic_string@DU?$char_traits@D@std@@V?$allocator@D@2@@std@@V12@@std@@@2@$0A@@std@@@std@@IAE?AU?$pair@V?$_Tree_iterator@V?$_Tree_val@U?$_Tree_simple_types@U?$pair@$$CBV?$basic_string@DU?$char_traits@D@std@@V?$allocator@D@2@@std@@V12@@std@@@std@@@std@@@std@@_N@1@_NAAU?$pair@$$CBV?$basic_string@DU?$char_traits@D@std@@V?$allocator@D@2@@std@@V12@@1@PAU?$_Tree_node@U?$pair@$$CBV?$basic_string@DU?$char_traits@D@std@@V?$allocator@D@2@@std@@V12@@std@@PAX@1@@Z 1006d4b0 f i KitParser.obj
 0002:0001e920       ??$_Insert_nohint@AAU?$pair@$$CBV?$basic_string@DU?$char_traits@D@std@@V?$allocator@D@2@@std@@V?$basic_json@Vmap@std@@Vvector@2@V?$basic_string@DU?$char_traits@D@std@@V?$allocator@D@2@@2@_N_J_KNVallocator@2@Uadl_serializer@nlohmann@@@nlohmann@@@std@@PAU?$_Tree_node@U?$pair@$$CBV?$basic_string@DU?$char_traits@D@std@@V?$allocator@D@2@@std@@V?$basic_json@Vmap@std@@Vvector@2@V?$basic_string@DU?$char_traits@D@std@@V?$allocator@D@2@@2@_N_J_KNVallocator@2@Uadl_serializer@nlohmann@@@nlohmann@@@std@@PAX@2@@?$_Tree@V?$_Tmap_traits@V?$basic_string@DU?$char_traits@D@std@@V?$allocator@D@2@@std@@V?$basic_json@Vmap@std@@Vvector@2@V?$basic_string@DU?$char_traits@D@std@@V?$allocator@D@2@@2@_N_J_KNVallocator@2@Uadl_serializer@nlohmann@@@nlohmann@@U?$less@V?$basic_string@DU?$char_traits@D@std@@V?$allocator@D@2@@std@@@2@V?$allocator@U?$pair@$$CBV?$basic_string@DU?$char_traits@D@std@@V?$allocator@D@2@@std@@V?$basic_json@Vmap@std@@Vvector@2@V?$basic_string@DU?$char_traits@D@std@@V?$allocator@D@2@@2@_N_J_KNVallocator@2@Uadl_serializer@nlohmann@@@nlohmann@@@std@@@2@$0A@@std@@@std@@IAE?AU?$pair@V?$_Tree_iterator@V?$_Tree_val@U?$_Tree_simple_types@U?$pair@$$CBV?$basic_string@DU?$char_traits@D@std@@V?$allocator@D@2@@std@@V?$basic_json@Vmap@std@@Vvector@2@V?$basic_string@DU?$char_traits@D@std@@V?$allocator@D@2@@2@_N_J_KNVallocator@2@Uadl_serializer@nlohmann@@@nlohmann@@@std@@@std@@@std@@@std@@_N@1@_NAAU?$pair@$$CBV?$basic_string@DU?$char_traits@D@std@@V?$allocator@D@2@@std@@V?$basic_json@Vmap@std@@Vvector@2@V?$basic_string@DU?$char_traits@D@std@@V?$allocator@D@2@@2@_N_J_KNVallocator@2@Uadl_serializer@nlohmann@@@nlohmann@@@1@PAU?$_Tree_node@U?$pair@$$CBV?$basic_string@DU?$char_traits@D@std@@V?$allocator@D@2@@std@@V?$basic_json@Vmap@std@@Vvector@2@V?$basic_string@DU?$char_traits@D@std@@V?$allocator@D@2@@2@_N_J_KNVallocator@2@Uadl_serializer@nlohmann@@@nlohmann@@@std@@PAX@1@@Z 1006d920 f i KitParser.obj
 0002:0001ed90       ??$_Integral_to_string@DH@std@@YA?AV?$basic_string@DU?$char_traits@D@std@@V?$allocator@D@2@@0@H@Z 1006dd90 f i KitParser.obj
 0002:0001ee70       ??$_Integral_to_string@DI@std@@YA?AV?$basic_string@DU?$char_traits@D@std@@V?$allocator@D@2@@0@I@Z 1006de70 f i KitParser.obj
 0002:0001ef50       ??$_Kfn@$$CBV?$basic_string@DU?$char_traits@D@std@@V?$allocator@D@2@@std@@V12@@?$_Tmap_traits@V?$basic_string@DU?$char_traits@D@std@@V?$allocator@D@2@@std@@V12@U?$less@V?$basic_string@DU?$char_traits@D@std@@V?$allocator@D@2@@std@@@2@V?$allocator@U?$pair@$$CBV?$basic_string@DU?$char_traits@D@std@@V?$allocator@D@2@@std@@V12@@std@@@2@$0A@@std@@SAABV?$basic_string@DU?$char_traits@D@std@@V?$allocator@D@2@@1@ABU?$pair@$$CBV?$basic_string@DU?$char_traits@D@std@@V?$allocator@D@2@@std@@V12@@1@@Z 1006df50 f i KitParser.obj
 0002:0001ef70       ??$_Kfn@$$CBV?$basic_string@DU?$char_traits@D@std@@V?$allocator@D@2@@std@@V?$basic_json@Vmap@std@@Vvector@2@V?$basic_string@DU?$char_traits@D@std@@V?$allocator@D@2@@2@_N_J_KNVallocator@2@Uadl_serializer@nlohmann@@@nlohmann@@@?$_Tmap_traits@V?$basic_string@DU?$char_traits@D@std@@V?$allocator@D@2@@std@@V?$basic_json@Vmap@std@@Vvector@2@V?$basic_string@DU?$char_traits@D@std@@V?$allocator@D@2@@2@_N_J_KNVallocator@2@Uadl_serializer@nlohmann@@@nlohmann@@U?$less@V?$basic_string@DU?$char_traits@D@std@@V?$allocator@D@2@@std@@@2@V?$allocator@U?$pair@$$CBV?$basic_string@DU?$char_traits@D@std@@V?$allocator@D@2@@std@@V?$basic_json@Vmap@std@@Vvector@2@V?$basic_string@DU?$char_traits@D@std@@V?$allocator@D@2@@2@_N_J_KNVallocator@2@Uadl_serializer@nlohmann@@@nlohmann@@@std@@@2@$0A@@std@@SAABV?$basic_string@DU?$char_traits@D@std@@V?$allocator@D@2@@1@ABU?$pair@$$CBV?$basic_string@DU?$char_traits@D@std@@V?$allocator@D@2@@std@@V?$basic_json@Vmap@std@@Vvector@2@V?$basic_string@DU?$char_traits@D@std@@V?$allocator@D@2@@2@_N_J_KNVallocator@2@Uadl_serializer@nlohmann@@@nlohmann@@@1@@Z 1006df70 f i KitParser.obj
 0002:0001ef90       ??$_Lbound@V?$basic_string@DU?$char_traits@D@std@@V?$allocator@D@2@@std@@@?$_Tree@V?$_Tmap_traits@V?$basic_string@DU?$char_traits@D@std@@V?$allocator@D@2@@std@@V12@U?$less@V?$basic_string@DU?$char_traits@D@std@@V?$allocator@D@2@@std@@@2@V?$allocator@U?$pair@$$CBV?$basic_string@DU?$char_traits@D@std@@V?$allocator@D@2@@std@@V12@@std@@@2@$0A@@std@@@std@@IBEPAU?$_Tree_node@U?$pair@$$CBV?$basic_string@DU?$char_traits@D@std@@V?$allocator@D@2@@std@@V12@@std@@PAX@1@ABV?$basic_string@DU?$char_traits@D@std@@V?$allocator@D@2@@1@@Z 1006df90 f i KitParser.obj
 0002:0001f030       ??$_Move_construct_from@U?$output_adapter_protocol@D@detail@nlohmann@@@?$_Ptr_base@U?$output_adapter_protocol@D@detail@nlohmann@@@std@@IAEX$$QAV01@@Z 1006e030 f i KitParser.obj
 0002:0001f080       ??$_Move_construct_from@V?$output_stream_adapter@D@detail@nlohmann@@@?$_Ptr_base@U?$output_adapter_protocol@D@detail@nlohmann@@@std@@IAEX$$QAV?$_Ptr_base@V?$output_stream_adapter@D@detail@nlohmann@@@1@@Z 1006e080 f i KitParser.obj
 0002:0001f0d0       ??$_Move_construct_from@V?$output_stream_adapter@D@detail@nlohmann@@@?$_Ptr_base@V?$output_stream_adapter@D@detail@nlohmann@@@std@@IAEX$$QAV01@@Z 1006e0d0 f i KitParser.obj
 0002:0001f120       ??$_Pocca@V?$allocator@D@std@@@std@@YAXAAV?$allocator@D@0@ABV10@@Z 1006e120 f i KitParser.obj
 0002:0001f150       ??$_Pocca@V?$allocator@D@std@@@std@@YAXAAV?$allocator@D@0@ABV10@U?$integral_constant@_N$0A@@0@@Z 1006e150 f i KitParser.obj
 0002:0001faa0       ??$_Rechecked@D$0EA@@std@@YAAAV?$_Array_iterator@D$0EA@@0@AAV10@QAD@Z 1006eaa0 f i KitParser.obj
 0002:0001fad0       ??$_Refancy@PAD$0A@@std@@YAPADPAD@Z 1006ead0 f i KitParser.obj
 0002:0001faf0       ??$_Refancy@PBD$0A@@std@@YAPBDPBD@Z 1006eaf0 f i KitParser.obj
 0002:0001fb10       ??$_Reverse_unchecked1@PAD@std@@YAXQAD0U?$integral_constant@I$00@0@@Z 1006eb10 f i KitParser.obj
 0002:0001fb40       ??$_Reverse_unchecked@PAD@std@@YAXQAD0@Z 1006eb40 f i KitParser.obj
 0002:0001fb80       ??$_Set_ptr_rep_and_enable_shared@V?$output_stream_adapter@D@detail@nlohmann@@@?$shared_ptr@V?$output_stream_adapter@D@detail@nlohmann@@@std@@AAEXPAV?$output_stream_adapter@D@detail@nlohmann@@PAV_Ref_count_base@1@@Z 1006eb80 f i KitParser.obj
 0002:0001fbd0       ??$_Traits_compare@U?$char_traits@D@std@@@std@@YAHQBDI0I@Z 1006ebd0 f i KitParser.obj
 0002:0001fc50       ??$_Try_emplace@V?$basic_string@DU?$char_traits@D@std@@V?$allocator@D@2@@std@@$$V@?$map@V?$basic_string@DU?$char_traits@D@std@@V?$allocator@D@2@@std@@V12@U?$less@V?$basic_string@DU?$char_traits@D@std@@V?$allocator@D@2@@std@@@2@V?$allocator@U?$pair@$$CBV?$basic_string@DU?$char_traits@D@std@@V?$allocator@D@2@@std@@V12@@std@@@2@@std@@QAE?AU?$pair@V?$_Tree_iterator@V?$_Tree_val@U?$_Tree_simple_types@U?$pair@$$CBV?$basic_string@DU?$char_traits@D@std@@V?$allocator@D@2@@std@@V12@@std@@@std@@@std@@@std@@_N@1@$$QAV?$basic_string@DU?$char_traits@D@std@@V?$allocator@D@2@@1@@Z 1006ec50 f i KitParser.obj
 0002:0001fd90       ??$_UIntegral_to_buff@DI@std@@YAPADPADI@Z 1006ed90 f i KitParser.obj
 0002:0001fe80       ??$_Unchecked@D$0EA@@std@@YAPADABV?$_Array_iterator@D$0EA@@0@@Z 1006ee80 f i KitParser.obj
 0002:0001fea0       ??$_Unchecked@PAD@std@@YAPADPAD@Z 1006eea0 f i KitParser.obj
 0002:0001fec0       ??$_Unfancy@V?$basic_json@Vmap@std@@Vvector@2@V?$basic_string@DU?$char_traits@D@std@@V?$allocator@D@2@@2@_N_J_KNVallocator@2@Uadl_serializer@nlohmann@@@nlohmann@@@std@@YAPAV?$basic_json@Vmap@std@@Vvector@2@V?$basic_string@DU?$char_traits@D@std@@V?$allocator@D@2@@2@_N_J_KNVallocator@2@Uadl_serializer@nlohmann@@@nlohmann@@PAV12@@Z 1006eec0 f i KitParser.obj
 0002:0001fee0       ??$_Ungetc@D@std@@YA_NABDPAU_iobuf@@@Z 1006eee0 f i KitParser.obj
 0002:0001ff30       ??$_Within_limits@D@std@@YA_NABDU?$integral_constant@_N$00@0@1U_Unused_parameter@0@@Z 1006ef30 f i KitParser.obj
 0002:0001ff80       ??$_Within_limits@PADD@std@@YA_NPADABD@Z 1006ef80 f i KitParser.obj
 0002:0001ffc0       ??$__vcrt_va_start_verify_argument_type@QBD@@YAXXZ 1006efc0 f i KitParser.obj
 0002:0001ffe0       ??$addressof@$$CBU?$pair@$$CBV?$basic_string@DU?$char_traits@D@std@@V?$allocator@D@2@@std@@V?$basic_json@Vmap@std@@Vvector@2@V?$basic_string@DU?$char_traits@D@std@@V?$allocator@D@2@@2@_N_J_KNVallocator@2@Uadl_serializer@nlohmann@@@nlohmann@@@std@@@std@@YAPBU?$pair@$$CBV?$basic_string@DU?$char_traits@D@std@@V?$allocator@D@2@@std@@V?$basic_json@Vmap@std@@Vvector@2@V?$basic_string@DU?$char_traits@D@std@@V?$allocator@D@2@@2@_N_J_KNVallocator@2@Uadl_serializer@nlohmann@@@nlohmann@@@0@ABU10@@Z 1006efe0 f i KitParser.obj
 0002:00020000       ??$addressof@$$CBV?$_String_val@U?$_Simple_types@D@std@@@std@@@std@@YAPBV?$_String_val@U?$_Simple_types@D@std@@@0@ABV10@@Z 1006f000 f i KitParser.obj
 0002:00020020       ??$addressof@$$CBV?$_Tree_val@U?$_Tree_simple_types@U?$pair@$$CBV?$basic_string@DU?$char_traits@D@std@@V?$allocator@D@2@@std@@V12@@std@@@std@@@std@@@std@@YAPBV?$_Tree_val@U?$_Tree_simple_types@U?$pair@$$CBV?$basic_string@DU?$char_traits@D@std@@V?$allocator@D@2@@std@@V12@@std@@@std@@@0@ABV10@@Z 1006f020 f i KitParser.obj
 0002:00020040       ??$addressof@$$CBV?$_Tree_val@U?$_Tree_simple_types@U?$pair@$$CBV?$basic_string@DU?$char_traits@D@std@@V?$allocator@D@2@@std@@V?$basic_json@Vmap@std@@Vvector@2@V?$basic_string@DU?$char_traits@D@std@@V?$allocator@D@2@@2@_N_J_KNVallocator@2@Uadl_serializer@nlohmann@@@nlohmann@@@std@@@std@@@std@@@std@@YAPBV?$_Tree_val@U?$_Tree_simple_types@U?$pair@$$CBV?$basic_string@DU?$char_traits@D@std@@V?$allocator@D@2@@std@@V?$basic_json@Vmap@std@@Vvector@2@V?$basic_string@DU?$char_traits@D@std@@V?$allocator@D@2@@2@_N_J_KNVallocator@2@Uadl_serializer@nlohmann@@@nlohmann@@@std@@@std@@@0@ABV10@@Z 1006f040 f i KitParser.obj
 0002:00020060       ??$addressof@$$CBV?$_Vector_val@U?$_Simple_types@V?$basic_json@Vmap@std@@Vvector@2@V?$basic_string@DU?$char_traits@D@std@@V?$allocator@D@2@@2@_N_J_KNVallocator@2@Uadl_serializer@nlohmann@@@nlohmann@@@std@@@std@@@std@@YAPBV?$_Vector_val@U?$_Simple_types@V?$basic_json@Vmap@std@@Vvector@2@V?$basic_string@DU?$char_traits@D@std@@V?$allocator@D@2@@2@_N_J_KNVallocator@2@Uadl_serializer@nlohmann@@@nlohmann@@@std@@@0@ABV10@@Z 1006f060 f i KitParser.obj
 0002:00020080       ??$addressof@$$CBV?$basic_string@DU?$char_traits@D@std@@V?$allocator@D@2@@std@@@std@@YAPBV?$basic_string@DU?$char_traits@D@std@@V?$allocator@D@2@@0@ABV10@@Z 1006f080 f i KitParser.obj
 0002:000200a0       ??$addressof@D@std@@YAPADAAD@Z 1006f0a0 f i KitParser.obj
 0002:000200c0       ??$addressof@PAU?$_Tree_node@U?$pair@$$CBV?$basic_string@DU?$char_traits@D@std@@V?$allocator@D@2@@std@@V12@@std@@PAX@std@@@std@@YAPAPAU?$_Tree_node@U?$pair@$$CBV?$basic_string@DU?$char_traits@D@std@@V?$allocator@D@2@@std@@V12@@std@@PAX@0@AAPAU10@@Z 1006f0c0 f i KitParser.obj
 0002:000200e0       ??$addressof@PAU?$_Tree_node@U?$pair@$$CBV?$basic_string@DU?$char_traits@D@std@@V?$allocator@D@2@@std@@V?$basic_json@Vmap@std@@Vvector@2@V?$basic_string@DU?$char_traits@D@std@@V?$allocator@D@2@@2@_N_J_KNVallocator@2@Uadl_serializer@nlohmann@@@nlohmann@@@std@@PAX@std@@@std@@YAPAPAU?$_Tree_node@U?$pair@$$CBV?$basic_string@DU?$char_traits@D@std@@V?$allocator@D@2@@std@@V?$basic_json@Vmap@std@@Vvector@2@V?$basic_string@DU?$char_traits@D@std@@V?$allocator@D@2@@2@_N_J_KNVallocator@2@Uadl_serializer@nlohmann@@@nlohmann@@@std@@PAX@0@AAPAU10@@Z 1006f0e0 f i KitParser.obj
 0002:00020100       ??$addressof@PA_W@std@@YAPAPA_WAAPA_W@Z 1006f100 f i KitParser.obj
 0002:00020120       ??$addressof@U?$pair@$$CBV?$basic_string@DU?$char_traits@D@std@@V?$allocator@D@2@@std@@V12@@std@@@std@@YAPAU?$pair@$$CBV?$basic_string@DU?$char_traits@D@std@@V?$allocator@D@2@@std@@V12@@0@AAU10@@Z 1006f120 f i KitParser.obj
 0002:00020140       ??$addressof@U?$pair@$$CBV?$basic_string@DU?$char_traits@D@std@@V?$allocator@D@2@@std@@V?$basic_json@Vmap@std@@Vvector@2@V?$basic_string@DU?$char_traits@D@std@@V?$allocator@D@2@@2@_N_J_KNVallocator@2@Uadl_serializer@nlohmann@@@nlohmann@@@std@@@std@@YAPAU?$pair@$$CBV?$basic_string@DU?$char_traits@D@std@@V?$allocator@D@2@@std@@V?$basic_json@Vmap@std@@Vvector@2@V?$basic_string@DU?$char_traits@D@std@@V?$allocator@D@2@@2@_N_J_KNVallocator@2@Uadl_serializer@nlohmann@@@nlohmann@@@0@AAU10@@Z 1006f140 f i KitParser.obj
 0002:00020160       ??$addressof@V?$_String_val@U?$_Simple_types@D@std@@@std@@@std@@YAPAV?$_String_val@U?$_Simple_types@D@std@@@0@AAV10@@Z 1006f160 f i KitParser.obj
 0002:00020180       ??$addressof@V?$_Tree_val@U?$_Tree_simple_types@U?$pair@$$CBV?$basic_string@DU?$char_traits@D@std@@V?$allocator@D@2@@std@@V12@@std@@@std@@@std@@@std@@YAPAV?$_Tree_val@U?$_Tree_simple_types@U?$pair@$$CBV?$basic_string@DU?$char_traits@D@std@@V?$allocator@D@2@@std@@V12@@std@@@std@@@0@AAV10@@Z 1006f180 f i KitParser.obj
 0002:000201a0       ??$addressof@V?$_Tree_val@U?$_Tree_simple_types@U?$pair@$$CBV?$basic_string@DU?$char_traits@D@std@@V?$allocator@D@2@@std@@V?$basic_json@Vmap@std@@Vvector@2@V?$basic_string@DU?$char_traits@D@std@@V?$allocator@D@2@@2@_N_J_KNVallocator@2@Uadl_serializer@nlohmann@@@nlohmann@@@std@@@std@@@std@@@std@@YAPAV?$_Tree_val@U?$_Tree_simple_types@U?$pair@$$CBV?$basic_string@DU?$char_traits@D@std@@V?$allocator@D@2@@std@@V?$basic_json@Vmap@std@@Vvector@2@V?$basic_string@DU?$char_traits@D@std@@V?$allocator@D@2@@2@_N_J_KNVallocator@2@Uadl_serializer@nlohmann@@@nlohmann@@@std@@@std@@@0@AAV10@@Z 1006f1a0 f i KitParser.obj
 0002:000201c0       ??$advance@V?$_Tree_const_iterator@V?$_Tree_val@U?$_Tree_simple_types@U?$pair@$$CBV?$basic_string@DU?$char_traits@D@std@@V?$allocator@D@2@@std@@V?$basic_json@Vmap@std@@Vvector@2@V?$basic_string@DU?$char_traits@D@std@@V?$allocator@D@2@@2@_N_J_KNVallocator@2@Uadl_serializer@nlohmann@@@nlohmann@@@std@@@std@@@std@@@std@@H@std@@YAXAAV?$_Tree_const_iterator@V?$_Tree_val@U?$_Tree_simple_types@U?$pair@$$CBV?$basic_string@DU?$char_traits@D@std@@V?$allocator@D@2@@std@@V?$basic_json@Vmap@std@@Vvector@2@V?$basic_string@DU?$char_traits@D@std@@V?$allocator@D@2@@2@_N_J_KNVallocator@2@Uadl_serializer@nlohmann@@@nlohmann@@@std@@@std@@@std@@@0@H@Z 1006f1c0 f i KitParser.obj
 0002:000201f0       ??$begin@V?$map@V?$basic_string@DU?$char_traits@D@std@@V?$allocator@D@2@@std@@V12@U?$less@V?$basic_string@DU?$char_traits@D@std@@V?$allocator@D@2@@std@@@2@V?$allocator@U?$pair@$$CBV?$basic_string@DU?$char_traits@D@std@@V?$allocator@D@2@@std@@V12@@std@@@2@@std@@@std@@YA?AV?$_Tree_const_iterator@V?$_Tree_val@U?$_Tree_simple_types@U?$pair@$$CBV?$basic_string@DU?$char_traits@D@std@@V?$allocator@D@2@@std@@V12@@std@@@std@@@std@@@0@ABV?$map@V?$basic_string@DU?$char_traits@D@std@@V?$allocator@D@2@@std@@V12@U?$less@V?$basic_string@DU?$char_traits@D@std@@V?$allocator@D@2@@std@@@2@V?$allocator@U?$pair@$$CBV?$basic_string@DU?$char_traits@D@std@@V?$allocator@D@2@@std@@V12@@std@@@2@@0@@Z 1006f1f0 f i KitParser.obj
 0002:00020220       ??$call@V?$basic_json@Vmap@std@@Vvector@2@V?$basic_string@DU?$char_traits@D@std@@V?$allocator@D@2@@2@_N_J_KNVallocator@2@Uadl_serializer@nlohmann@@@nlohmann@@AAV?$map@V?$basic_string@DU?$char_traits@D@std@@V?$allocator@D@2@@std@@V12@U?$less@V?$basic_string@DU?$char_traits@D@std@@V?$allocator@D@2@@std@@@2@V?$allocator@U?$pair@$$CBV?$basic_string@DU?$char_traits@D@std@@V?$allocator@D@2@@std@@V12@@std@@@2@@std@@@to_json_fn@detail@nlohmann@@ABEXAAV?$basic_json@Vmap@std@@Vvector@2@V?$basic_string@DU?$char_traits@D@std@@V?$allocator@D@2@@2@_N_J_KNVallocator@2@Uadl_serializer@nlohmann@@@2@AAV?$map@V?$basic_string@DU?$char_traits@D@std@@V?$allocator@D@2@@std@@V12@U?$less@V?$basic_string@DU?$char_traits@D@std@@V?$allocator@D@2@@std@@@2@V?$allocator@U?$pair@$$CBV?$basic_string@DU?$char_traits@D@std@@V?$allocator@D@2@@std@@V12@@std@@@2@@std@@U?$priority_tag@$00@12@@Z 1006f220 f i KitParser.obj
 0002:00020260       ??$call@V?$basic_json@Vmap@std@@Vvector@2@V?$basic_string@DU?$char_traits@D@std@@V?$allocator@D@2@@2@_N_J_KNVallocator@2@Uadl_serializer@nlohmann@@@nlohmann@@ABV?$basic_string@DU?$char_traits@D@std@@V?$allocator@D@2@@std@@@to_json_fn@detail@nlohmann@@ABEXAAV?$basic_json@Vmap@std@@Vvector@2@V?$basic_string@DU?$char_traits@D@std@@V?$allocator@D@2@@2@_N_J_KNVallocator@2@Uadl_serializer@nlohmann@@@2@ABV?$basic_string@DU?$char_traits@D@std@@V?$allocator@D@2@@std@@U?$priority_tag@$00@12@@Z 1006f260 f i KitParser.obj
 0002:000202a0       ??$construct@PAU?$_Tree_node@U?$pair@$$CBV?$basic_string@DU?$char_traits@D@std@@V?$allocator@D@2@@std@@V12@@std@@PAX@std@@AAPAU12@@?$_Default_allocator_traits@V?$allocator@U?$_Tree_node@U?$pair@$$CBV?$basic_string@DU?$char_traits@D@std@@V?$allocator@D@2@@std@@V12@@std@@PAX@std@@@std@@@std@@SAXAAV?$allocator@U?$_Tree_node@U?$pair@$$CBV?$basic_string@DU?$char_traits@D@std@@V?$allocator@D@2@@std@@V12@@std@@PAX@std@@@1@QAPAU?$_Tree_node@U?$pair@$$CBV?$basic_string@DU?$char_traits@D@std@@V?$allocator@D@2@@std@@V12@@std@@PAX@1@AAPAU31@@Z 1006f2a0 f i KitParser.obj
 0002:000202f0       ??$construct@PAU?$_Tree_node@U?$pair@$$CBV?$basic_string@DU?$char_traits@D@std@@V?$allocator@D@2@@std@@V?$basic_json@Vmap@std@@Vvector@2@V?$basic_string@DU?$char_traits@D@std@@V?$allocator@D@2@@2@_N_J_KNVallocator@2@Uadl_serializer@nlohmann@@@nlohmann@@@std@@PAX@std@@AAPAU12@@?$_Default_allocator_traits@V?$allocator@U?$_Tree_node@U?$pair@$$CBV?$basic_string@DU?$char_traits@D@std@@V?$allocator@D@2@@std@@V?$basic_json@Vmap@std@@Vvector@2@V?$basic_string@DU?$char_traits@D@std@@V?$allocator@D@2@@2@_N_J_KNVallocator@2@Uadl_serializer@nlohmann@@@nlohmann@@@std@@PAX@std@@@std@@@std@@SAXAAV?$allocator@U?$_Tree_node@U?$pair@$$CBV?$basic_string@DU?$char_traits@D@std@@V?$allocator@D@2@@std@@V?$basic_json@Vmap@std@@Vvector@2@V?$basic_string@DU?$char_traits@D@std@@V?$allocator@D@2@@2@_N_J_KNVallocator@2@Uadl_serializer@nlohmann@@@nlohmann@@@std@@PAX@std@@@1@QAPAU?$_Tree_node@U?$pair@$$CBV?$basic_string@DU?$char_traits@D@std@@V?$allocator@D@2@@std@@V?$basic_json@Vmap@std@@Vvector@2@V?$basic_string@DU?$char_traits@D@std@@V?$allocator@D@2@@2@_N_J_KNVallocator@2@Uadl_serializer@nlohmann@@@nlohmann@@@std@@PAX@1@AAPAU31@@Z 1006f2f0 f i KitParser.obj
 0002:00020340       ??$construct@U?$pair@$$CBV?$basic_string@DU?$char_traits@D@std@@V?$allocator@D@2@@std@@V12@@std@@ABUpiecewise_construct_t@2@V?$tuple@$$QAV?$basic_string@DU?$char_traits@D@std@@V?$allocator@D@2@@std@@@2@V?$tuple@$$V@2@@?$_Default_allocator_traits@V?$allocator@U?$_Tree_node@U?$pair@$$CBV?$basic_string@DU?$char_traits@D@std@@V?$allocator@D@2@@std@@V12@@std@@PAX@std@@@std@@@std@@SAXAAV?$allocator@U?$_Tree_node@U?$pair@$$CBV?$basic_string@DU?$char_traits@D@std@@V?$allocator@D@2@@std@@V12@@std@@PAX@std@@@1@QAU?$pair@$$CBV?$basic_string@DU?$char_traits@D@std@@V?$allocator@D@2@@std@@V12@@1@ABUpiecewise_construct_t@1@$$QAV?$tuple@$$QAV?$basic_string@DU?$char_traits@D@std@@V?$allocator@D@2@@std@@@1@$$QAV?$tuple@$$V@1@@Z 1006f340 f i KitParser.obj
 0002:00020420       ??$construct@U?$pair@$$CBV?$basic_string@DU?$char_traits@D@std@@V?$allocator@D@2@@std@@V?$basic_json@Vmap@std@@Vvector@2@V?$basic_string@DU?$char_traits@D@std@@V?$allocator@D@2@@2@_N_J_KNVallocator@2@Uadl_serializer@nlohmann@@@nlohmann@@@std@@ABU?$pair@$$CBV?$basic_string@DU?$char_traits@D@std@@V?$allocator@D@2@@std@@V12@@2@@?$_Default_allocator_traits@V?$allocator@U?$_Tree_node@U?$pair@$$CBV?$basic_string@DU?$char_traits@D@std@@V?$allocator@D@2@@std@@V?$basic_json@Vmap@std@@Vvector@2@V?$basic_string@DU?$char_traits@D@std@@V?$allocator@D@2@@2@_N_J_KNVallocator@2@Uadl_serializer@nlohmann@@@nlohmann@@@std@@PAX@std@@@std@@@std@@SAXAAV?$allocator@U?$_Tree_node@U?$pair@$$CBV?$basic_string@DU?$char_traits@D@std@@V?$allocator@D@2@@std@@V?$basic_json@Vmap@std@@Vvector@2@V?$basic_string@DU?$char_traits@D@std@@V?$allocator@D@2@@2@_N_J_KNVallocator@2@Uadl_serializer@nlohmann@@@nlohmann@@@std@@PAX@std@@@1@QAU?$pair@$$CBV?$basic_string@DU?$char_traits@D@std@@V?$allocator@D@2@@std@@V?$basic_json@Vmap@std@@Vvector@2@V?$basic_string@DU?$char_traits@D@std@@V?$allocator@D@2@@2@_N_J_KNVallocator@2@Uadl_serializer@nlohmann@@@nlohmann@@@1@ABU?$pair@$$CBV?$basic_string@DU?$char_traits@D@std@@V?$allocator@D@2@@std@@V12@@1@@Z 1006f420 f i KitParser.obj
 0002:000204b0       ??$construct@V?$basic_json@Vmap@std@@Vvector@2@V?$basic_string@DU?$char_traits@D@std@@V?$allocator@D@2@@2@_N_J_KNVallocator@2@Uadl_serializer@nlohmann@@@nlohmann@@@?$external_constructor@$02@detail@nlohmann@@SAXAAV?$basic_json@Vmap@std@@Vvector@2@V?$basic_string@DU?$char_traits@D@std@@V?$allocator@D@2@@2@_N_J_KNVallocator@2@Uadl_serializer@nlohmann@@@2@ABV?$basic_string@DU?$char_traits@D@std@@V?$allocator@D@2@@std@@@Z 1006f4b0 f i KitParser.obj
 0002:00020500       ??$construct@V?$basic_json@Vmap@std@@Vvector@2@V?$basic_string@DU?$char_traits@D@std@@V?$allocator@D@2@@2@_N_J_KNVallocator@2@Uadl_serializer@nlohmann@@@nlohmann@@V?$map@V?$basic_string@DU?$char_traits@D@std@@V?$allocator@D@2@@std@@V12@U?$less@V?$basic_string@DU?$char_traits@D@std@@V?$allocator@D@2@@std@@@2@V?$allocator@U?$pair@$$CBV?$basic_string@DU?$char_traits@D@std@@V?$allocator@D@2@@std@@V12@@std@@@2@@std@@$0A@@?$external_constructor@$00@detail@nlohmann@@SAXAAV?$basic_json@Vmap@std@@Vvector@2@V?$basic_string@DU?$char_traits@D@std@@V?$allocator@D@2@@2@_N_J_KNVallocator@2@Uadl_serializer@nlohmann@@@2@ABV?$map@V?$basic_string@DU?$char_traits@D@std@@V?$allocator@D@2@@std@@V12@U?$less@V?$basic_string@DU?$char_traits@D@std@@V?$allocator@D@2@@std@@@2@V?$allocator@U?$pair@$$CBV?$basic_string@DU?$char_traits@D@std@@V?$allocator@D@2@@std@@V12@@std@@@2@@std@@@Z 1006f500 f i KitParser.obj
 0002:00020570       ??$construct@V?$basic_string@DU?$char_traits@D@std@@V?$allocator@D@2@@std@@ABV12@@?$_Default_allocator_traits@V?$allocator@V?$basic_string@DU?$char_traits@D@std@@V?$allocator@D@2@@std@@@std@@@std@@SAXAAV?$allocator@V?$basic_string@DU?$char_traits@D@std@@V?$allocator@D@2@@std@@@1@QAV?$basic_string@DU?$char_traits@D@std@@V?$allocator@D@2@@1@ABV31@@Z 1006f570 f i KitParser.obj
 0002:00020600       ??$construct@V?$map@V?$basic_string@DU?$char_traits@D@std@@V?$allocator@D@2@@std@@V?$basic_json@Vmap@std@@Vvector@2@V?$basic_string@DU?$char_traits@D@std@@V?$allocator@D@2@@2@_N_J_KNVallocator@2@Uadl_serializer@nlohmann@@@nlohmann@@U?$less@V?$basic_string@DU?$char_traits@D@std@@V?$allocator@D@2@@std@@@2@V?$allocator@U?$pair@$$CBV?$basic_string@DU?$char_traits@D@std@@V?$allocator@D@2@@std@@V?$basic_json@Vmap@std@@Vvector@2@V?$basic_string@DU?$char_traits@D@std@@V?$allocator@D@2@@2@_N_J_KNVallocator@2@Uadl_serializer@nlohmann@@@nlohmann@@@std@@@2@@std@@V?$_Tree_const_iterator@V?$_Tree_val@U?$_Tree_simple_types@U?$pair@$$CBV?$basic_string@DU?$char_traits@D@std@@V?$allocator@D@2@@std@@V12@@std@@@std@@@std@@@2@V32@@?$_Default_allocator_traits@V?$allocator@V?$map@V?$basic_string@DU?$char_traits@D@std@@V?$allocator@D@2@@std@@V?$basic_json@Vmap@std@@Vvector@2@V?$basic_string@DU?$char_traits@D@std@@V?$allocator@D@2@@2@_N_J_KNVallocator@2@Uadl_serializer@nlohmann@@@nlohmann@@U?$less@V?$basic_string@DU?$char_traits@D@std@@V?$allocator@D@2@@std@@@2@V?$allocator@U?$pair@$$CBV?$basic_string@DU?$char_traits@D@std@@V?$allocator@D@2@@std@@V?$basic_json@Vmap@std@@Vvector@2@V?$basic_string@DU?$char_traits@D@std@@V?$allocator@D@2@@2@_N_J_KNVallocator@2@Uadl_serializer@nlohmann@@@nlohmann@@@std@@@2@@std@@@std@@@std@@SAXAAV?$allocator@V?$map@V?$basic_string@DU?$char_traits@D@std@@V?$allocator@D@2@@std@@V?$basic_json@Vmap@std@@Vvector@2@V?$basic_string@DU?$char_traits@D@std@@V?$allocator@D@2@@2@_N_J_KNVallocator@2@Uadl_serializer@nlohmann@@@nlohmann@@U?$less@V?$basic_string@DU?$char_traits@D@std@@V?$allocator@D@2@@std@@@2@V?$allocator@U?$pair@$$CBV?$basic_string@DU?$char_traits@D@std@@V?$allocator@D@2@@std@@V?$basic_json@Vmap@std@@Vvector@2@V?$basic_string@DU?$char_traits@D@std@@V?$allocator@D@2@@2@_N_J_KNVallocator@2@Uadl_serializer@nlohmann@@@nlohmann@@@std@@@2@@std@@@1@QAV?$map@V?$basic_string@DU?$char_traits@D@std@@V?$allocator@D@2@@std@@V?$basic_json@Vmap@std@@Vvector@2@V?$basic_string@DU?$char_traits@D@std@@V?$allocator@D@2@@2@_N_J_KNVallocator@2@Uadl_serializer@nlohmann@@@nlohmann@@U?$less@V?$basic_string@DU?$char_traits@D@std@@V?$allocator@D@2@@std@@@2@V?$allocator@U?$pair@$$CBV?$basic_string@DU?$char_traits@D@std@@V?$allocator@D@2@@std@@V?$basic_json@Vmap@std@@Vvector@2@V?$basic_string@DU?$char_traits@D@std@@V?$allocator@D@2@@2@_N_J_KNVallocator@2@Uadl_serializer@nlohmann@@@nlohmann@@@std@@@2@@1@$$QAV?$_Tree_const_iterator@V?$_Tree_val@U?$_Tree_simple_types@U?$pair@$$CBV?$basic_string@DU?$char_traits@D@std@@V?$allocator@D@2@@std@@V12@@std@@@std@@@std@@@1@2@Z 1006f600 f i KitParser.obj
 0002:000206b0       ??$create@V?$basic_string@DU?$char_traits@D@std@@V?$allocator@D@2@@std@@ABV12@@?$basic_json@Vmap@std@@Vvector@2@V?$basic_string@DU?$char_traits@D@std@@V?$allocator@D@2@@2@_N_J_KNVallocator@2@Uadl_serializer@nlohmann@@@nlohmann@@CAPAV?$basic_string@DU?$char_traits@D@std@@V?$allocator@D@2@@std@@ABV23@@Z 1006f6b0 f i KitParser.obj
 0002:000207e0       ??$create@V?$map@V?$basic_string@DU?$char_traits@D@std@@V?$allocator@D@2@@std@@V?$basic_json@Vmap@std@@Vvector@2@V?$basic_string@DU?$char_traits@D@std@@V?$allocator@D@2@@2@_N_J_KNVallocator@2@Uadl_serializer@nlohmann@@@nlohmann@@U?$less@V?$basic_string@DU?$char_traits@D@std@@V?$allocator@D@2@@std@@@2@V?$allocator@U?$pair@$$CBV?$basic_string@DU?$char_traits@D@std@@V?$allocator@D@2@@std@@V?$basic_json@Vmap@std@@Vvector@2@V?$basic_string@DU?$char_traits@D@std@@V?$allocator@D@2@@2@_N_J_KNVallocator@2@Uadl_serializer@nlohmann@@@nlohmann@@@std@@@2@@std@@V?$_Tree_const_iterator@V?$_Tree_val@U?$_Tree_simple_types@U?$pair@$$CBV?$basic_string@DU?$char_traits@D@std@@V?$allocator@D@2@@std@@V12@@std@@@std@@@std@@@2@V32@@?$basic_json@Vmap@std@@Vvector@2@V?$basic_string@DU?$char_traits@D@std@@V?$allocator@D@2@@2@_N_J_KNVallocator@2@Uadl_serializer@nlohmann@@@nlohmann@@CAPAV?$map@V?$basic_string@DU?$char_traits@D@std@@V?$allocator@D@2@@std@@V?$basic_json@Vmap@std@@Vvector@2@V?$basic_string@DU?$char_traits@D@std@@V?$allocator@D@2@@2@_N_J_KNVallocator@2@Uadl_serializer@nlohmann@@@nlohmann@@U?$less@V?$basic_string@DU?$char_traits@D@std@@V?$allocator@D@2@@std@@@2@V?$allocator@U?$pair@$$CBV?$basic_string@DU?$char_traits@D@std@@V?$allocator@D@2@@std@@V?$basic_json@Vmap@std@@Vvector@2@V?$basic_string@DU?$char_traits@D@std@@V?$allocator@D@2@@2@_N_J_KNVallocator@2@Uadl_serializer@nlohmann@@@nlohmann@@@std@@@2@@std@@$$QAV?$_Tree_const_iterator@V?$_Tree_val@U?$_Tree_simple_types@U?$pair@$$CBV?$basic_string@DU?$char_traits@D@std@@V?$allocator@D@2@@std@@V12@@std@@@std@@@std@@@3@0@Z 1006f7e0 f i KitParser.obj
 0002:00020920       ??$destroy@PAU?$_Tree_node@U?$pair@$$CBV?$basic_string@DU?$char_traits@D@std@@V?$allocator@D@2@@std@@V12@@std@@PAX@std@@@?$_Default_allocator_traits@V?$allocator@U?$_Tree_node@U?$pair@$$CBV?$basic_string@DU?$char_traits@D@std@@V?$allocator@D@2@@std@@V12@@std@@PAX@std@@@std@@@std@@SAXAAV?$allocator@U?$_Tree_node@U?$pair@$$CBV?$basic_string@DU?$char_traits@D@std@@V?$allocator@D@2@@std@@V12@@std@@PAX@std@@@1@QAPAU?$_Tree_node@U?$pair@$$CBV?$basic_string@DU?$char_traits@D@std@@V?$allocator@D@2@@std@@V12@@std@@PAX@1@@Z 1006f920 f i KitParser.obj
 0002:00020940       ??$destroy@PAU?$_Tree_node@U?$pair@$$CBV?$basic_string@DU?$char_traits@D@std@@V?$allocator@D@2@@std@@V?$basic_json@Vmap@std@@Vvector@2@V?$basic_string@DU?$char_traits@D@std@@V?$allocator@D@2@@2@_N_J_KNVallocator@2@Uadl_serializer@nlohmann@@@nlohmann@@@std@@PAX@std@@@?$_Default_allocator_traits@V?$allocator@U?$_Tree_node@U?$pair@$$CBV?$basic_string@DU?$char_traits@D@std@@V?$allocator@D@2@@std@@V?$basic_json@Vmap@std@@Vvector@2@V?$basic_string@DU?$char_traits@D@std@@V?$allocator@D@2@@2@_N_J_KNVallocator@2@Uadl_serializer@nlohmann@@@nlohmann@@@std@@PAX@std@@@std@@@std@@SAXAAV?$allocator@U?$_Tree_node@U?$pair@$$CBV?$basic_string@DU?$char_traits@D@std@@V?$allocator@D@2@@std@@V?$basic_json@Vmap@std@@Vvector@2@V?$basic_string@DU?$char_traits@D@std@@V?$allocator@D@2@@2@_N_J_KNVallocator@2@Uadl_serializer@nlohmann@@@nlohmann@@@std@@PAX@std@@@1@QAPAU?$_Tree_node@U?$pair@$$CBV?$basic_string@DU?$char_traits@D@std@@V?$allocator@D@2@@std@@V?$basic_json@Vmap@std@@Vvector@2@V?$basic_string@DU?$char_traits@D@std@@V?$allocator@D@2@@2@_N_J_KNVallocator@2@Uadl_serializer@nlohmann@@@nlohmann@@@std@@PAX@1@@Z 1006f940 f i KitParser.obj
 0002:00020960       ??$destroy@PA_W@?$_Default_allocator_traits@V?$allocator@_W@std@@@std@@SAXAAV?$allocator@_W@1@QAPA_W@Z 1006f960 f i KitParser.obj
 0002:00020980       ??$destroy@U?$pair@$$CBV?$basic_string@DU?$char_traits@D@std@@V?$allocator@D@2@@std@@V12@@std@@@?$_Default_allocator_traits@V?$allocator@U?$_Tree_node@U?$pair@$$CBV?$basic_string@DU?$char_traits@D@std@@V?$allocator@D@2@@std@@V12@@std@@PAX@std@@@std@@@std@@SAXAAV?$allocator@U?$_Tree_node@U?$pair@$$CBV?$basic_string@DU?$char_traits@D@std@@V?$allocator@D@2@@std@@V12@@std@@PAX@std@@@1@QAU?$pair@$$CBV?$basic_string@DU?$char_traits@D@std@@V?$allocator@D@2@@std@@V12@@1@@Z 1006f980 f i KitParser.obj
 0002:000209a0       ??$destroy@U?$pair@$$CBV?$basic_string@DU?$char_traits@D@std@@V?$allocator@D@2@@std@@V?$basic_json@Vmap@std@@Vvector@2@V?$basic_string@DU?$char_traits@D@std@@V?$allocator@D@2@@2@_N_J_KNVallocator@2@Uadl_serializer@nlohmann@@@nlohmann@@@std@@@?$_Default_allocator_traits@V?$allocator@U?$_Tree_node@U?$pair@$$CBV?$basic_string@DU?$char_traits@D@std@@V?$allocator@D@2@@std@@V?$basic_json@Vmap@std@@Vvector@2@V?$basic_string@DU?$char_traits@D@std@@V?$allocator@D@2@@2@_N_J_KNVallocator@2@Uadl_serializer@nlohmann@@@nlohmann@@@std@@PAX@std@@@std@@@std@@SAXAAV?$allocator@U?$_Tree_node@U?$pair@$$CBV?$basic_string@DU?$char_traits@D@std@@V?$allocator@D@2@@std@@V?$basic_json@Vmap@std@@Vvector@2@V?$basic_string@DU?$char_traits@D@std@@V?$allocator@D@2@@2@_N_J_KNVallocator@2@Uadl_serializer@nlohmann@@@nlohmann@@@std@@PAX@std@@@1@QAU?$pair@$$CBV?$basic_string@DU?$char_traits@D@std@@V?$allocator@D@2@@std@@V?$basic_json@Vmap@std@@Vvector@2@V?$basic_string@DU?$char_traits@D@std@@V?$allocator@D@2@@2@_N_J_KNVallocator@2@Uadl_serializer@nlohmann@@@nlohmann@@@1@@Z 1006f9a0 f i KitParser.obj
 0002:000209c0       ??$destroy@V?$basic_json@Vmap@std@@Vvector@2@V?$basic_string@DU?$char_traits@D@std@@V?$allocator@D@2@@2@_N_J_KNVallocator@2@Uadl_serializer@nlohmann@@@nlohmann@@@?$_Default_allocator_traits@V?$allocator@V?$basic_json@Vmap@std@@Vvector@2@V?$basic_string@DU?$char_traits@D@std@@V?$allocator@D@2@@2@_N_J_KNVallocator@2@Uadl_serializer@nlohmann@@@nlohmann@@@std@@@std@@SAXAAV?$allocator@V?$basic_json@Vmap@std@@Vvector@2@V?$basic_string@DU?$char_traits@D@std@@V?$allocator@D@2@@2@_N_J_KNVallocator@2@Uadl_serializer@nlohmann@@@nlohmann@@@1@QAV?$basic_json@Vmap@std@@Vvector@2@V?$basic_string@DU?$char_traits@D@std@@V?$allocator@D@2@@2@_N_J_KNVallocator@2@Uadl_serializer@nlohmann@@@nlohmann@@@Z 1006f9c0 f i KitParser.obj
 0002:000209e0       ??$destroy@V?$basic_string@DU?$char_traits@D@std@@V?$allocator@D@2@@std@@@?$_Default_allocator_traits@V?$allocator@V?$basic_string@DU?$char_traits@D@std@@V?$allocator@D@2@@std@@@std@@@std@@SAXAAV?$allocator@V?$basic_string@DU?$char_traits@D@std@@V?$allocator@D@2@@std@@@1@QAV?$basic_string@DU?$char_traits@D@std@@V?$allocator@D@2@@1@@Z 1006f9e0 f i KitParser.obj
 0002:00020a00       ??$destroy@V?$map@V?$basic_string@DU?$char_traits@D@std@@V?$allocator@D@2@@std@@V?$basic_json@Vmap@std@@Vvector@2@V?$basic_string@DU?$char_traits@D@std@@V?$allocator@D@2@@2@_N_J_KNVallocator@2@Uadl_serializer@nlohmann@@@nlohmann@@U?$less@V?$basic_string@DU?$char_traits@D@std@@V?$allocator@D@2@@std@@@2@V?$allocator@U?$pair@$$CBV?$basic_string@DU?$char_traits@D@std@@V?$allocator@D@2@@std@@V?$basic_json@Vmap@std@@Vvector@2@V?$basic_string@DU?$char_traits@D@std@@V?$allocator@D@2@@2@_N_J_KNVallocator@2@Uadl_serializer@nlohmann@@@nlohmann@@@std@@@2@@std@@@?$_Default_allocator_traits@V?$allocator@V?$map@V?$basic_string@DU?$char_traits@D@std@@V?$allocator@D@2@@std@@V?$basic_json@Vmap@std@@Vvector@2@V?$basic_string@DU?$char_traits@D@std@@V?$allocator@D@2@@2@_N_J_KNVallocator@2@Uadl_serializer@nlohmann@@@nlohmann@@U?$less@V?$basic_string@DU?$char_traits@D@std@@V?$allocator@D@2@@std@@@2@V?$allocator@U?$pair@$$CBV?$basic_string@DU?$char_traits@D@std@@V?$allocator@D@2@@std@@V?$basic_json@Vmap@std@@Vvector@2@V?$basic_string@DU?$char_traits@D@std@@V?$allocator@D@2@@2@_N_J_KNVallocator@2@Uadl_serializer@nlohmann@@@nlohmann@@@std@@@2@@std@@@std@@@std@@SAXAAV?$allocator@V?$map@V?$basic_string@DU?$char_traits@D@std@@V?$allocator@D@2@@std@@V?$basic_json@Vmap@std@@Vvector@2@V?$basic_string@DU?$char_traits@D@std@@V?$allocator@D@2@@2@_N_J_KNVallocator@2@Uadl_serializer@nlohmann@@@nlohmann@@U?$less@V?$basic_string@DU?$char_traits@D@std@@V?$allocator@D@2@@std@@@2@V?$allocator@U?$pair@$$CBV?$basic_string@DU?$char_traits@D@std@@V?$allocator@D@2@@std@@V?$basic_json@Vmap@std@@Vvector@2@V?$basic_string@DU?$char_traits@D@std@@V?$allocator@D@2@@2@_N_J_KNVallocator@2@Uadl_serializer@nlohmann@@@nlohmann@@@std@@@2@@std@@@1@QAV?$map@V?$basic_string@DU?$char_traits@D@std@@V?$allocator@D@2@@std@@V?$basic_json@Vmap@std@@Vvector@2@V?$basic_string@DU?$char_traits@D@std@@V?$allocator@D@2@@2@_N_J_KNVallocator@2@Uadl_serializer@nlohmann@@@nlohmann@@U?$less@V?$basic_string@DU?$char_traits@D@std@@V?$allocator@D@2@@std@@@2@V?$allocator@U?$pair@$$CBV?$basic_string@DU?$char_traits@D@std@@V?$allocator@D@2@@std@@V?$basic_json@Vmap@std@@Vvector@2@V?$basic_string@DU?$char_traits@D@std@@V?$allocator@D@2@@2@_N_J_KNVallocator@2@Uadl_serializer@nlohmann@@@nlohmann@@@std@@@2@@1@@Z 1006fa00 f i KitParser.obj
 0002:00020a20       ??$destroy@V?$vector@V?$basic_json@Vmap@std@@Vvector@2@V?$basic_string@DU?$char_traits@D@std@@V?$allocator@D@2@@2@_N_J_KNVallocator@2@Uadl_serializer@nlohmann@@@nlohmann@@V?$allocator@V?$basic_json@Vmap@std@@Vvector@2@V?$basic_string@DU?$char_traits@D@std@@V?$allocator@D@2@@2@_N_J_KNVallocator@2@Uadl_serializer@nlohmann@@@nlohmann@@@std@@@std@@@?$_Default_allocator_traits@V?$allocator@V?$vector@V?$basic_json@Vmap@std@@Vvector@2@V?$basic_string@DU?$char_traits@D@std@@V?$allocator@D@2@@2@_N_J_KNVallocator@2@Uadl_serializer@nlohmann@@@nlohmann@@V?$allocator@V?$basic_json@Vmap@std@@Vvector@2@V?$basic_string@DU?$char_traits@D@std@@V?$allocator@D@2@@2@_N_J_KNVallocator@2@Uadl_serializer@nlohmann@@@nlohmann@@@std@@@std@@@std@@@std@@SAXAAV?$allocator@V?$vector@V?$basic_json@Vmap@std@@Vvector@2@V?$basic_string@DU?$char_traits@D@std@@V?$allocator@D@2@@2@_N_J_KNVallocator@2@Uadl_serializer@nlohmann@@@nlohmann@@V?$allocator@V?$basic_json@Vmap@std@@Vvector@2@V?$basic_string@DU?$char_traits@D@std@@V?$allocator@D@2@@2@_N_J_KNVallocator@2@Uadl_serializer@nlohmann@@@nlohmann@@@std@@@std@@@1@QAV?$vector@V?$basic_json@Vmap@std@@Vvector@2@V?$basic_string@DU?$char_traits@D@std@@V?$allocator@D@2@@2@_N_J_KNVallocator@2@Uadl_serializer@nlohmann@@@nlohmann@@V?$allocator@V?$basic_json@Vmap@std@@Vvector@2@V?$basic_string@DU?$char_traits@D@std@@V?$allocator@D@2@@2@_N_J_KNVallocator@2@Uadl_serializer@nlohmann@@@nlohmann@@@std@@@1@@Z 1006fa20 f i KitParser.obj
 0002:00020a40       ??$dump_integer@_J$0A@@?$serializer@V?$basic_json@Vmap@std@@Vvector@2@V?$basic_string@DU?$char_traits@D@std@@V?$allocator@D@2@@2@_N_J_KNVallocator@2@Uadl_serializer@nlohmann@@@nlohmann@@@detail@nlohmann@@AAEX_J@Z 1006fa40 f i KitParser.obj
 0002:00020c70       ??$dump_integer@_K$0A@@?$serializer@V?$basic_json@Vmap@std@@Vvector@2@V?$basic_string@DU?$char_traits@D@std@@V?$allocator@D@2@@2@_N_J_KNVallocator@2@Uadl_serializer@nlohmann@@@nlohmann@@@detail@nlohmann@@AAEX_K@Z 1006fc70 f i KitParser.obj
 0002:00020ea0       ??$emplace_hint@ABU?$pair@$$CBV?$basic_string@DU?$char_traits@D@std@@V?$allocator@D@2@@std@@V12@@std@@@?$_Tree@V?$_Tmap_traits@V?$basic_string@DU?$char_traits@D@std@@V?$allocator@D@2@@std@@V?$basic_json@Vmap@std@@Vvector@2@V?$basic_string@DU?$char_traits@D@std@@V?$allocator@D@2@@2@_N_J_KNVallocator@2@Uadl_serializer@nlohmann@@@nlohmann@@U?$less@V?$basic_string@DU?$char_traits@D@std@@V?$allocator@D@2@@std@@@2@V?$allocator@U?$pair@$$CBV?$basic_string@DU?$char_traits@D@std@@V?$allocator@D@2@@std@@V?$basic_json@Vmap@std@@Vvector@2@V?$basic_string@DU?$char_traits@D@std@@V?$allocator@D@2@@2@_N_J_KNVallocator@2@Uadl_serializer@nlohmann@@@nlohmann@@@std@@@2@$0A@@std@@@std@@QAE?AV?$_Tree_iterator@V?$_Tree_val@U?$_Tree_simple_types@U?$pair@$$CBV?$basic_string@DU?$char_traits@D@std@@V?$allocator@D@2@@std@@V?$basic_json@Vmap@std@@Vvector@2@V?$basic_string@DU?$char_traits@D@std@@V?$allocator@D@2@@2@_N_J_KNVallocator@2@Uadl_serializer@nlohmann@@@nlohmann@@@std@@@std@@@std@@@1@V?$_Tree_const_iterator@V?$_Tree_val@U?$_Tree_simple_types@U?$pair@$$CBV?$basic_string@DU?$char_traits@D@std@@V?$allocator@D@2@@std@@V?$basic_json@Vmap@std@@Vvector@2@V?$basic_string@DU?$char_traits@D@std@@V?$allocator@D@2@@2@_N_J_KNVallocator@2@Uadl_serializer@nlohmann@@@nlohmann@@@std@@@std@@@std@@@1@ABU?$pair@$$CBV?$basic_string@DU?$char_traits@D@std@@V?$allocator@D@2@@std@@V12@@1@@Z 1006fea0 f i KitParser.obj
 0002:00020f00       ??$emplace_hint@ABUpiecewise_construct_t@std@@V?$tuple@$$QAV?$basic_string@DU?$char_traits@D@std@@V?$allocator@D@2@@std@@@2@V?$tuple@$$V@2@@?$_Tree@V?$_Tmap_traits@V?$basic_string@DU?$char_traits@D@std@@V?$allocator@D@2@@std@@V12@U?$less@V?$basic_string@DU?$char_traits@D@std@@V?$allocator@D@2@@std@@@2@V?$allocator@U?$pair@$$CBV?$basic_string@DU?$char_traits@D@std@@V?$allocator@D@2@@std@@V12@@std@@@2@$0A@@std@@@std@@QAE?AV?$_Tree_iterator@V?$_Tree_val@U?$_Tree_simple_types@U?$pair@$$CBV?$basic_string@DU?$char_traits@D@std@@V?$allocator@D@2@@std@@V12@@std@@@std@@@std@@@1@V?$_Tree_const_iterator@V?$_Tree_val@U?$_Tree_simple_types@U?$pair@$$CBV?$basic_string@DU?$char_traits@D@std@@V?$allocator@D@2@@std@@V12@@std@@@std@@@std@@@1@ABUpiecewise_construct_t@1@$$QAV?$tuple@$$QAV?$basic_string@DU?$char_traits@D@std@@V?$allocator@D@2@@std@@@1@$$QAV?$tuple@$$V@1@@Z 1006ff00 f i KitParser.obj
 0002:00020f80       ??$end@D$0BF@@std@@YAPADAAY0BF@D@Z 1006ff80 f i KitParser.obj
 0002:00020fa0       ??$end@V?$map@V?$basic_string@DU?$char_traits@D@std@@V?$allocator@D@2@@std@@V12@U?$less@V?$basic_string@DU?$char_traits@D@std@@V?$allocator@D@2@@std@@@2@V?$allocator@U?$pair@$$CBV?$basic_string@DU?$char_traits@D@std@@V?$allocator@D@2@@std@@V12@@std@@@2@@std@@@std@@YA?AV?$_Tree_const_iterator@V?$_Tree_val@U?$_Tree_simple_types@U?$pair@$$CBV?$basic_string@DU?$char_traits@D@std@@V?$allocator@D@2@@std@@V12@@std@@@std@@@std@@@0@ABV?$map@V?$basic_string@DU?$char_traits@D@std@@V?$allocator@D@2@@std@@V12@U?$less@V?$basic_string@DU?$char_traits@D@std@@V?$allocator@D@2@@std@@@2@V?$allocator@U?$pair@$$CBV?$basic_string@DU?$char_traits@D@std@@V?$allocator@D@2@@std@@V12@@std@@@2@@0@@Z 1006ffa0 f i KitParser.obj
 0002:00020fd0       ??$endl@DU?$char_traits@D@std@@@std@@YAAAV?$basic_ostream@DU?$char_traits@D@std@@@0@AAV10@@Z 1006ffd0 f i KitParser.obj
 0002:00021020       ??$fill@V?$_Array_iterator@D$0EA@@std@@D@std@@YAXV?$_Array_iterator@D$0EA@@0@0ABD@Z 10070020 f i KitParser.obj
 0002:00021070       ??$find@V?$_Array_iterator@D$0EA@@std@@D@std@@YA?AV?$_Array_iterator@D$0EA@@0@V10@V10@ABD@Z 10070070 f i KitParser.obj
 0002:000210d0       ??$forward@$$QAV?$basic_string@DU?$char_traits@D@std@@V?$allocator@D@2@@std@@@std@@YA$$QAV?$basic_string@DU?$char_traits@D@std@@V?$allocator@D@2@@0@AAV10@@Z 100700d0 f i KitParser.obj
 0002:000210f0       ??$forward@AAPAU?$_Tree_node@U?$pair@$$CBV?$basic_string@DU?$char_traits@D@std@@V?$allocator@D@2@@std@@V12@@std@@PAX@std@@@std@@YAAAPAU?$_Tree_node@U?$pair@$$CBV?$basic_string@DU?$char_traits@D@std@@V?$allocator@D@2@@std@@V12@@std@@PAX@0@AAPAU10@@Z 100700f0 f i KitParser.obj
 0002:00021110       ??$forward@AAPAU?$_Tree_node@U?$pair@$$CBV?$basic_string@DU?$char_traits@D@std@@V?$allocator@D@2@@std@@V?$basic_json@Vmap@std@@Vvector@2@V?$basic_string@DU?$char_traits@D@std@@V?$allocator@D@2@@2@_N_J_KNVallocator@2@Uadl_serializer@nlohmann@@@nlohmann@@@std@@PAX@std@@@std@@YAAAPAU?$_Tree_node@U?$pair@$$CBV?$basic_string@DU?$char_traits@D@std@@V?$allocator@D@2@@std@@V?$basic_json@Vmap@std@@Vvector@2@V?$basic_string@DU?$char_traits@D@std@@V?$allocator@D@2@@2@_N_J_KNVallocator@2@Uadl_serializer@nlohmann@@@nlohmann@@@std@@PAX@0@AAPAU10@@Z 10070110 f i KitParser.obj
 0002:00021130       ??$forward@AAPAV?$basic_string@DU?$char_traits@D@std@@V?$allocator@D@2@@std@@@std@@YAAAPAV?$basic_string@DU?$char_traits@D@std@@V?$allocator@D@2@@0@AAPAV10@@Z 10070130 f i KitParser.obj
 0002:00021150       ??$forward@AAPAV?$map@V?$basic_string@DU?$char_traits@D@std@@V?$allocator@D@2@@std@@V?$basic_json@Vmap@std@@Vvector@2@V?$basic_string@DU?$char_traits@D@std@@V?$allocator@D@2@@2@_N_J_KNVallocator@2@Uadl_serializer@nlohmann@@@nlohmann@@U?$less@V?$basic_string@DU?$char_traits@D@std@@V?$allocator@D@2@@std@@@2@V?$allocator@U?$pair@$$CBV?$basic_string@DU?$char_traits@D@std@@V?$allocator@D@2@@std@@V?$basic_json@Vmap@std@@Vvector@2@V?$basic_string@DU?$char_traits@D@std@@V?$allocator@D@2@@2@_N_J_KNVallocator@2@Uadl_serializer@nlohmann@@@nlohmann@@@std@@@2@@std@@@std@@YAAAPAV?$map@V?$basic_string@DU?$char_traits@D@std@@V?$allocator@D@2@@std@@V?$basic_json@Vmap@std@@Vvector@2@V?$basic_string@DU?$char_traits@D@std@@V?$allocator@D@2@@2@_N_J_KNVallocator@2@Uadl_serializer@nlohmann@@@nlohmann@@U?$less@V?$basic_string@DU?$char_traits@D@std@@V?$allocator@D@2@@std@@@2@V?$allocator@U?$pair@$$CBV?$basic_string@DU?$char_traits@D@std@@V?$allocator@D@2@@std@@V?$basic_json@Vmap@std@@Vvector@2@V?$basic_string@DU?$char_traits@D@std@@V?$allocator@D@2@@2@_N_J_KNVallocator@2@Uadl_serializer@nlohmann@@@nlohmann@@@std@@@2@@0@AAPAV10@@Z 10070150 f i KitParser.obj
 0002:00021170       ??$forward@AAU?$pair@$$CBV?$basic_string@DU?$char_traits@D@std@@V?$allocator@D@2@@std@@V12@@std@@@std@@YAAAU?$pair@$$CBV?$basic_string@DU?$char_traits@D@std@@V?$allocator@D@2@@std@@V12@@0@AAU10@@Z 10070170 f i KitParser.obj
 0002:00021190       ??$forward@AAU?$pair@$$CBV?$basic_string@DU?$char_traits@D@std@@V?$allocator@D@2@@std@@V?$basic_json@Vmap@std@@Vvector@2@V?$basic_string@DU?$char_traits@D@std@@V?$allocator@D@2@@2@_N_J_KNVallocator@2@Uadl_serializer@nlohmann@@@nlohmann@@@std@@@std@@YAAAU?$pair@$$CBV?$basic_string@DU?$char_traits@D@std@@V?$allocator@D@2@@std@@V?$basic_json@Vmap@std@@Vvector@2@V?$basic_string@DU?$char_traits@D@std@@V?$allocator@D@2@@2@_N_J_KNVallocator@2@Uadl_serializer@nlohmann@@@nlohmann@@@0@AAU10@@Z 10070190 f i KitParser.obj
 0002:000211b0       ??$forward@AAV?$_Tree_iterator@V?$_Tree_val@U?$_Tree_simple_types@U?$pair@$$CBV?$basic_string@DU?$char_traits@D@std@@V?$allocator@D@2@@std@@V12@@std@@@std@@@std@@@std@@@std@@YAAAV?$_Tree_iterator@V?$_Tree_val@U?$_Tree_simple_types@U?$pair@$$CBV?$basic_string@DU?$char_traits@D@std@@V?$allocator@D@2@@std@@V12@@std@@@std@@@std@@@0@AAV10@@Z 100701b0 f i KitParser.obj
 0002:000211d0       ??$forward@AAV?$_Tree_iterator@V?$_Tree_val@U?$_Tree_simple_types@U?$pair@$$CBV?$basic_string@DU?$char_traits@D@std@@V?$allocator@D@2@@std@@V?$basic_json@Vmap@std@@Vvector@2@V?$basic_string@DU?$char_traits@D@std@@V?$allocator@D@2@@2@_N_J_KNVallocator@2@Uadl_serializer@nlohmann@@@nlohmann@@@std@@@std@@@std@@@std@@@std@@YAAAV?$_Tree_iterator@V?$_Tree_val@U?$_Tree_simple_types@U?$pair@$$CBV?$basic_string@DU?$char_traits@D@std@@V?$allocator@D@2@@std@@V?$basic_json@Vmap@std@@Vvector@2@V?$basic_string@DU?$char_traits@D@std@@V?$allocator@D@2@@2@_N_J_KNVallocator@2@Uadl_serializer@nlohmann@@@nlohmann@@@std@@@std@@@std@@@0@AAV10@@Z 100701d0 f i KitParser.obj
 0002:000211f0       ??$forward@AAV?$basic_ostream@DU?$char_traits@D@std@@@std@@@std@@YAAAV?$basic_ostream@DU?$char_traits@D@std@@@0@AAV10@@Z 100701f0 f i KitParser.obj
 0002:00021210       ??$forward@AAV?$map@V?$basic_string@DU?$char_traits@D@std@@V?$allocator@D@2@@std@@V12@U?$less@V?$basic_string@DU?$char_traits@D@std@@V?$allocator@D@2@@std@@@2@V?$allocator@U?$pair@$$CBV?$basic_string@DU?$char_traits@D@std@@V?$allocator@D@2@@std@@V12@@std@@@2@@std@@@std@@YAAAV?$map@V?$basic_string@DU?$char_traits@D@std@@V?$allocator@D@2@@std@@V12@U?$less@V?$basic_string@DU?$char_traits@D@std@@V?$allocator@D@2@@std@@@2@V?$allocator@U?$pair@$$CBV?$basic_string@DU?$char_traits@D@std@@V?$allocator@D@2@@std@@V12@@std@@@2@@0@AAV10@@Z 10070210 f i KitParser.obj
 0002:00021230       ??$forward@ABU?$less@V?$basic_string@DU?$char_traits@D@std@@V?$allocator@D@2@@std@@@std@@@std@@YAABU?$less@V?$basic_string@DU?$char_traits@D@std@@V?$allocator@D@2@@std@@@0@ABU10@@Z 10070230 f i KitParser.obj
 0002:00021250       ??$forward@ABU?$pair@$$CBV?$basic_string@DU?$char_traits@D@std@@V?$allocator@D@2@@std@@V12@@std@@@std@@YAABU?$pair@$$CBV?$basic_string@DU?$char_traits@D@std@@V?$allocator@D@2@@std@@V12@@0@ABU10@@Z 10070250 f i KitParser.obj
 0002:00021270       ??$forward@ABUpiecewise_construct_t@std@@@std@@YAABUpiecewise_construct_t@0@ABU10@@Z 10070270 f i KitParser.obj
 0002:000212d0       ??$forward@ABV?$allocator@D@std@@@std@@YAABV?$allocator@D@0@ABV10@@Z 100702d0 f i KitParser.obj
 0002:000212f0       ??$forward@ABV?$basic_string@DU?$char_traits@D@std@@V?$allocator@D@2@@std@@@std@@YAABV?$basic_string@DU?$char_traits@D@std@@V?$allocator@D@2@@0@ABV10@@Z 100702f0 f i KitParser.obj
 0002:00021310       ??$forward@V?$_Tree_const_iterator@V?$_Tree_val@U?$_Tree_simple_types@U?$pair@$$CBV?$basic_string@DU?$char_traits@D@std@@V?$allocator@D@2@@std@@V12@@std@@@std@@@std@@@std@@@std@@YA$$QAV?$_Tree_const_iterator@V?$_Tree_val@U?$_Tree_simple_types@U?$pair@$$CBV?$basic_string@DU?$char_traits@D@std@@V?$allocator@D@2@@std@@V12@@std@@@std@@@std@@@0@AAV10@@Z 10070310 f i KitParser.obj
 0002:00021330       ??$forward@V?$_Tree_iterator@V?$_Tree_val@U?$_Tree_simple_types@U?$pair@$$CBV?$basic_string@DU?$char_traits@D@std@@V?$allocator@D@2@@std@@V12@@std@@@std@@@std@@@std@@@std@@YA$$QAV?$_Tree_iterator@V?$_Tree_val@U?$_Tree_simple_types@U?$pair@$$CBV?$basic_string@DU?$char_traits@D@std@@V?$allocator@D@2@@std@@V12@@std@@@std@@@std@@@0@AAV10@@Z 10070330 f i KitParser.obj
 0002:00021350       ??$forward@V?$_Tree_iterator@V?$_Tree_val@U?$_Tree_simple_types@U?$pair@$$CBV?$basic_string@DU?$char_traits@D@std@@V?$allocator@D@2@@std@@V?$basic_json@Vmap@std@@Vvector@2@V?$basic_string@DU?$char_traits@D@std@@V?$allocator@D@2@@2@_N_J_KNVallocator@2@Uadl_serializer@nlohmann@@@nlohmann@@@std@@@std@@@std@@@std@@@std@@YA$$QAV?$_Tree_iterator@V?$_Tree_val@U?$_Tree_simple_types@U?$pair@$$CBV?$basic_string@DU?$char_traits@D@std@@V?$allocator@D@2@@std@@V?$basic_json@Vmap@std@@Vvector@2@V?$basic_string@DU?$char_traits@D@std@@V?$allocator@D@2@@2@_N_J_KNVallocator@2@Uadl_serializer@nlohmann@@@nlohmann@@@std@@@std@@@std@@@0@AAV10@@Z 10070350 f i KitParser.obj
 0002:00021370       ??$forward@V?$allocator@D@std@@@std@@YA$$QAV?$allocator@D@0@AAV10@@Z 10070370 f i KitParser.obj
 0002:00021390       ??$forward@V?$basic_string@DU?$char_traits@D@std@@V?$allocator@D@2@@std@@@std@@YA$$QAV?$basic_string@DU?$char_traits@D@std@@V?$allocator@D@2@@0@AAV10@@Z 10070390 f i KitParser.obj
 0002:000213b0       ??$forward@V?$tuple@$$QAV?$basic_string@DU?$char_traits@D@std@@V?$allocator@D@2@@std@@@std@@@std@@YA$$QAV?$tuple@$$QAV?$basic_string@DU?$char_traits@D@std@@V?$allocator@D@2@@std@@@0@AAV10@@Z 100703b0 f i KitParser.obj
 0002:000213d0       ??$forward@V?$tuple@$$V@std@@@std@@YA$$QAV?$tuple@$$V@0@AAV10@@Z 100703d0 f i KitParser.obj
 0002:000213f0       ??$forward_as_tuple@$$V@std@@YA?AV?$tuple@$$V@0@XZ 100703f0 f i KitParser.obj
 0002:00021420       ??$forward_as_tuple@V?$basic_string@DU?$char_traits@D@std@@V?$allocator@D@2@@std@@@std@@YA?AV?$tuple@$$QAV?$basic_string@DU?$char_traits@D@std@@V?$allocator@D@2@@std@@@0@$$QAV?$basic_string@DU?$char_traits@D@std@@V?$allocator@D@2@@0@@Z 10070420 f i KitParser.obj
 0002:00021490       ??$get@$0A@$$QAV?$basic_string@DU?$char_traits@D@std@@V?$allocator@D@2@@std@@@std@@YA$$QAV?$basic_string@DU?$char_traits@D@std@@V?$allocator@D@2@@0@$$QAV?$tuple@$$QAV?$basic_string@DU?$char_traits@D@std@@V?$allocator@D@2@@std@@@0@@Z 10070490 f i KitParser.obj
 0002:000214c0       ??$insert@V?$_Tree_const_iterator@V?$_Tree_val@U?$_Tree_simple_types@U?$pair@$$CBV?$basic_string@DU?$char_traits@D@std@@V?$allocator@D@2@@std@@V12@@std@@@std@@@std@@@std@@@?$_Tree@V?$_Tmap_traits@V?$basic_string@DU?$char_traits@D@std@@V?$allocator@D@2@@std@@V?$basic_json@Vmap@std@@Vvector@2@V?$basic_string@DU?$char_traits@D@std@@V?$allocator@D@2@@2@_N_J_KNVallocator@2@Uadl_serializer@nlohmann@@@nlohmann@@U?$less@V?$basic_string@DU?$char_traits@D@std@@V?$allocator@D@2@@std@@@2@V?$allocator@U?$pair@$$CBV?$basic_string@DU?$char_traits@D@std@@V?$allocator@D@2@@std@@V?$basic_json@Vmap@std@@Vvector@2@V?$basic_string@DU?$char_traits@D@std@@V?$allocator@D@2@@2@_N_J_KNVallocator@2@Uadl_serializer@nlohmann@@@nlohmann@@@std@@@2@$0A@@std@@@std@@QAEXV?$_Tree_const_iterator@V?$_Tree_val@U?$_Tree_simple_types@U?$pair@$$CBV?$basic_string@DU?$char_traits@D@std@@V?$allocator@D@2@@std@@V12@@std@@@std@@@std@@@1@0@Z 100704c0 f i KitParser.obj
 0002:00021540       ??$isfinite@N@@YA_NN@Z     10070540 f i KitParser.obj
 0002:00021590       ??$isnan@N@@YA_NN@Z        10070590 f i KitParser.obj
 0002:000215e0       ??$make_shared@V?$output_stream_adapter@D@detail@nlohmann@@AAV?$basic_ostream@DU?$char_traits@D@std@@@std@@@std@@YA?AV?$shared_ptr@V?$output_stream_adapter@D@detail@nlohmann@@@0@AAV?$basic_ostream@DU?$char_traits@D@std@@@0@@Z 100705e0 f i KitParser.obj
 0002:00021710       ??$move@AAV?$allocator@D@std@@@std@@YA$$QAV?$allocator@D@0@AAV10@@Z 10070710 f i KitParser.obj
 0002:00021730       ??$move@AAV?$basic_string@DU?$char_traits@D@std@@V?$allocator@D@2@@std@@@std@@YA$$QAV?$basic_string@DU?$char_traits@D@std@@V?$allocator@D@2@@0@AAV10@@Z 10070730 f i KitParser.obj
 0002:00021750       ??$move@AAV?$shared_ptr@U?$output_adapter_protocol@D@detail@nlohmann@@@std@@@std@@YA$$QAV?$shared_ptr@U?$output_adapter_protocol@D@detail@nlohmann@@@0@AAV10@@Z 10070750 f i KitParser.obj
 0002:00021770       ??$move@AAV?$shared_ptr@V?$output_stream_adapter@D@detail@nlohmann@@@std@@@std@@YA$$QAV?$shared_ptr@V?$output_stream_adapter@D@detail@nlohmann@@@0@AAV10@@Z 10070770 f i KitParser.obj
 0002:00021790       ??$move@AAV?$tuple@$$QAV?$basic_string@DU?$char_traits@D@std@@V?$allocator@D@2@@std@@@std@@@std@@YA$$QAV?$tuple@$$QAV?$basic_string@DU?$char_traits@D@std@@V?$allocator@D@2@@std@@@0@AAV10@@Z 10070790 f i KitParser.obj
 0002:000217b0       ??$next@V?$_Tree_const_iterator@V?$_Tree_val@U?$_Tree_simple_types@U?$pair@$$CBV?$basic_string@DU?$char_traits@D@std@@V?$allocator@D@2@@std@@V?$basic_json@Vmap@std@@Vvector@2@V?$basic_string@DU?$char_traits@D@std@@V?$allocator@D@2@@2@_N_J_KNVallocator@2@Uadl_serializer@nlohmann@@@nlohmann@@@std@@@std@@@std@@@std@@@std@@YA?AV?$_Tree_const_iterator@V?$_Tree_val@U?$_Tree_simple_types@U?$pair@$$CBV?$basic_string@DU?$char_traits@D@std@@V?$allocator@D@2@@std@@V?$basic_json@Vmap@std@@Vvector@2@V?$basic_string@DU?$char_traits@D@std@@V?$allocator@D@2@@2@_N_J_KNVallocator@2@Uadl_serializer@nlohmann@@@nlohmann@@@std@@@std@@@std@@@0@V10@H@Z 100707b0 f i KitParser.obj
 0002:00021870       ??$remove@V?$_Array_iterator@D$0EA@@std@@D@std@@YA?AV?$_Array_iterator@D$0EA@@0@V10@V10@ABD@Z 10070870 f i KitParser.obj
 0002:00021950       ??$reverse@V?$_Array_iterator@D$0EA@@std@@@std@@YAXV?$_Array_iterator@D$0EA@@0@0@Z 10070950 f i KitParser.obj
 0002:00021990       ??$setfill@D@std@@YA?AU?$_Fillobj@D@0@D@Z 10070990 f i KitParser.obj
 0002:000219c0       ??$strcat_s@$0EA@@@YAHAAY0EA@DPBD@Z 100709c0 f i KitParser.obj
 0002:000219f0       ??$strcpy_s@$0EA@@@YAHAAY0EA@DPBD@Z 100709f0 f i KitParser.obj
 0002:00021a20       ??$to_json@V?$basic_json@Vmap@std@@Vvector@2@V?$basic_string@DU?$char_traits@D@std@@V?$allocator@D@2@@2@_N_J_KNVallocator@2@Uadl_serializer@nlohmann@@@nlohmann@@AAV?$map@V?$basic_string@DU?$char_traits@D@std@@V?$allocator@D@2@@std@@V12@U?$less@V?$basic_string@DU?$char_traits@D@std@@V?$allocator@D@2@@std@@@2@V?$allocator@U?$pair@$$CBV?$basic_string@DU?$char_traits@D@std@@V?$allocator@D@2@@std@@V12@@std@@@2@@std@@@?$adl_serializer@V?$map@V?$basic_string@DU?$char_traits@D@std@@V?$allocator@D@2@@std@@V12@U?$less@V?$basic_string@DU?$char_traits@D@std@@V?$allocator@D@2@@std@@@2@V?$allocator@U?$pair@$$CBV?$basic_string@DU?$char_traits@D@std@@V?$allocator@D@2@@std@@V12@@std@@@2@@std@@X@nlohmann@@SAXAAV?$basic_json@Vmap@std@@Vvector@2@V?$basic_string@DU?$char_traits@D@std@@V?$allocator@D@2@@2@_N_J_KNVallocator@2@Uadl_serializer@nlohmann@@@1@AAV?$map@V?$basic_string@DU?$char_traits@D@std@@V?$allocator@D@2@@std@@V12@U?$less@V?$basic_string@DU?$char_traits@D@std@@V?$allocator@D@2@@std@@@2@V?$allocator@U?$pair@$$CBV?$basic_string@DU?$char_traits@D@std@@V?$allocator@D@2@@std@@V12@@std@@@2@@std@@@Z 10070a20 f i KitParser.obj
 0002:00021a60       ??$to_json@V?$basic_json@Vmap@std@@Vvector@2@V?$basic_string@DU?$char_traits@D@std@@V?$allocator@D@2@@2@_N_J_KNVallocator@2@Uadl_serializer@nlohmann@@@nlohmann@@ABV?$basic_string@DU?$char_traits@D@std@@V?$allocator@D@2@@std@@@?$adl_serializer@V?$basic_string@DU?$char_traits@D@std@@V?$allocator@D@2@@std@@X@nlohmann@@SAXAAV?$basic_json@Vmap@std@@Vvector@2@V?$basic_string@DU?$char_traits@D@std@@V?$allocator@D@2@@2@_N_J_KNVallocator@2@Uadl_serializer@nlohmann@@@1@ABV?$basic_string@DU?$char_traits@D@std@@V?$allocator@D@2@@std@@@Z 10070a60 f i KitParser.obj
 0002:00021aa0       ??$to_json@V?$basic_json@Vmap@std@@Vvector@2@V?$basic_string@DU?$char_traits@D@std@@V?$allocator@D@2@@2@_N_J_KNVallocator@2@Uadl_serializer@nlohmann@@@nlohmann@@V?$basic_string@DU?$char_traits@D@std@@V?$allocator@D@2@@std@@$0A@@detail@nlohmann@@YAXAAV?$basic_json@Vmap@std@@Vvector@2@V?$basic_string@DU?$char_traits@D@std@@V?$allocator@D@2@@2@_N_J_KNVallocator@2@Uadl_serializer@nlohmann@@@1@ABV?$basic_string@DU?$char_traits@D@std@@V?$allocator@D@2@@std@@@Z 10070aa0 f i KitParser.obj
 0002:00021ad0       ??$to_json@V?$basic_json@Vmap@std@@Vvector@2@V?$basic_string@DU?$char_traits@D@std@@V?$allocator@D@2@@2@_N_J_KNVallocator@2@Uadl_serializer@nlohmann@@@nlohmann@@V?$map@V?$basic_string@DU?$char_traits@D@std@@V?$allocator@D@2@@std@@V12@U?$less@V?$basic_string@DU?$char_traits@D@std@@V?$allocator@D@2@@std@@@2@V?$allocator@U?$pair@$$CBV?$basic_string@DU?$char_traits@D@std@@V?$allocator@D@2@@std@@V12@@std@@@2@@std@@$0A@@detail@nlohmann@@YAXAAV?$basic_json@Vmap@std@@Vvector@2@V?$basic_string@DU?$char_traits@D@std@@V?$allocator@D@2@@2@_N_J_KNVallocator@2@Uadl_serializer@nlohmann@@@1@ABV?$map@V?$basic_string@DU?$char_traits@D@std@@V?$allocator@D@2@@std@@V12@U?$less@V?$basic_string@DU?$char_traits@D@std@@V?$allocator@D@2@@std@@@2@V?$allocator@U?$pair@$$CBV?$basic_string@DU?$char_traits@D@std@@V?$allocator@D@2@@std@@V12@@std@@@2@@std@@@Z 10070ad0 f i KitParser.obj
 0002:00021b00       ??$try_emplace@$$V@?$map@V?$basic_string@DU?$char_traits@D@std@@V?$allocator@D@2@@std@@V12@U?$less@V?$basic_string@DU?$char_traits@D@std@@V?$allocator@D@2@@std@@@2@V?$allocator@U?$pair@$$CBV?$basic_string@DU?$char_traits@D@std@@V?$allocator@D@2@@std@@V12@@std@@@2@@std@@QAE?AU?$pair@V?$_Tree_iterator@V?$_Tree_val@U?$_Tree_simple_types@U?$pair@$$CBV?$basic_string@DU?$char_traits@D@std@@V?$allocator@D@2@@std@@V12@@std@@@std@@@std@@@std@@_N@1@$$QAV?$basic_string@DU?$char_traits@D@std@@V?$allocator@D@2@@1@@Z 10070b00 f i KitParser.obj
 0002:00021b40       ??$use_facet@V?$codecvt@DDU_Mbstatet@@@std@@@std@@YAABV?$codecvt@DDU_Mbstatet@@@0@ABVlocale@0@@Z 10070b40 f i KitParser.obj
 0002:00021cf0       ??0?$_Array_const_iterator@D$0EA@@std@@QAE@PBDI@Z 10070cf0 f i KitParser.obj
 0002:00021d20       ??0?$_Array_iterator@D$0EA@@std@@QAE@PADI@Z 10070d20 f i KitParser.obj
 0002:00021d60       ??0?$_Fillobj@D@std@@QAE@D@Z 10070d60 f i KitParser.obj
 0002:00021d90       ??0?$_Ptr_base@U?$output_adapter_protocol@D@detail@nlohmann@@@std@@IAE@XZ 10070d90 f i KitParser.obj
 0002:00021dd0       ??0?$_Ptr_base@V?$output_stream_adapter@D@detail@nlohmann@@@std@@IAE@XZ 10070dd0 f i KitParser.obj
 0002:00021e10       ??0?$_String_alloc@U?$_String_base_types@_WV?$allocator@_W@std@@@std@@@std@@QAE@XZ 10070e10 f i KitParser.obj
 0002:00021e40       ??0?$_String_const_iterator@V?$_String_val@U?$_Simple_types@D@std@@@std@@@std@@QAE@PBDPBU_Container_base0@1@@Z 10070e40 f i KitParser.obj
 0002:00021e80       ??0?$_String_iterator@V?$_String_val@U?$_Simple_types@D@std@@@std@@@std@@QAE@PADPBU_Container_base0@1@@Z 10070e80 f i KitParser.obj
 0002:00021ec0       ??0?$_String_val@U?$_Simple_types@_W@std@@@std@@QAE@XZ 10070ec0 f i KitParser.obj
 0002:00021f00       ??0?$_Tree@V?$_Tmap_traits@V?$basic_string@DU?$char_traits@D@std@@V?$allocator@D@2@@std@@V?$basic_json@Vmap@std@@Vvector@2@V?$basic_string@DU?$char_traits@D@std@@V?$allocator@D@2@@2@_N_J_KNVallocator@2@Uadl_serializer@nlohmann@@@nlohmann@@U?$less@V?$basic_string@DU?$char_traits@D@std@@V?$allocator@D@2@@std@@@2@V?$allocator@U?$pair@$$CBV?$basic_string@DU?$char_traits@D@std@@V?$allocator@D@2@@std@@V?$basic_json@Vmap@std@@Vvector@2@V?$basic_string@DU?$char_traits@D@std@@V?$allocator@D@2@@2@_N_J_KNVallocator@2@Uadl_serializer@nlohmann@@@nlohmann@@@std@@@2@$0A@@std@@@std@@QAE@ABU?$less@V?$basic_string@DU?$char_traits@D@std@@V?$allocator@D@2@@std@@@1@@Z 10070f00 f i KitParser.obj
 0002:00021f30       ??0?$_Tree_comp_alloc@V?$_Tmap_traits@V?$basic_string@DU?$char_traits@D@std@@V?$allocator@D@2@@std@@V?$basic_json@Vmap@std@@Vvector@2@V?$basic_string@DU?$char_traits@D@std@@V?$allocator@D@2@@2@_N_J_KNVallocator@2@Uadl_serializer@nlohmann@@@nlohmann@@U?$less@V?$basic_string@DU?$char_traits@D@std@@V?$allocator@D@2@@std@@@2@V?$allocator@U?$pair@$$CBV?$basic_string@DU?$char_traits@D@std@@V?$allocator@D@2@@std@@V?$basic_json@Vmap@std@@Vvector@2@V?$basic_string@DU?$char_traits@D@std@@V?$allocator@D@2@@2@_N_J_KNVallocator@2@Uadl_serializer@nlohmann@@@nlohmann@@@std@@@2@$0A@@std@@@std@@QAE@ABU?$less@V?$basic_string@DU?$char_traits@D@std@@V?$allocator@D@2@@std@@@1@@Z 10070f30 f i KitParser.obj
 0002:00021f80       ??0?$_Tree_const_iterator@V?$_Tree_val@U?$_Tree_simple_types@U?$pair@$$CBV?$basic_string@DU?$char_traits@D@std@@V?$allocator@D@2@@std@@V12@@std@@@std@@@std@@@std@@QAE@PAU?$_Tree_node@U?$pair@$$CBV?$basic_string@DU?$char_traits@D@std@@V?$allocator@D@2@@std@@V12@@std@@PAX@1@PBV?$_Tree_val@U?$_Tree_simple_types@U?$pair@$$CBV?$basic_string@DU?$char_traits@D@std@@V?$allocator@D@2@@std@@V12@@std@@@std@@@1@@Z 10070f80 f i KitParser.obj
 0002:00021fc0       ??0?$_Tree_const_iterator@V?$_Tree_val@U?$_Tree_simple_types@U?$pair@$$CBV?$basic_string@DU?$char_traits@D@std@@V?$allocator@D@2@@std@@V12@@std@@@std@@@std@@@std@@QAE@XZ 10070fc0 f i KitParser.obj
 0002:00021ff0       ??0?$_Tree_const_iterator@V?$_Tree_val@U?$_Tree_simple_types@U?$pair@$$CBV?$basic_string@DU?$char_traits@D@std@@V?$allocator@D@2@@std@@V?$basic_json@Vmap@std@@Vvector@2@V?$basic_string@DU?$char_traits@D@std@@V?$allocator@D@2@@2@_N_J_KNVallocator@2@Uadl_serializer@nlohmann@@@nlohmann@@@std@@@std@@@std@@@std@@QAE@PAU?$_Tree_node@U?$pair@$$CBV?$basic_string@DU?$char_traits@D@std@@V?$allocator@D@2@@std@@V?$basic_json@Vmap@std@@Vvector@2@V?$basic_string@DU?$char_traits@D@std@@V?$allocator@D@2@@2@_N_J_KNVallocator@2@Uadl_serializer@nlohmann@@@nlohmann@@@std@@PAX@1@PBV?$_Tree_val@U?$_Tree_simple_types@U?$pair@$$CBV?$basic_string@DU?$char_traits@D@std@@V?$allocator@D@2@@std@@V?$basic_json@Vmap@std@@Vvector@2@V?$basic_string@DU?$char_traits@D@std@@V?$allocator@D@2@@2@_N_J_KNVallocator@2@Uadl_serializer@nlohmann@@@nlohmann@@@std@@@std@@@1@@Z 10070ff0 f i KitParser.obj
 0002:00022030       ??0?$_Tree_const_iterator@V?$_Tree_val@U?$_Tree_simple_types@U?$pair@$$CBV?$basic_string@DU?$char_traits@D@std@@V?$allocator@D@2@@std@@V?$basic_json@Vmap@std@@Vvector@2@V?$basic_string@DU?$char_traits@D@std@@V?$allocator@D@2@@2@_N_J_KNVallocator@2@Uadl_serializer@nlohmann@@@nlohmann@@@std@@@std@@@std@@@std@@QAE@XZ 10071030 f i KitParser.obj
 0002:00022060       ??0?$_Tree_iterator@V?$_Tree_val@U?$_Tree_simple_types@U?$pair@$$CBV?$basic_string@DU?$char_traits@D@std@@V?$allocator@D@2@@std@@V12@@std@@@std@@@std@@@std@@QAE@PAU?$_Tree_node@U?$pair@$$CBV?$basic_string@DU?$char_traits@D@std@@V?$allocator@D@2@@std@@V12@@std@@PAX@1@PBV?$_Tree_val@U?$_Tree_simple_types@U?$pair@$$CBV?$basic_string@DU?$char_traits@D@std@@V?$allocator@D@2@@std@@V12@@std@@@std@@@1@@Z 10071060 f i KitParser.obj
 0002:000220a0       ??0?$_Tree_iterator@V?$_Tree_val@U?$_Tree_simple_types@U?$pair@$$CBV?$basic_string@DU?$char_traits@D@std@@V?$allocator@D@2@@std@@V?$basic_json@Vmap@std@@Vvector@2@V?$basic_string@DU?$char_traits@D@std@@V?$allocator@D@2@@2@_N_J_KNVallocator@2@Uadl_serializer@nlohmann@@@nlohmann@@@std@@@std@@@std@@@std@@QAE@PAU?$_Tree_node@U?$pair@$$CBV?$basic_string@DU?$char_traits@D@std@@V?$allocator@D@2@@std@@V?$basic_json@Vmap@std@@Vvector@2@V?$basic_string@DU?$char_traits@D@std@@V?$allocator@D@2@@2@_N_J_KNVallocator@2@Uadl_serializer@nlohmann@@@nlohmann@@@std@@PAX@1@PBV?$_Tree_val@U?$_Tree_simple_types@U?$pair@$$CBV?$basic_string@DU?$char_traits@D@std@@V?$allocator@D@2@@std@@V?$basic_json@Vmap@std@@Vvector@2@V?$basic_string@DU?$char_traits@D@std@@V?$allocator@D@2@@2@_N_J_KNVallocator@2@Uadl_serializer@nlohmann@@@nlohmann@@@std@@@std@@@1@@Z 100710a0 f i KitParser.obj
 0002:000220e0       ??0?$_Tree_unchecked_const_iterator@V?$_Tree_val@U?$_Tree_simple_types@U?$pair@$$CBV?$basic_string@DU?$char_traits@D@std@@V?$allocator@D@2@@std@@V12@@std@@@std@@@std@@U_Iterator_base0@2@@std@@QAE@PAU?$_Tree_node@U?$pair@$$CBV?$basic_string@DU?$char_traits@D@std@@V?$allocator@D@2@@std@@V12@@std@@PAX@1@PBV?$_Tree_val@U?$_Tree_simple_types@U?$pair@$$CBV?$basic_string@DU?$char_traits@D@std@@V?$allocator@D@2@@std@@V12@@std@@@std@@@1@@Z 100710e0 f i KitParser.obj
 0002:00022120       ??0?$_Tree_unchecked_const_iterator@V?$_Tree_val@U?$_Tree_simple_types@U?$pair@$$CBV?$basic_string@DU?$char_traits@D@std@@V?$allocator@D@2@@std@@V12@@std@@@std@@@std@@U_Iterator_base0@2@@std@@QAE@XZ 10071120 f i KitParser.obj
 0002:00022150       ??0?$_Tree_unchecked_const_iterator@V?$_Tree_val@U?$_Tree_simple_types@U?$pair@$$CBV?$basic_string@DU?$char_traits@D@std@@V?$allocator@D@2@@std@@V?$basic_json@Vmap@std@@Vvector@2@V?$basic_string@DU?$char_traits@D@std@@V?$allocator@D@2@@2@_N_J_KNVallocator@2@Uadl_serializer@nlohmann@@@nlohmann@@@std@@@std@@@std@@U_Iterator_base0@2@@std@@QAE@PAU?$_Tree_node@U?$pair@$$CBV?$basic_string@DU?$char_traits@D@std@@V?$allocator@D@2@@std@@V?$basic_json@Vmap@std@@Vvector@2@V?$basic_string@DU?$char_traits@D@std@@V?$allocator@D@2@@2@_N_J_KNVallocator@2@Uadl_serializer@nlohmann@@@nlohmann@@@std@@PAX@1@PBV?$_Tree_val@U?$_Tree_simple_types@U?$pair@$$CBV?$basic_string@DU?$char_traits@D@std@@V?$allocator@D@2@@std@@V?$basic_json@Vmap@std@@Vvector@2@V?$basic_string@DU?$char_traits@D@std@@V?$allocator@D@2@@2@_N_J_KNVallocator@2@Uadl_serializer@nlohmann@@@nlohmann@@@std@@@std@@@1@@Z 10071150 f i KitParser.obj
 0002:00022190       ??0?$_Tree_unchecked_const_iterator@V?$_Tree_val@U?$_Tree_simple_types@U?$pair@$$CBV?$basic_string@DU?$char_traits@D@std@@V?$allocator@D@2@@std@@V?$basic_json@Vmap@std@@Vvector@2@V?$basic_string@DU?$char_traits@D@std@@V?$allocator@D@2@@2@_N_J_KNVallocator@2@Uadl_serializer@nlohmann@@@nlohmann@@@std@@@std@@@std@@U_Iterator_base0@2@@std@@QAE@XZ 10071190 f i KitParser.obj
 0002:000221c0       ??0?$_Tree_val@U?$_Tree_simple_types@U?$pair@$$CBV?$basic_string@DU?$char_traits@D@std@@V?$allocator@D@2@@std@@V?$basic_json@Vmap@std@@Vvector@2@V?$basic_string@DU?$char_traits@D@std@@V?$allocator@D@2@@2@_N_J_KNVallocator@2@Uadl_serializer@nlohmann@@@nlohmann@@@std@@@std@@@std@@QAE@XZ 100711c0 f i KitParser.obj
 0002:00022200       ??0?$_Vector_const_iterator@V?$_Vector_val@U?$_Simple_types@V?$basic_json@Vmap@std@@Vvector@2@V?$basic_string@DU?$char_traits@D@std@@V?$allocator@D@2@@2@_N_J_KNVallocator@2@Uadl_serializer@nlohmann@@@nlohmann@@@std@@@std@@@std@@QAE@PAV?$basic_json@Vmap@std@@Vvector@2@V?$basic_string@DU?$char_traits@D@std@@V?$allocator@D@2@@2@_N_J_KNVallocator@2@Uadl_serializer@nlohmann@@@nlohmann@@PBU_Container_base0@1@@Z 10071200 f i KitParser.obj
 0002:00022240       ??0?$allocator@U?$_Tree_node@U?$pair@$$CBV?$basic_string@DU?$char_traits@D@std@@V?$allocator@D@2@@std@@V?$basic_json@Vmap@std@@Vvector@2@V?$basic_string@DU?$char_traits@D@std@@V?$allocator@D@2@@2@_N_J_KNVallocator@2@Uadl_serializer@nlohmann@@@nlohmann@@@std@@PAX@std@@@std@@QAE@XZ 10071240 f i KitParser.obj
 0002:00022260       ??0?$allocator@V?$basic_string@DU?$char_traits@D@std@@V?$allocator@D@2@@std@@@std@@QAE@XZ 10071260 f i KitParser.obj
 0002:00022280       ??0?$allocator@V?$map@V?$basic_string@DU?$char_traits@D@std@@V?$allocator@D@2@@std@@V?$basic_json@Vmap@std@@Vvector@2@V?$basic_string@DU?$char_traits@D@std@@V?$allocator@D@2@@2@_N_J_KNVallocator@2@Uadl_serializer@nlohmann@@@nlohmann@@U?$less@V?$basic_string@DU?$char_traits@D@std@@V?$allocator@D@2@@std@@@2@V?$allocator@U?$pair@$$CBV?$basic_string@DU?$char_traits@D@std@@V?$allocator@D@2@@std@@V?$basic_json@Vmap@std@@Vvector@2@V?$basic_string@DU?$char_traits@D@std@@V?$allocator@D@2@@2@_N_J_KNVallocator@2@Uadl_serializer@nlohmann@@@nlohmann@@@std@@@2@@std@@@std@@QAE@XZ 10071280 f i KitParser.obj
 0002:000222a0       ??0?$allocator@V?$vector@V?$basic_json@Vmap@std@@Vvector@2@V?$basic_string@DU?$char_traits@D@std@@V?$allocator@D@2@@2@_N_J_KNVallocator@2@Uadl_serializer@nlohmann@@@nlohmann@@V?$allocator@V?$basic_json@Vmap@std@@Vvector@2@V?$basic_string@DU?$char_traits@D@std@@V?$allocator@D@2@@2@_N_J_KNVallocator@2@Uadl_serializer@nlohmann@@@nlohmann@@@std@@@std@@@std@@QAE@XZ 100712a0 f i KitParser.obj
 0002:000222c0       ??0?$allocator@_W@std@@QAE@XZ 100712c0 f i KitParser.obj
 0002:000222e0       ??0?$basic_filebuf@DU?$char_traits@D@std@@@std@@QAE@PAU_iobuf@@@Z 100712e0 f i KitParser.obj
 0002:00022370       ??0?$basic_ofstream@DU?$char_traits@D@std@@@std@@QAE@PBDHH@Z 10071370 f i KitParser.obj
 0002:000224c0       ??0?$basic_string@DU?$char_traits@D@std@@V?$allocator@D@2@@std@@QAE@$$QAV01@@Z 100714c0 f i KitParser.obj
 0002:00022560       ??0?$basic_string@DU?$char_traits@D@std@@V?$allocator@D@2@@std@@QAE@ABV01@@Z 10071560 f i KitParser.obj
 0002:00022600       ??0?$basic_string@DU?$char_traits@D@std@@V?$allocator@D@2@@std@@QAE@ID@Z 10071600 f i KitParser.obj
 0002:00022690       ??0?$basic_string@DU?$char_traits@D@std@@V?$allocator@D@2@@std@@QAE@QBDI@Z 10071690 f i KitParser.obj
 0002:00022720       ??0?$basic_string@DU?$char_traits@D@std@@V?$allocator@D@2@@std@@QAE@XZ 10071720 f i KitParser.obj
 0002:00022790       ??0?$basic_string@_WU?$char_traits@_W@std@@V?$allocator@_W@2@@std@@QAE@XZ 10071790 f i KitParser.obj
 0002:00022800       ??0?$basic_stringbuf@DU?$char_traits@D@std@@V?$allocator@D@2@@std@@QAE@H@Z 10071800 f i KitParser.obj
 0002:000228b0       ??0?$basic_stringstream@DU?$char_traits@D@std@@V?$allocator@D@2@@std@@QAE@H@Z 100718b0 f i KitParser.obj
 0002:000229c0       ??0?$codecvt_utf8_utf16@_W$0BAPPPP@$0A@@std@@QAE@I@Z 100719c0 f i KitParser.obj
 0002:00022a00       ??0?$fpos@U_Mbstatet@@@std@@QAE@U_Mbstatet@@_J@Z 10071a00 f i KitParser.obj
 0002:00022a60       ??0?$fpos@U_Mbstatet@@@std@@QAE@_J@Z 10071a60 f i KitParser.obj
 0002:00022ac0       ??0?$output_adapter@D@detail@nlohmann@@QAE@AAV?$basic_ostream@DU?$char_traits@D@std@@@std@@@Z 10071ac0 f i KitParser.obj
 0002:00022b10       ??0?$output_adapter_protocol@D@detail@nlohmann@@QAE@XZ 10071b10 f i KitParser.obj
 0002:00022b40       ??0?$output_stream_adapter@D@detail@nlohmann@@QAE@AAV?$basic_ostream@DU?$char_traits@D@std@@@std@@@Z 10071b40 f i KitParser.obj
 0002:00022b80       ??0?$serializer@V?$basic_json@Vmap@std@@Vvector@2@V?$basic_string@DU?$char_traits@D@std@@V?$allocator@D@2@@2@_N_J_KNVallocator@2@Uadl_serializer@nlohmann@@@nlohmann@@@detail@nlohmann@@QAE@V?$shared_ptr@U?$output_adapter_protocol@D@detail@nlohmann@@@std@@D@Z 10071b80 f i KitParser.obj
 0002:00022cd0       ??0?$shared_ptr@U?$output_adapter_protocol@D@detail@nlohmann@@@std@@QAE@$$QAV01@@Z 10071cd0 f i KitParser.obj
 0002:00022d50       ??0?$shared_ptr@U?$output_adapter_protocol@D@detail@nlohmann@@@std@@QAE@ABV01@@Z 10071d50 f i KitParser.obj
 0002:00022dc0       ??0?$shared_ptr@V?$output_stream_adapter@D@detail@nlohmann@@@std@@QAE@$$QAV01@@Z 10071dc0 f i KitParser.obj
 0002:00022e40       ??0?$shared_ptr@V?$output_stream_adapter@D@detail@nlohmann@@@std@@QAE@XZ 10071e40 f i KitParser.obj
 0002:00022e70       ??0?$tuple@$$QAV?$basic_string@DU?$char_traits@D@std@@V?$allocator@D@2@@std@@@std@@QAE@$$QAV01@@Z 10071e70 f i KitParser.obj
 0002:00022eb0       ??0?$tuple@$$V@std@@QAE@ABV01@@Z 10071eb0 f i KitParser.obj
 0002:00022ed0       ??0?$tuple@$$V@std@@QAE@XZ 10071ed0 f i KitParser.obj
 0002:00022ef0       ??0?$wstring_convert@V?$codecvt_utf8_utf16@_W$0BAPPPP@$0A@@std@@_WV?$allocator@_W@2@V?$allocator@D@2@@std@@QAE@XZ 10071ef0 f i KitParser.obj
 0002:00023000       ??0_Bxty@?$_String_val@U?$_Simple_types@_W@std@@@std@@QAE@XZ 10072000 f i KitParser.obj
 0002:00023020       ??0_Ref_count_base@std@@IAE@XZ 10072020 f i KitParser.obj
 0002:00023060       ??0bad_cast@std@@QAE@ABV01@@Z 10072060 f i KitParser.obj
 0002:000230a0       ??0bad_cast@std@@QAE@XZ    100720a0 f i KitParser.obj
 0002:000230e0       ??0exception@detail@nlohmann@@IAE@HPBD@Z 100720e0 f i KitParser.obj
 0002:00023180       ??0exception@detail@nlohmann@@QAE@ABV012@@Z 10072180 f i KitParser.obj
 0002:000231e0       ??0exception@std@@QAE@ABV01@@Z 100721e0 f i KitParser.obj
 0002:00023240       ??0exception@std@@QAE@QBD@Z 10072240 f i KitParser.obj
 0002:000232c0       ??0exception@std@@QAE@QBDH@Z 100722c0 f i KitParser.obj
 0002:00023310       ??0exception@std@@QAE@XZ   10072310 f i KitParser.obj
 0002:00023350       ??0json_value@?$basic_json@Vmap@std@@Vvector@2@V?$basic_string@DU?$char_traits@D@std@@V?$allocator@D@2@@2@_N_J_KNVallocator@2@Uadl_serializer@nlohmann@@@nlohmann@@QAE@ABV?$basic_string@DU?$char_traits@D@std@@V?$allocator@D@2@@std@@@Z 10072350 f i KitParser.obj
 0002:00023390       ??0locale@std@@QAE@XZ      10072390 f i KitParser.obj
 0002:00023400       ??0range_error@std@@QAE@ABV01@@Z 10072400 f i KitParser.obj
 0002:00023440       ??0range_error@std@@QAE@PBD@Z 10072440 f i KitParser.obj
 0002:00023480       ??0runtime_error@std@@QAE@ABV01@@Z 10072480 f i KitParser.obj
 0002:000234c0       ??0runtime_error@std@@QAE@PBD@Z 100724c0 f i KitParser.obj
 0002:00023500       ??0type_error@detail@nlohmann@@AAE@HPBD@Z 10072500 f i KitParser.obj
 0002:00023540       ??0type_error@detail@nlohmann@@QAE@ABV012@@Z 10072540 f i KitParser.obj
 0002:00023580       ??1?$_Compressed_pair@V?$allocator@_W@std@@V?$_String_val@U?$_Simple_types@_W@std@@@2@$00@std@@QAE@XZ 10072580 f i KitParser.obj
 0002:000235b0       ??1?$_Ref_count_obj@V?$output_stream_adapter@D@detail@nlohmann@@@std@@UAE@XZ 100725b0 f i KitParser.obj
 0002:000235e0       ??1?$_String_alloc@U?$_String_base_types@_WV?$allocator@_W@std@@@std@@@std@@QAE@XZ 100725e0 f i KitParser.obj
 0002:00023610       ??1?$_String_val@U?$_Simple_types@_W@std@@@std@@QAE@XZ 10072610 f i KitParser.obj
 0002:00023640       ??1?$_Tree@V?$_Tmap_traits@V?$basic_string@DU?$char_traits@D@std@@V?$allocator@D@2@@std@@V?$basic_json@Vmap@std@@Vvector@2@V?$basic_string@DU?$char_traits@D@std@@V?$allocator@D@2@@2@_N_J_KNVallocator@2@Uadl_serializer@nlohmann@@@nlohmann@@U?$less@V?$basic_string@DU?$char_traits@D@std@@V?$allocator@D@2@@std@@@2@V?$allocator@U?$pair@$$CBV?$basic_string@DU?$char_traits@D@std@@V?$allocator@D@2@@std@@V?$basic_json@Vmap@std@@Vvector@2@V?$basic_string@DU?$char_traits@D@std@@V?$allocator@D@2@@2@_N_J_KNVallocator@2@Uadl_serializer@nlohmann@@@nlohmann@@@std@@@2@$0A@@std@@@std@@QAE@XZ 10072640 f i KitParser.obj
 0002:000236a0       ??1?$_Tree_comp_alloc@V?$_Tmap_traits@V?$basic_string@DU?$char_traits@D@std@@V?$allocator@D@2@@std@@V?$basic_json@Vmap@std@@Vvector@2@V?$basic_string@DU?$char_traits@D@std@@V?$allocator@D@2@@2@_N_J_KNVallocator@2@Uadl_serializer@nlohmann@@@nlohmann@@U?$less@V?$basic_string@DU?$char_traits@D@std@@V?$allocator@D@2@@std@@@2@V?$allocator@U?$pair@$$CBV?$basic_string@DU?$char_traits@D@std@@V?$allocator@D@2@@std@@V?$basic_json@Vmap@std@@Vvector@2@V?$basic_string@DU?$char_traits@D@std@@V?$allocator@D@2@@2@_N_J_KNVallocator@2@Uadl_serializer@nlohmann@@@nlohmann@@@std@@@2@$0A@@std@@@std@@QAE@XZ 100726a0 f i KitParser.obj
 0002:00023710       ??1?$basic_filebuf@DU?$char_traits@D@std@@@std@@UAE@XZ 10072710 f i KitParser.obj
 0002:000237a0       ??1?$basic_json@Vmap@std@@Vvector@2@V?$basic_string@DU?$char_traits@D@std@@V?$allocator@D@2@@2@_N_J_KNVallocator@2@Uadl_serializer@nlohmann@@@nlohmann@@QAE@XZ 100727a0 f i KitParser.obj
 0002:00023810       ??1?$basic_ofstream@DU?$char_traits@D@std@@@std@@UAE@XZ 10072810 f i KitParser.obj
 0002:00023880       ??1?$basic_string@_WU?$char_traits@_W@std@@V?$allocator@_W@2@@std@@QAE@XZ 10072880 f i KitParser.obj
 0002:000238e0       ??1?$basic_stringbuf@DU?$char_traits@D@std@@V?$allocator@D@2@@std@@UAE@XZ 100728e0 f i KitParser.obj
 0002:00023950       ??1?$basic_stringstream@DU?$char_traits@D@std@@V?$allocator@D@2@@std@@UAE@XZ 10072950 f i KitParser.obj
 0002:000239c0       ??1?$codecvt_utf8_utf16@_W$0BAPPPP@$0A@@std@@UAE@XZ 100729c0 f i KitParser.obj
 0002:000239f0       ??1?$map@V?$basic_string@DU?$char_traits@D@std@@V?$allocator@D@2@@std@@V?$basic_json@Vmap@std@@Vvector@2@V?$basic_string@DU?$char_traits@D@std@@V?$allocator@D@2@@2@_N_J_KNVallocator@2@Uadl_serializer@nlohmann@@@nlohmann@@U?$less@V?$basic_string@DU?$char_traits@D@std@@V?$allocator@D@2@@std@@@2@V?$allocator@U?$pair@$$CBV?$basic_string@DU?$char_traits@D@std@@V?$allocator@D@2@@std@@V?$basic_json@Vmap@std@@Vvector@2@V?$basic_string@DU?$char_traits@D@std@@V?$allocator@D@2@@2@_N_J_KNVallocator@2@Uadl_serializer@nlohmann@@@nlohmann@@@std@@@2@@std@@QAE@XZ 100729f0 f i KitParser.obj
 0002:00023a20       ??1?$output_adapter@D@detail@nlohmann@@QAE@XZ 10072a20 f i KitParser.obj
 0002:00023a50       ??1?$output_adapter_protocol@D@detail@nlohmann@@UAE@XZ 10072a50 f i KitParser.obj
 0002:00023a70       ??1?$output_stream_adapter@D@detail@nlohmann@@UAE@XZ 10072a70 f i KitParser.obj
 0002:00023aa0       ??1?$pair@$$CBV?$basic_string@DU?$char_traits@D@std@@V?$allocator@D@2@@std@@V12@@std@@QAE@XZ 10072aa0 f i KitParser.obj
 0002:00023ad0       ??1?$pair@$$CBV?$basic_string@DU?$char_traits@D@std@@V?$allocator@D@2@@std@@V?$basic_json@Vmap@std@@Vvector@2@V?$basic_string@DU?$char_traits@D@std@@V?$allocator@D@2@@2@_N_J_KNVallocator@2@Uadl_serializer@nlohmann@@@nlohmann@@@std@@QAE@XZ 10072ad0 f i KitParser.obj
 0002:00023b00       ??1?$serializer@V?$basic_json@Vmap@std@@Vvector@2@V?$basic_string@DU?$char_traits@D@std@@V?$allocator@D@2@@2@_N_J_KNVallocator@2@Uadl_serializer@nlohmann@@@nlohmann@@@detail@nlohmann@@QAE@XZ 10072b00 f i KitParser.obj
 0002:00023b30       ??1?$shared_ptr@U?$output_adapter_protocol@D@detail@nlohmann@@@std@@QAE@XZ 10072b30 f i KitParser.obj
 0002:00023b90       ??1?$shared_ptr@V?$output_stream_adapter@D@detail@nlohmann@@@std@@QAE@XZ 10072b90 f i KitParser.obj
 0002:00023cf0       ??1?$vector@V?$basic_json@Vmap@std@@Vvector@2@V?$basic_string@DU?$char_traits@D@std@@V?$allocator@D@2@@2@_N_J_KNVallocator@2@Uadl_serializer@nlohmann@@@nlohmann@@V?$allocator@V?$basic_json@Vmap@std@@Vvector@2@V?$basic_string@DU?$char_traits@D@std@@V?$allocator@D@2@@2@_N_J_KNVallocator@2@Uadl_serializer@nlohmann@@@nlohmann@@@std@@@std@@QAE@XZ 10072cf0 f i KitParser.obj
 0002:00023d50       ??1?$wstring_convert@V?$codecvt_utf8_utf16@_W$0BAPPPP@$0A@@std@@_WV?$allocator@_W@2@V?$allocator@D@2@@std@@UAE@XZ 10072d50 f i KitParser.obj
 0002:00023da0       ??1_Bxty@?$_String_val@U?$_Simple_types@_W@std@@@std@@QAE@XZ 10072da0 f i KitParser.obj
 0002:00023dc0       ??1_Ref_count_base@std@@UAE@XZ 10072dc0 f i KitParser.obj
 0002:00023df0       ??1bad_cast@std@@UAE@XZ    10072df0 f i KitParser.obj
 0002:00023e20       ??1exception@detail@nlohmann@@UAE@XZ 10072e20 f i KitParser.obj
 0002:00023e50       ??1exception@std@@UAE@XZ   10072e50 f i KitParser.obj
 0002:00023e90       ??1locale@std@@QAE@XZ      10072e90 f i KitParser.obj
 0002:00023f40       ??1range_error@std@@UAE@XZ 10072f40 f i KitParser.obj
 0002:00023f70       ??1runtime_error@std@@UAE@XZ 10072f70 f i KitParser.obj
 0002:00023fa0       ??1type_error@detail@nlohmann@@UAE@XZ 10072fa0 f i KitParser.obj
 0002:00023fd0       ??3@YAXPAX0@Z              10072fd0 f i KitParser.obj
 0002:00023ff0       ??4?$basic_string@DU?$char_traits@D@std@@V?$allocator@D@2@@std@@QAEAAV01@ABV01@@Z 10072ff0 f i KitParser.obj
 0002:00024080       ??4locale@std@@QAEAAV01@ABV01@@Z 10073080 f i KitParser.obj
 0002:00024160       ??6nlohmann@@YAAAV?$basic_ostream@DU?$char_traits@D@std@@@std@@AAV12@ABV?$basic_json@Vmap@std@@Vvector@2@V?$basic_string@DU?$char_traits@D@std@@V?$allocator@D@2@@2@_N_J_KNVallocator@2@Uadl_serializer@nlohmann@@@0@@Z 10073160 f i KitParser.obj
 0002:00024380       ??8?$_Array_const_iterator@D$0EA@@std@@QBE_NABV01@@Z 10073380 f i KitParser.obj
 0002:000243d0       ??8?$_Tree_const_iterator@V?$_Tree_val@U?$_Tree_simple_types@U?$pair@$$CBV?$basic_string@DU?$char_traits@D@std@@V?$allocator@D@2@@std@@V12@@std@@@std@@@std@@@std@@QBE_NABV01@@Z 100733d0 f i KitParser.obj
 0002:00024420       ??8?$_Tree_const_iterator@V?$_Tree_val@U?$_Tree_simple_types@U?$pair@$$CBV?$basic_string@DU?$char_traits@D@std@@V?$allocator@D@2@@std@@V?$basic_json@Vmap@std@@Vvector@2@V?$basic_string@DU?$char_traits@D@std@@V?$allocator@D@2@@2@_N_J_KNVallocator@2@Uadl_serializer@nlohmann@@@nlohmann@@@std@@@std@@@std@@@std@@QBE_NABV01@@Z 10073420 f i KitParser.obj
 0002:00024470       ??8?$_Vector_const_iterator@V?$_Vector_val@U?$_Simple_types@V?$basic_json@Vmap@std@@Vvector@2@V?$basic_string@DU?$char_traits@D@std@@V?$allocator@D@2@@2@_N_J_KNVallocator@2@Uadl_serializer@nlohmann@@@nlohmann@@@std@@@std@@@std@@QBE_NABV01@@Z 10073470 f i KitParser.obj
 0002:000244c0       ??9?$_Array_const_iterator@D$0EA@@std@@QBE_NABV01@@Z 100734c0 f i KitParser.obj
 0002:00024510       ??9?$_Tree_const_iterator@V?$_Tree_val@U?$_Tree_simple_types@U?$pair@$$CBV?$basic_string@DU?$char_traits@D@std@@V?$allocator@D@2@@std@@V12@@std@@@std@@@std@@@std@@QBE_NABV01@@Z 10073510 f i KitParser.obj
 0002:00024560       ??9?$_Tree_const_iterator@V?$_Tree_val@U?$_Tree_simple_types@U?$pair@$$CBV?$basic_string@DU?$char_traits@D@std@@V?$allocator@D@2@@std@@V?$basic_json@Vmap@std@@Vvector@2@V?$basic_string@DU?$char_traits@D@std@@V?$allocator@D@2@@2@_N_J_KNVallocator@2@Uadl_serializer@nlohmann@@@nlohmann@@@std@@@std@@@std@@@std@@QBE_NABV01@@Z 10073560 f i KitParser.obj
 0002:000245b0       ??9?$_Vector_const_iterator@V?$_Vector_val@U?$_Simple_types@V?$basic_json@Vmap@std@@Vvector@2@V?$basic_string@DU?$char_traits@D@std@@V?$allocator@D@2@@2@_N_J_KNVallocator@2@Uadl_serializer@nlohmann@@@nlohmann@@@std@@@std@@@std@@QBE_NABV01@@Z 100735b0 f i KitParser.obj
 0002:00024600       ??A?$array@D$0BA@@std@@QBEABDI@Z 10073600 f i KitParser.obj
 0002:00024630       ??A?$array@D$0EA@@std@@QAEAADI@Z 10073630 f i KitParser.obj
 0002:00024660       ??A?$array@E$0BJA@@std@@QBEABEI@Z 10073660 f i KitParser.obj
 0002:00024690       ??A?$basic_string@DU?$char_traits@D@std@@V?$allocator@D@2@@std@@QAEAADI@Z 10073690 f i KitParser.obj
 0002:000246d0       ??A?$basic_string@DU?$char_traits@D@std@@V?$allocator@D@2@@std@@QBEABDI@Z 100736d0 f i KitParser.obj
 0002:00024710       ??A?$map@V?$basic_string@DU?$char_traits@D@std@@V?$allocator@D@2@@std@@V12@U?$less@V?$basic_string@DU?$char_traits@D@std@@V?$allocator@D@2@@std@@@2@V?$allocator@U?$pair@$$CBV?$basic_string@DU?$char_traits@D@std@@V?$allocator@D@2@@std@@V12@@std@@@2@@std@@QAEAAV?$basic_string@DU?$char_traits@D@std@@V?$allocator@D@2@@1@$$QAV21@@Z 10073710 f i KitParser.obj
 0002:00024760       ??B?$fpos@U_Mbstatet@@@std@@QBE_JXZ 10073760 f i KitParser.obj
 0002:000247a0       ??B?$output_adapter@D@detail@nlohmann@@QAE?AV?$shared_ptr@U?$output_adapter_protocol@D@detail@nlohmann@@@std@@XZ 100737a0 f i KitParser.obj
 0002:00024870       ??C?$_Tree_const_iterator@V?$_Tree_val@U?$_Tree_simple_types@U?$pair@$$CBV?$basic_string@DU?$char_traits@D@std@@V?$allocator@D@2@@std@@V?$basic_json@Vmap@std@@Vvector@2@V?$basic_string@DU?$char_traits@D@std@@V?$allocator@D@2@@2@_N_J_KNVallocator@2@Uadl_serializer@nlohmann@@@nlohmann@@@std@@@std@@@std@@@std@@QBEPBU?$pair@$$CBV?$basic_string@DU?$char_traits@D@std@@V?$allocator@D@2@@std@@V?$basic_json@Vmap@std@@Vvector@2@V?$basic_string@DU?$char_traits@D@std@@V?$allocator@D@2@@2@_N_J_KNVallocator@2@Uadl_serializer@nlohmann@@@nlohmann@@@1@XZ 10073870 f i KitParser.obj
 0002:000248a0       ??C?$_Tree_iterator@V?$_Tree_val@U?$_Tree_simple_types@U?$pair@$$CBV?$basic_string@DU?$char_traits@D@std@@V?$allocator@D@2@@std@@V12@@std@@@std@@@std@@@std@@QBEPAU?$pair@$$CBV?$basic_string@DU?$char_traits@D@std@@V?$allocator@D@2@@std@@V12@@1@XZ 100738a0 f i KitParser.obj
 0002:000248d0       ??D?$_Array_const_iterator@D$0EA@@std@@QBEABDXZ 100738d0 f i KitParser.obj
 0002:000248f0       ??D?$_Array_iterator@D$0EA@@std@@QBEAADXZ 100738f0 f i KitParser.obj
 0002:00024920       ??D?$_String_const_iterator@V?$_String_val@U?$_Simple_types@D@std@@@std@@@std@@QBEABDXZ 10073920 f i KitParser.obj
 0002:00024940       ??D?$_String_iterator@V?$_String_val@U?$_Simple_types@D@std@@@std@@@std@@QBEAADXZ 10073940 f i KitParser.obj
 0002:00024970       ??D?$_Tree_const_iterator@V?$_Tree_val@U?$_Tree_simple_types@U?$pair@$$CBV?$basic_string@DU?$char_traits@D@std@@V?$allocator@D@2@@std@@V12@@std@@@std@@@std@@@std@@QBEABU?$pair@$$CBV?$basic_string@DU?$char_traits@D@std@@V?$allocator@D@2@@std@@V12@@1@XZ 10073970 f i KitParser.obj
 0002:000249a0       ??D?$_Tree_const_iterator@V?$_Tree_val@U?$_Tree_simple_types@U?$pair@$$CBV?$basic_string@DU?$char_traits@D@std@@V?$allocator@D@2@@std@@V?$basic_json@Vmap@std@@Vvector@2@V?$basic_string@DU?$char_traits@D@std@@V?$allocator@D@2@@2@_N_J_KNVallocator@2@Uadl_serializer@nlohmann@@@nlohmann@@@std@@@std@@@std@@@std@@QBEABU?$pair@$$CBV?$basic_string@DU?$char_traits@D@std@@V?$allocator@D@2@@std@@V?$basic_json@Vmap@std@@Vvector@2@V?$basic_string@DU?$char_traits@D@std@@V?$allocator@D@2@@2@_N_J_KNVallocator@2@Uadl_serializer@nlohmann@@@nlohmann@@@1@XZ 100739a0 f i KitParser.obj
 0002:000249d0       ??D?$_Tree_iterator@V?$_Tree_val@U?$_Tree_simple_types@U?$pair@$$CBV?$basic_string@DU?$char_traits@D@std@@V?$allocator@D@2@@std@@V12@@std@@@std@@@std@@@std@@QBEAAU?$pair@$$CBV?$basic_string@DU?$char_traits@D@std@@V?$allocator@D@2@@std@@V12@@1@XZ 100739d0 f i KitParser.obj
 0002:00024a00       ??D?$_Vector_const_iterator@V?$_Vector_val@U?$_Simple_types@V?$basic_json@Vmap@std@@Vvector@2@V?$basic_string@DU?$char_traits@D@std@@V?$allocator@D@2@@2@_N_J_KNVallocator@2@Uadl_serializer@nlohmann@@@nlohmann@@@std@@@std@@@std@@QBEABV?$basic_json@Vmap@std@@Vvector@2@V?$basic_string@DU?$char_traits@D@std@@V?$allocator@D@2@@2@_N_J_KNVallocator@2@Uadl_serializer@nlohmann@@@nlohmann@@XZ 10073a00 f i KitParser.obj
 0002:00024a20       ??E?$_Tree_const_iterator@V?$_Tree_val@U?$_Tree_simple_types@U?$pair@$$CBV?$basic_string@DU?$char_traits@D@std@@V?$allocator@D@2@@std@@V12@@std@@@std@@@std@@@std@@QAEAAV01@XZ 10073a20 f i KitParser.obj
 0002:00024a50       ??E?$_Tree_const_iterator@V?$_Tree_val@U?$_Tree_simple_types@U?$pair@$$CBV?$basic_string@DU?$char_traits@D@std@@V?$allocator@D@2@@std@@V?$basic_json@Vmap@std@@Vvector@2@V?$basic_string@DU?$char_traits@D@std@@V?$allocator@D@2@@2@_N_J_KNVallocator@2@Uadl_serializer@nlohmann@@@nlohmann@@@std@@@std@@@std@@@std@@QAE?AV01@H@Z 10073a50 f i KitParser.obj
 0002:00024ac0       ??E?$_Tree_const_iterator@V?$_Tree_val@U?$_Tree_simple_types@U?$pair@$$CBV?$basic_string@DU?$char_traits@D@std@@V?$allocator@D@2@@std@@V?$basic_json@Vmap@std@@Vvector@2@V?$basic_string@DU?$char_traits@D@std@@V?$allocator@D@2@@2@_N_J_KNVallocator@2@Uadl_serializer@nlohmann@@@nlohmann@@@std@@@std@@@std@@@std@@QAEAAV01@XZ 10073ac0 f i KitParser.obj
 0002:00024af0       ??E?$_Tree_unchecked_const_iterator@V?$_Tree_val@U?$_Tree_simple_types@U?$pair@$$CBV?$basic_string@DU?$char_traits@D@std@@V?$allocator@D@2@@std@@V12@@std@@@std@@@std@@U_Iterator_base0@2@@std@@QAEAAV01@XZ 10073af0 f i KitParser.obj
 0002:00024ba0       ??E?$_Tree_unchecked_const_iterator@V?$_Tree_val@U?$_Tree_simple_types@U?$pair@$$CBV?$basic_string@DU?$char_traits@D@std@@V?$allocator@D@2@@std@@V?$basic_json@Vmap@std@@Vvector@2@V?$basic_string@DU?$char_traits@D@std@@V?$allocator@D@2@@2@_N_J_KNVallocator@2@Uadl_serializer@nlohmann@@@nlohmann@@@std@@@std@@@std@@U_Iterator_base0@2@@std@@QAEAAV01@XZ 10073ba0 f i KitParser.obj
 0002:00024c50       ??E?$_Vector_const_iterator@V?$_Vector_val@U?$_Simple_types@V?$basic_json@Vmap@std@@Vvector@2@V?$basic_string@DU?$char_traits@D@std@@V?$allocator@D@2@@2@_N_J_KNVallocator@2@Uadl_serializer@nlohmann@@@nlohmann@@@std@@@std@@@std@@QAEAAV01@XZ 10073c50 f i KitParser.obj
 0002:00024c80       ??F?$_Tree_const_iterator@V?$_Tree_val@U?$_Tree_simple_types@U?$pair@$$CBV?$basic_string@DU?$char_traits@D@std@@V?$allocator@D@2@@std@@V12@@std@@@std@@@std@@@std@@QAEAAV01@XZ 10073c80 f i KitParser.obj
 0002:00024cb0       ??F?$_Tree_const_iterator@V?$_Tree_val@U?$_Tree_simple_types@U?$pair@$$CBV?$basic_string@DU?$char_traits@D@std@@V?$allocator@D@2@@std@@V?$basic_json@Vmap@std@@Vvector@2@V?$basic_string@DU?$char_traits@D@std@@V?$allocator@D@2@@2@_N_J_KNVallocator@2@Uadl_serializer@nlohmann@@@nlohmann@@@std@@@std@@@std@@@std@@QAEAAV01@XZ 10073cb0 f i KitParser.obj
 0002:00024ce0       ??F?$_Tree_iterator@V?$_Tree_val@U?$_Tree_simple_types@U?$pair@$$CBV?$basic_string@DU?$char_traits@D@std@@V?$allocator@D@2@@std@@V12@@std@@@std@@@std@@@std@@QAEAAV01@XZ 10073ce0 f i KitParser.obj
 0002:00024d10       ??F?$_Tree_iterator@V?$_Tree_val@U?$_Tree_simple_types@U?$pair@$$CBV?$basic_string@DU?$char_traits@D@std@@V?$allocator@D@2@@std@@V?$basic_json@Vmap@std@@Vvector@2@V?$basic_string@DU?$char_traits@D@std@@V?$allocator@D@2@@2@_N_J_KNVallocator@2@Uadl_serializer@nlohmann@@@nlohmann@@@std@@@std@@@std@@@std@@QAEAAV01@XZ 10073d10 f i KitParser.obj
 0002:00024d40       ??F?$_Tree_unchecked_const_iterator@V?$_Tree_val@U?$_Tree_simple_types@U?$pair@$$CBV?$basic_string@DU?$char_traits@D@std@@V?$allocator@D@2@@std@@V12@@std@@@std@@@std@@U_Iterator_base0@2@@std@@QAEAAV01@XZ 10073d40 f i KitParser.obj
 0002:00024e10       ??F?$_Tree_unchecked_const_iterator@V?$_Tree_val@U?$_Tree_simple_types@U?$pair@$$CBV?$basic_string@DU?$char_traits@D@std@@V?$allocator@D@2@@std@@V?$basic_json@Vmap@std@@Vvector@2@V?$basic_string@DU?$char_traits@D@std@@V?$allocator@D@2@@2@_N_J_KNVallocator@2@Uadl_serializer@nlohmann@@@nlohmann@@@std@@@std@@@std@@U_Iterator_base0@2@@std@@QAEAAV01@XZ 10073e10 f i KitParser.obj
 0002:00024ee0       ??G?$_Array_const_iterator@D$0EA@@std@@QBEHABV01@@Z 10073ee0 f i KitParser.obj
 0002:00024f10       ??G?$_Array_iterator@D$0EA@@std@@QBEHABV?$_Array_const_iterator@D$0EA@@1@@Z 10073f10 f i KitParser.obj
 0002:00024f40       ??G?$_String_const_iterator@V?$_String_val@U?$_Simple_types@D@std@@@std@@@std@@QBE?AV01@H@Z 10073f40 f i KitParser.obj
 0002:00024fb0       ??G?$_Vector_const_iterator@V?$_Vector_val@U?$_Simple_types@V?$basic_json@Vmap@std@@Vvector@2@V?$basic_string@DU?$char_traits@D@std@@V?$allocator@D@2@@2@_N_J_KNVallocator@2@Uadl_serializer@nlohmann@@@nlohmann@@@std@@@std@@@std@@QBE?AV01@H@Z 10073fb0 f i KitParser.obj
 0002:00025020       ??H?$_Array_iterator@D$0EA@@std@@QBE?AV01@H@Z 10074020 f i KitParser.obj
 0002:000253c0       ??R?$less@V?$basic_string@DU?$char_traits@D@std@@V?$allocator@D@2@@std@@@std@@QBE_NABV?$basic_string@DU?$char_traits@D@std@@V?$allocator@D@2@@1@0@Z 100743c0 f i KitParser.obj
 0002:000253f0       ??Y?$_Array_const_iterator@D$0EA@@std@@QAEAAV01@H@Z 100743f0 f i KitParser.obj
 0002:00025420       ??Y?$_Array_iterator@D$0EA@@std@@QAEAAV01@H@Z 10074420 f i KitParser.obj
 0002:00025450       ??Y?$_String_const_iterator@V?$_String_val@U?$_Simple_types@D@std@@@std@@@std@@QAEAAV01@H@Z 10074450 f i KitParser.obj
 0002:00025480       ??Y?$_Vector_const_iterator@V?$_Vector_val@U?$_Simple_types@V?$basic_json@Vmap@std@@Vvector@2@V?$basic_string@DU?$char_traits@D@std@@V?$allocator@D@2@@2@_N_J_KNVallocator@2@Uadl_serializer@nlohmann@@@nlohmann@@@std@@@std@@@std@@QAEAAV01@H@Z 10074480 f i KitParser.obj
 0002:000254c0       ??Y?$basic_string@DU?$char_traits@D@std@@V?$allocator@D@2@@std@@QAEAAV01@ABV01@@Z 100744c0 f i KitParser.obj
 0002:000254f0       ??Y?$basic_string@DU?$char_traits@D@std@@V?$allocator@D@2@@std@@QAEAAV01@QBD@Z 100744f0 f i KitParser.obj
 0002:00025520       ??Z?$_String_const_iterator@V?$_String_val@U?$_Simple_types@D@std@@@std@@@std@@QAEAAV01@H@Z 10074520 f i KitParser.obj
 0002:00025550       ??Z?$_Vector_const_iterator@V?$_Vector_val@U?$_Simple_types@V?$basic_json@Vmap@std@@Vvector@2@V?$basic_string@DU?$char_traits@D@std@@V?$allocator@D@2@@2@_N_J_KNVallocator@2@Uadl_serializer@nlohmann@@@nlohmann@@@std@@@std@@@std@@QAEAAV01@H@Z 10074550 f i KitParser.obj
 0002:00025580       ??_D?$basic_ofstream@DU?$char_traits@D@std@@@std@@QAEXXZ 10074580 f i KitParser.obj
 0002:000255c0       ??_D?$basic_stringstream@DU?$char_traits@D@std@@V?$allocator@D@2@@std@@QAEXXZ 100745c0 f i KitParser.obj
 0002:000255f4       ??_E?$basic_ofstream@DU?$char_traits@D@std@@@std@@$4PPPPPPPM@A@AEPAXI@Z 100745f4 f i KitParser.obj
 0002:000255fe       ??_E?$basic_stringstream@DU?$char_traits@D@std@@V?$allocator@D@2@@std@@$4PPPPPPPM@A@AEPAXI@Z 100745fe f i KitParser.obj
 0002:00025610       ??_G?$_Ref_count_obj@V?$output_stream_adapter@D@detail@nlohmann@@@std@@UAEPAXI@Z 10074610 f i KitParser.obj
 0002:00025610       ??_E?$_Ref_count_obj@V?$output_stream_adapter@D@detail@nlohmann@@@std@@UAEPAXI@Z 10074610 f i KitParser.obj
 0002:00025660       ??_E?$basic_filebuf@DU?$char_traits@D@std@@@std@@UAEPAXI@Z 10074660 f i KitParser.obj
 0002:00025660       ??_G?$basic_filebuf@DU?$char_traits@D@std@@@std@@UAEPAXI@Z 10074660 f i KitParser.obj
 0002:000256b0       ??_G?$basic_json@Vmap@std@@Vvector@2@V?$basic_string@DU?$char_traits@D@std@@V?$allocator@D@2@@2@_N_J_KNVallocator@2@Uadl_serializer@nlohmann@@@nlohmann@@QAEPAXI@Z 100746b0 f i KitParser.obj
 0002:00025700       ??_G?$basic_ofstream@DU?$char_traits@D@std@@@std@@UAEPAXI@Z 10074700 f i KitParser.obj
 0002:00025700       ??_E?$basic_ofstream@DU?$char_traits@D@std@@@std@@UAEPAXI@Z 10074700 f i KitParser.obj
 0002:00025760       ??_G?$basic_string@DU?$char_traits@D@std@@V?$allocator@D@2@@std@@QAEPAXI@Z 10074760 f i KitParser.obj
 0002:000257b0       ??_G?$basic_stringbuf@DU?$char_traits@D@std@@V?$allocator@D@2@@std@@UAEPAXI@Z 100747b0 f i KitParser.obj
 0002:000257b0       ??_E?$basic_stringbuf@DU?$char_traits@D@std@@V?$allocator@D@2@@std@@UAEPAXI@Z 100747b0 f i KitParser.obj
 0002:00025800       ??_E?$basic_stringstream@DU?$char_traits@D@std@@V?$allocator@D@2@@std@@UAEPAXI@Z 10074800 f i KitParser.obj
 0002:00025800       ??_G?$basic_stringstream@DU?$char_traits@D@std@@V?$allocator@D@2@@std@@UAEPAXI@Z 10074800 f i KitParser.obj
 0002:00025860       ??_G?$codecvt_utf8_utf16@_W$0BAPPPP@$0A@@std@@UAEPAXI@Z 10074860 f i KitParser.obj
 0002:00025860       ??_E?$codecvt_utf8_utf16@_W$0BAPPPP@$0A@@std@@UAEPAXI@Z 10074860 f i KitParser.obj
 0002:000258b0       ??_G?$map@V?$basic_string@DU?$char_traits@D@std@@V?$allocator@D@2@@std@@V?$basic_json@Vmap@std@@Vvector@2@V?$basic_string@DU?$char_traits@D@std@@V?$allocator@D@2@@2@_N_J_KNVallocator@2@Uadl_serializer@nlohmann@@@nlohmann@@U?$less@V?$basic_string@DU?$char_traits@D@std@@V?$allocator@D@2@@std@@@2@V?$allocator@U?$pair@$$CBV?$basic_string@DU?$char_traits@D@std@@V?$allocator@D@2@@std@@V?$basic_json@Vmap@std@@Vvector@2@V?$basic_string@DU?$char_traits@D@std@@V?$allocator@D@2@@2@_N_J_KNVallocator@2@Uadl_serializer@nlohmann@@@nlohmann@@@std@@@2@@std@@QAEPAXI@Z 100748b0 f i KitParser.obj
 0002:00025900       ??_G?$output_adapter_protocol@D@detail@nlohmann@@UAEPAXI@Z 10074900 f i KitParser.obj
 0002:00025900       ??_E?$output_adapter_protocol@D@detail@nlohmann@@UAEPAXI@Z 10074900 f i KitParser.obj
 0002:00025950       ??_E?$output_stream_adapter@D@detail@nlohmann@@UAEPAXI@Z 10074950 f i KitParser.obj
 0002:00025950       ??_G?$output_stream_adapter@D@detail@nlohmann@@UAEPAXI@Z 10074950 f i KitParser.obj
 0002:000259a0       ??_G?$pair@$$CBV?$basic_string@DU?$char_traits@D@std@@V?$allocator@D@2@@std@@V12@@std@@QAEPAXI@Z 100749a0 f i KitParser.obj
 0002:000259f0       ??_G?$pair@$$CBV?$basic_string@DU?$char_traits@D@std@@V?$allocator@D@2@@std@@V?$basic_json@Vmap@std@@Vvector@2@V?$basic_string@DU?$char_traits@D@std@@V?$allocator@D@2@@2@_N_J_KNVallocator@2@Uadl_serializer@nlohmann@@@nlohmann@@@std@@QAEPAXI@Z 100749f0 f i KitParser.obj
 0002:00025a40       ??_G?$vector@V?$basic_json@Vmap@std@@Vvector@2@V?$basic_string@DU?$char_traits@D@std@@V?$allocator@D@2@@2@_N_J_KNVallocator@2@Uadl_serializer@nlohmann@@@nlohmann@@V?$allocator@V?$basic_json@Vmap@std@@Vvector@2@V?$basic_string@DU?$char_traits@D@std@@V?$allocator@D@2@@2@_N_J_KNVallocator@2@Uadl_serializer@nlohmann@@@nlohmann@@@std@@@std@@QAEPAXI@Z 10074a40 f i KitParser.obj
 0002:00025a90       ??_G?$wstring_convert@V?$codecvt_utf8_utf16@_W$0BAPPPP@$0A@@std@@_WV?$allocator@_W@2@V?$allocator@D@2@@std@@UAEPAXI@Z 10074a90 f i KitParser.obj
 0002:00025a90       ??_E?$wstring_convert@V?$codecvt_utf8_utf16@_W$0BAPPPP@$0A@@std@@_WV?$allocator@_W@2@V?$allocator@D@2@@std@@UAEPAXI@Z 10074a90 f i KitParser.obj
 0002:00025ae0       ??_G_Ref_count_base@std@@UAEPAXI@Z 10074ae0 f i KitParser.obj
 0002:00025ae0       ??_E_Ref_count_base@std@@UAEPAXI@Z 10074ae0 f i KitParser.obj
 0002:00025b30       ??_Gbad_cast@std@@UAEPAXI@Z 10074b30 f i KitParser.obj
 0002:00025b30       ??_Ebad_cast@std@@UAEPAXI@Z 10074b30 f i KitParser.obj
 0002:00025b80       ??_Gexception@detail@nlohmann@@UAEPAXI@Z 10074b80 f i KitParser.obj
 0002:00025b80       ??_Eexception@detail@nlohmann@@UAEPAXI@Z 10074b80 f i KitParser.obj
 0002:00025bd0       ??_Gexception@std@@UAEPAXI@Z 10074bd0 f i KitParser.obj
 0002:00025bd0       ??_Eexception@std@@UAEPAXI@Z 10074bd0 f i KitParser.obj
 0002:00025c20       ??_Erange_error@std@@UAEPAXI@Z 10074c20 f i KitParser.obj
 0002:00025c20       ??_Grange_error@std@@UAEPAXI@Z 10074c20 f i KitParser.obj
 0002:00025c70       ??_Gruntime_error@std@@UAEPAXI@Z 10074c70 f i KitParser.obj
 0002:00025c70       ??_Eruntime_error@std@@UAEPAXI@Z 10074c70 f i KitParser.obj
 0002:00025cc0       ??_Gtype_error@detail@nlohmann@@UAEPAXI@Z 10074cc0 f i KitParser.obj
 0002:00025cc0       ??_Etype_error@detail@nlohmann@@UAEPAXI@Z 10074cc0 f i KitParser.obj
 0002:00025d10       ?Dump@KitParser@@QAEXXZ    10074d10 f   KitParser.obj
 0002:000264d0       ?_Assign_rv_contents_with_alloc_always_equal@?$basic_string@DU?$char_traits@D@std@@V?$allocator@D@2@@std@@QAEX$$QAV12@U?$integral_constant@_N$00@2@@Z 100754d0 f i KitParser.obj
 0002:00026580       ?_Become_small@?$basic_string@DU?$char_traits@D@std@@V?$allocator@D@2@@std@@QAEXXZ 10075580 f i KitParser.obj
 0002:00026640       ?_Buyheadnode@?$_Tree_comp_alloc@V?$_Tmap_traits@V?$basic_string@DU?$char_traits@D@std@@V?$allocator@D@2@@std@@V?$basic_json@Vmap@std@@Vvector@2@V?$basic_string@DU?$char_traits@D@std@@V?$allocator@D@2@@2@_N_J_KNVallocator@2@Uadl_serializer@nlohmann@@@nlohmann@@U?$less@V?$basic_string@DU?$char_traits@D@std@@V?$allocator@D@2@@std@@@2@V?$allocator@U?$pair@$$CBV?$basic_string@DU?$char_traits@D@std@@V?$allocator@D@2@@std@@V?$basic_json@Vmap@std@@Vvector@2@V?$basic_string@DU?$char_traits@D@std@@V?$allocator@D@2@@2@_N_J_KNVallocator@2@Uadl_serializer@nlohmann@@@nlohmann@@@std@@@2@$0A@@std@@@std@@QAEPAU?$_Tree_node@U?$pair@$$CBV?$basic_string@DU?$char_traits@D@std@@V?$allocator@D@2@@std@@V?$basic_json@Vmap@std@@Vvector@2@V?$basic_string@DU?$char_traits@D@std@@V?$allocator@D@2@@2@_N_J_KNVallocator@2@Uadl_serializer@nlohmann@@@nlohmann@@@std@@PAX@2@XZ 10075640 f i KitParser.obj
 0002:00026790       ?_Buynode0@?$_Tree_comp_alloc@V?$_Tmap_traits@V?$basic_string@DU?$char_traits@D@std@@V?$allocator@D@2@@std@@V12@U?$less@V?$basic_string@DU?$char_traits@D@std@@V?$allocator@D@2@@std@@@2@V?$allocator@U?$pair@$$CBV?$basic_string@DU?$char_traits@D@std@@V?$allocator@D@2@@std@@V12@@std@@@2@$0A@@std@@@std@@QAEPAU?$_Tree_node@U?$pair@$$CBV?$basic_string@DU?$char_traits@D@std@@V?$allocator@D@2@@std@@V12@@std@@PAX@2@XZ 10075790 f i KitParser.obj
 0002:000268d0       ?_Buynode0@?$_Tree_comp_alloc@V?$_Tmap_traits@V?$basic_string@DU?$char_traits@D@std@@V?$allocator@D@2@@std@@V?$basic_json@Vmap@std@@Vvector@2@V?$basic_string@DU?$char_traits@D@std@@V?$allocator@D@2@@2@_N_J_KNVallocator@2@Uadl_serializer@nlohmann@@@nlohmann@@U?$less@V?$basic_string@DU?$char_traits@D@std@@V?$allocator@D@2@@std@@@2@V?$allocator@U?$pair@$$CBV?$basic_string@DU?$char_traits@D@std@@V?$allocator@D@2@@std@@V?$basic_json@Vmap@std@@Vvector@2@V?$basic_string@DU?$char_traits@D@std@@V?$allocator@D@2@@2@_N_J_KNVallocator@2@Uadl_serializer@nlohmann@@@nlohmann@@@std@@@2@$0A@@std@@@std@@QAEPAU?$_Tree_node@U?$pair@$$CBV?$basic_string@DU?$char_traits@D@std@@V?$allocator@D@2@@std@@V?$basic_json@Vmap@std@@Vvector@2@V?$basic_string@DU?$char_traits@D@std@@V?$allocator@D@2@@2@_N_J_KNVallocator@2@Uadl_serializer@nlohmann@@@nlohmann@@@std@@PAX@2@XZ 100758d0 f i KitParser.obj
 0002:00026a10       ?_Check_offset@?$_String_val@U?$_Simple_types@D@std@@@std@@QBEXI@Z 10075a10 f i KitParser.obj
 0002:00026a40       ?_Clamp_suffix_size@?$_String_val@U?$_Simple_types@D@std@@@std@@QBEIII@Z 10075a40 f i KitParser.obj
 0002:00026a80       ?_Compare@?$_Tree@V?$_Tmap_traits@V?$basic_string@DU?$char_traits@D@std@@V?$allocator@D@2@@std@@V12@U?$less@V?$basic_string@DU?$char_traits@D@std@@V?$allocator@D@2@@std@@@2@V?$allocator@U?$pair@$$CBV?$basic_string@DU?$char_traits@D@std@@V?$allocator@D@2@@std@@V12@@std@@@2@$0A@@std@@@std@@IBE_NABV?$basic_string@DU?$char_traits@D@std@@V?$allocator@D@2@@2@0@Z 10075a80 f i KitParser.obj
 0002:00026ac0       ?_Compat@?$_Vector_const_iterator@V?$_Vector_val@U?$_Simple_types@V?$basic_json@Vmap@std@@Vvector@2@V?$basic_string@DU?$char_traits@D@std@@V?$allocator@D@2@@2@_N_J_KNVallocator@2@Uadl_serializer@nlohmann@@@nlohmann@@@std@@@std@@@std@@QBEXABV12@@Z 10075ac0 f i KitParser.obj
 0002:00026ae0       ?_Construct@?$_Tree_comp_alloc@V?$_Tmap_traits@V?$basic_string@DU?$char_traits@D@std@@V?$allocator@D@2@@std@@V?$basic_json@Vmap@std@@Vvector@2@V?$basic_string@DU?$char_traits@D@std@@V?$allocator@D@2@@2@_N_J_KNVallocator@2@Uadl_serializer@nlohmann@@@nlohmann@@U?$less@V?$basic_string@DU?$char_traits@D@std@@V?$allocator@D@2@@std@@@2@V?$allocator@U?$pair@$$CBV?$basic_string@DU?$char_traits@D@std@@V?$allocator@D@2@@std@@V?$basic_json@Vmap@std@@Vvector@2@V?$basic_string@DU?$char_traits@D@std@@V?$allocator@D@2@@2@_N_J_KNVallocator@2@Uadl_serializer@nlohmann@@@nlohmann@@@std@@@2@$0A@@std@@@std@@QAEXXZ 10075ae0 f i KitParser.obj
 0002:00026b10       ?_Construct@?$basic_string@DU?$char_traits@D@std@@V?$allocator@D@2@@std@@QAEXQAD0Urandom_access_iterator_tag@2@@Z 10075b10 f i KitParser.obj
 0002:00026b60       ?_Construct_lv_contents@?$basic_string@DU?$char_traits@D@std@@V?$allocator@D@2@@std@@QAEXABV12@@Z 10075b60 f i KitParser.obj
 0002:00026cc0       ?_Copy_alloc@?$_String_alloc@U?$_String_base_types@DV?$allocator@D@std@@@std@@@std@@QAEXABV?$allocator@D@2@@Z 10075cc0 f i KitParser.obj
 0002:00026d00       ?_Decref@?$_Ptr_base@U?$output_adapter_protocol@D@detail@nlohmann@@@std@@IAEXXZ 10075d00 f i KitParser.obj
 0002:00026d30       ?_Decref@?$_Ptr_base@V?$output_stream_adapter@D@detail@nlohmann@@@std@@IAEXXZ 10075d30 f i KitParser.obj
 0002:00026d60       ?_Decref@_Ref_count_base@std@@QAEXXZ 10075d60 f i KitParser.obj
 0002:00026db0       ?_Decwref@_Ref_count_base@std@@QAEXXZ 10075db0 f i KitParser.obj
 0002:00026df0       ?_Delete_this@?$_Ref_count_obj@V?$output_stream_adapter@D@detail@nlohmann@@@std@@EAEXXZ 10075df0 f i KitParser.obj
 0002:00026e40       ?_Destroy@?$_Ref_count_obj@V?$output_stream_adapter@D@detail@nlohmann@@@std@@EAEXXZ 10075e40 f i KitParser.obj
 0002:00026eb0       ?_Destroy@?$vector@V?$basic_json@Vmap@std@@Vvector@2@V?$basic_string@DU?$char_traits@D@std@@V?$allocator@D@2@@2@_N_J_KNVallocator@2@Uadl_serializer@nlohmann@@@nlohmann@@V?$allocator@V?$basic_json@Vmap@std@@Vvector@2@V?$basic_string@DU?$char_traits@D@std@@V?$allocator@D@2@@2@_N_J_KNVallocator@2@Uadl_serializer@nlohmann@@@nlohmann@@@std@@@std@@AAEXPAV?$basic_json@Vmap@std@@Vvector@2@V?$basic_string@DU?$char_traits@D@std@@V?$allocator@D@2@@2@_N_J_KNVallocator@2@Uadl_serializer@nlohmann@@@nlohmann@@0@Z 10075eb0 f i KitParser.obj
 0002:00026ef0       ?_Destroy_if_node@?$_Tree@V?$_Tmap_traits@V?$basic_string@DU?$char_traits@D@std@@V?$allocator@D@2@@std@@V12@U?$less@V?$basic_string@DU?$char_traits@D@std@@V?$allocator@D@2@@std@@@2@V?$allocator@U?$pair@$$CBV?$basic_string@DU?$char_traits@D@std@@V?$allocator@D@2@@std@@V12@@std@@@2@$0A@@std@@@std@@IAEXPAU?$_Tree_node@U?$pair@$$CBV?$basic_string@DU?$char_traits@D@std@@V?$allocator@D@2@@std@@V12@@std@@PAX@2@@Z 10075ef0 f i KitParser.obj
 0002:00026f50       ?_Destroy_if_node@?$_Tree@V?$_Tmap_traits@V?$basic_string@DU?$char_traits@D@std@@V?$allocator@D@2@@std@@V?$basic_json@Vmap@std@@Vvector@2@V?$basic_string@DU?$char_traits@D@std@@V?$allocator@D@2@@2@_N_J_KNVallocator@2@Uadl_serializer@nlohmann@@@nlohmann@@U?$less@V?$basic_string@DU?$char_traits@D@std@@V?$allocator@D@2@@std@@@2@V?$allocator@U?$pair@$$CBV?$basic_string@DU?$char_traits@D@std@@V?$allocator@D@2@@std@@V?$basic_json@Vmap@std@@Vvector@2@V?$basic_string@DU?$char_traits@D@std@@V?$allocator@D@2@@2@_N_J_KNVallocator@2@Uadl_serializer@nlohmann@@@nlohmann@@@std@@@2@$0A@@std@@@std@@IAEXPAU?$_Tree_node@U?$pair@$$CBV?$basic_string@DU?$char_traits@D@std@@V?$allocator@D@2@@std@@V?$basic_json@Vmap@std@@Vvector@2@V?$basic_string@DU?$char_traits@D@std@@V?$allocator@D@2@@2@_N_J_KNVallocator@2@Uadl_serializer@nlohmann@@@nlohmann@@@std@@PAX@2@@Z 10075f50 f i KitParser.obj
 0002:00026fb0       ?_Endwrite@?$basic_filebuf@DU?$char_traits@D@std@@@std@@IAE_NXZ 10075fb0 f i KitParser.obj
 0002:00027290       ?_Eos@?$basic_string@DU?$char_traits@D@std@@V?$allocator@D@2@@std@@QAEXI@Z 10076290 f i KitParser.obj
 0002:000272f0       ?_Erase@?$_Tree@V?$_Tmap_traits@V?$basic_string@DU?$char_traits@D@std@@V?$allocator@D@2@@std@@V?$basic_json@Vmap@std@@Vvector@2@V?$basic_string@DU?$char_traits@D@std@@V?$allocator@D@2@@2@_N_J_KNVallocator@2@Uadl_serializer@nlohmann@@@nlohmann@@U?$less@V?$basic_string@DU?$char_traits@D@std@@V?$allocator@D@2@@std@@@2@V?$allocator@U?$pair@$$CBV?$basic_string@DU?$char_traits@D@std@@V?$allocator@D@2@@std@@V?$basic_json@Vmap@std@@Vvector@2@V?$basic_string@DU?$char_traits@D@std@@V?$allocator@D@2@@2@_N_J_KNVallocator@2@Uadl_serializer@nlohmann@@@nlohmann@@@std@@@2@$0A@@std@@@std@@IAEXPAU?$_Tree_node@U?$pair@$$CBV?$basic_string@DU?$char_traits@D@std@@V?$allocator@D@2@@std@@V?$basic_json@Vmap@std@@Vvector@2@V?$basic_string@DU?$char_traits@D@std@@V?$allocator@D@2@@2@_N_J_KNVallocator@2@Uadl_serializer@nlohmann@@@nlohmann@@@std@@PAX@2@@Z 100762f0 f i KitParser.obj
 0002:00027390       ?_Extract@?$_Tree@V?$_Tmap_traits@V?$basic_string@DU?$char_traits@D@std@@V?$allocator@D@2@@std@@V?$basic_json@Vmap@std@@Vvector@2@V?$basic_string@DU?$char_traits@D@std@@V?$allocator@D@2@@2@_N_J_KNVallocator@2@Uadl_serializer@nlohmann@@@nlohmann@@U?$less@V?$basic_string@DU?$char_traits@D@std@@V?$allocator@D@2@@std@@@2@V?$allocator@U?$pair@$$CBV?$basic_string@DU?$char_traits@D@std@@V?$allocator@D@2@@std@@V?$basic_json@Vmap@std@@Vvector@2@V?$basic_string@DU?$char_traits@D@std@@V?$allocator@D@2@@2@_N_J_KNVallocator@2@Uadl_serializer@nlohmann@@@nlohmann@@@std@@@2@$0A@@std@@@std@@QAEPAU?$_Tree_node@U?$pair@$$CBV?$basic_string@DU?$char_traits@D@std@@V?$allocator@D@2@@std@@V?$basic_json@Vmap@std@@Vvector@2@V?$basic_string@DU?$char_traits@D@std@@V?$allocator@D@2@@2@_N_J_KNVallocator@2@Uadl_serializer@nlohmann@@@nlohmann@@@std@@PAX@2@V?$_Tree_const_iterator@V?$_Tree_val@U?$_Tree_simple_types@U?$pair@$$CBV?$basic_string@DU?$char_traits@D@std@@V?$allocator@D@2@@std@@V?$basic_json@Vmap@std@@Vvector@2@V?$basic_string@DU?$char_traits@D@std@@V?$allocator@D@2@@2@_N_J_KNVallocator@2@Uadl_serializer@nlohmann@@@nlohmann@@@std@@@std@@@std@@@2@@Z 10076390 f i KitParser.obj
 0002:000278f0       ?_Freeheadnode@?$_Tree_comp_alloc@V?$_Tmap_traits@V?$basic_string@DU?$char_traits@D@std@@V?$allocator@D@2@@std@@V?$basic_json@Vmap@std@@Vvector@2@V?$basic_string@DU?$char_traits@D@std@@V?$allocator@D@2@@2@_N_J_KNVallocator@2@Uadl_serializer@nlohmann@@@nlohmann@@U?$less@V?$basic_string@DU?$char_traits@D@std@@V?$allocator@D@2@@std@@@2@V?$allocator@U?$pair@$$CBV?$basic_string@DU?$char_traits@D@std@@V?$allocator@D@2@@std@@V?$basic_json@Vmap@std@@Vvector@2@V?$basic_string@DU?$char_traits@D@std@@V?$allocator@D@2@@2@_N_J_KNVallocator@2@Uadl_serializer@nlohmann@@@nlohmann@@@std@@@2@$0A@@std@@@std@@QAEXPAU?$_Tree_node@U?$pair@$$CBV?$basic_string@DU?$char_traits@D@std@@V?$allocator@D@2@@std@@V?$basic_json@Vmap@std@@Vvector@2@V?$basic_string@DU?$char_traits@D@std@@V?$allocator@D@2@@2@_N_J_KNVallocator@2@Uadl_serializer@nlohmann@@@nlohmann@@@std@@PAX@2@@Z 100768f0 f i KitParser.obj
 0002:00027930       ?_Freenode0@?$_Tree_comp_alloc@V?$_Tmap_traits@V?$basic_string@DU?$char_traits@D@std@@V?$allocator@D@2@@std@@V12@U?$less@V?$basic_string@DU?$char_traits@D@std@@V?$allocator@D@2@@std@@@2@V?$allocator@U?$pair@$$CBV?$basic_string@DU?$char_traits@D@std@@V?$allocator@D@2@@std@@V12@@std@@@2@$0A@@std@@@std@@QAEXPAU?$_Tree_node@U?$pair@$$CBV?$basic_string@DU?$char_traits@D@std@@V?$allocator@D@2@@std@@V12@@std@@PAX@2@@Z 10076930 f i KitParser.obj
 0002:00027970       ?_Freenode0@?$_Tree_comp_alloc@V?$_Tmap_traits@V?$basic_string@DU?$char_traits@D@std@@V?$allocator@D@2@@std@@V?$basic_json@Vmap@std@@Vvector@2@V?$basic_string@DU?$char_traits@D@std@@V?$allocator@D@2@@2@_N_J_KNVallocator@2@Uadl_serializer@nlohmann@@@nlohmann@@U?$less@V?$basic_string@DU?$char_traits@D@std@@V?$allocator@D@2@@std@@@2@V?$allocator@U?$pair@$$CBV?$basic_string@DU?$char_traits@D@std@@V?$allocator@D@2@@std@@V?$basic_json@Vmap@std@@Vvector@2@V?$basic_string@DU?$char_traits@D@std@@V?$allocator@D@2@@2@_N_J_KNVallocator@2@Uadl_serializer@nlohmann@@@nlohmann@@@std@@@2@$0A@@std@@@std@@QAEXPAU?$_Tree_node@U?$pair@$$CBV?$basic_string@DU?$char_traits@D@std@@V?$allocator@D@2@@std@@V?$basic_json@Vmap@std@@Vvector@2@V?$basic_string@DU?$char_traits@D@std@@V?$allocator@D@2@@2@_N_J_KNVallocator@2@Uadl_serializer@nlohmann@@@nlohmann@@@std@@PAX@2@@Z 10076970 f i KitParser.obj
 0002:000279b0       ?_Get_data@?$_String_alloc@U?$_String_base_types@_WV?$allocator@_W@std@@@std@@@std@@QAEAAV?$_String_val@U?$_Simple_types@_W@std@@@2@XZ 100769b0 f i KitParser.obj
 0002:000279e0       ?_Get_data@?$_Tree_comp_alloc@V?$_Tmap_traits@V?$basic_string@DU?$char_traits@D@std@@V?$allocator@D@2@@std@@V12@U?$less@V?$basic_string@DU?$char_traits@D@std@@V?$allocator@D@2@@std@@@2@V?$allocator@U?$pair@$$CBV?$basic_string@DU?$char_traits@D@std@@V?$allocator@D@2@@std@@V12@@std@@@2@$0A@@std@@@std@@QAEAAV?$_Tree_val@U?$_Tree_simple_types@U?$pair@$$CBV?$basic_string@DU?$char_traits@D@std@@V?$allocator@D@2@@std@@V12@@std@@@std@@@2@XZ 100769e0 f i KitParser.obj
 0002:00027a10       ?_Get_data@?$_Tree_comp_alloc@V?$_Tmap_traits@V?$basic_string@DU?$char_traits@D@std@@V?$allocator@D@2@@std@@V12@U?$less@V?$basic_string@DU?$char_traits@D@std@@V?$allocator@D@2@@std@@@2@V?$allocator@U?$pair@$$CBV?$basic_string@DU?$char_traits@D@std@@V?$allocator@D@2@@std@@V12@@std@@@2@$0A@@std@@@std@@QBEABV?$_Tree_val@U?$_Tree_simple_types@U?$pair@$$CBV?$basic_string@DU?$char_traits@D@std@@V?$allocator@D@2@@std@@V12@@std@@@std@@@2@XZ 10076a10 f i KitParser.obj
 0002:00027a40       ?_Get_data@?$_Tree_comp_alloc@V?$_Tmap_traits@V?$basic_string@DU?$char_traits@D@std@@V?$allocator@D@2@@std@@V?$basic_json@Vmap@std@@Vvector@2@V?$basic_string@DU?$char_traits@D@std@@V?$allocator@D@2@@2@_N_J_KNVallocator@2@Uadl_serializer@nlohmann@@@nlohmann@@U?$less@V?$basic_string@DU?$char_traits@D@std@@V?$allocator@D@2@@std@@@2@V?$allocator@U?$pair@$$CBV?$basic_string@DU?$char_traits@D@std@@V?$allocator@D@2@@std@@V?$basic_json@Vmap@std@@Vvector@2@V?$basic_string@DU?$char_traits@D@std@@V?$allocator@D@2@@2@_N_J_KNVallocator@2@Uadl_serializer@nlohmann@@@nlohmann@@@std@@@2@$0A@@std@@@std@@QAEAAV?$_Tree_val@U?$_Tree_simple_types@U?$pair@$$CBV?$basic_string@DU?$char_traits@D@std@@V?$allocator@D@2@@std@@V?$basic_json@Vmap@std@@Vvector@2@V?$basic_string@DU?$char_traits@D@std@@V?$allocator@D@2@@2@_N_J_KNVallocator@2@Uadl_serializer@nlohmann@@@nlohmann@@@std@@@std@@@2@XZ 10076a40 f i KitParser.obj
 0002:00027a70       ?_Get_data@?$_Tree_comp_alloc@V?$_Tmap_traits@V?$basic_string@DU?$char_traits@D@std@@V?$allocator@D@2@@std@@V?$basic_json@Vmap@std@@Vvector@2@V?$basic_string@DU?$char_traits@D@std@@V?$allocator@D@2@@2@_N_J_KNVallocator@2@Uadl_serializer@nlohmann@@@nlohmann@@U?$less@V?$basic_string@DU?$char_traits@D@std@@V?$allocator@D@2@@std@@@2@V?$allocator@U?$pair@$$CBV?$basic_string@DU?$char_traits@D@std@@V?$allocator@D@2@@std@@V?$basic_json@Vmap@std@@Vvector@2@V?$basic_string@DU?$char_traits@D@std@@V?$allocator@D@2@@2@_N_J_KNVallocator@2@Uadl_serializer@nlohmann@@@nlohmann@@@std@@@2@$0A@@std@@@std@@QBEABV?$_Tree_val@U?$_Tree_simple_types@U?$pair@$$CBV?$basic_string@DU?$char_traits@D@std@@V?$allocator@D@2@@std@@V?$basic_json@Vmap@std@@Vvector@2@V?$basic_string@DU?$char_traits@D@std@@V?$allocator@D@2@@2@_N_J_KNVallocator@2@Uadl_serializer@nlohmann@@@nlohmann@@@std@@@std@@@2@XZ 10076a70 f i KitParser.obj
 0002:00027aa0       ?_Get_data@?$_Vector_alloc@U?$_Vec_base_types@V?$basic_json@Vmap@std@@Vvector@2@V?$basic_string@DU?$char_traits@D@std@@V?$allocator@D@2@@2@_N_J_KNVallocator@2@Uadl_serializer@nlohmann@@@nlohmann@@V?$allocator@V?$basic_json@Vmap@std@@Vvector@2@V?$basic_string@DU?$char_traits@D@std@@V?$allocator@D@2@@2@_N_J_KNVallocator@2@Uadl_serializer@nlohmann@@@nlohmann@@@std@@@std@@@std@@QAEAAV?$_Vector_val@U?$_Simple_types@V?$basic_json@Vmap@std@@Vvector@2@V?$basic_string@DU?$char_traits@D@std@@V?$allocator@D@2@@2@_N_J_KNVallocator@2@Uadl_serializer@nlohmann@@@nlohmann@@@std@@@2@XZ 10076aa0 f i KitParser.obj
 0002:00027ad0       ?_Get_data@?$_Vector_alloc@U?$_Vec_base_types@V?$basic_json@Vmap@std@@Vvector@2@V?$basic_string@DU?$char_traits@D@std@@V?$allocator@D@2@@2@_N_J_KNVallocator@2@Uadl_serializer@nlohmann@@@nlohmann@@V?$allocator@V?$basic_json@Vmap@std@@Vvector@2@V?$basic_string@DU?$char_traits@D@std@@V?$allocator@D@2@@2@_N_J_KNVallocator@2@Uadl_serializer@nlohmann@@@nlohmann@@@std@@@std@@@std@@QBEABV?$_Vector_val@U?$_Simple_types@V?$basic_json@Vmap@std@@Vvector@2@V?$basic_string@DU?$char_traits@D@std@@V?$allocator@D@2@@2@_N_J_KNVallocator@2@Uadl_serializer@nlohmann@@@nlohmann@@@std@@@2@XZ 10076ad0 f i KitParser.obj
 0002:00027b00       ?_Get_deleter@_Ref_count_base@std@@UBEPAXABVtype_info@@@Z 10076b00 f i KitParser.obj
 0002:00027b20       ?_Get_first@?$_Compressed_pair@U?$less@V?$basic_string@DU?$char_traits@D@std@@V?$allocator@D@2@@std@@@std@@V?$_Compressed_pair@V?$allocator@U?$_Tree_node@U?$pair@$$CBV?$basic_string@DU?$char_traits@D@std@@V?$allocator@D@2@@std@@V12@@std@@PAX@std@@@std@@V?$_Tree_val@U?$_Tree_simple_types@U?$pair@$$CBV?$basic_string@DU?$char_traits@D@std@@V?$allocator@D@2@@std@@V12@@std@@@std@@@2@$00@2@$00@std@@QAEAAU?$less@V?$basic_string@DU?$char_traits@D@std@@V?$allocator@D@2@@std@@@2@XZ 10076b20 f i KitParser.obj
 0002:00027b40       ?_Get_first@?$_Compressed_pair@U?$less@V?$basic_string@DU?$char_traits@D@std@@V?$allocator@D@2@@std@@@std@@V?$_Compressed_pair@V?$allocator@U?$_Tree_node@U?$pair@$$CBV?$basic_string@DU?$char_traits@D@std@@V?$allocator@D@2@@std@@V12@@std@@PAX@std@@@std@@V?$_Tree_val@U?$_Tree_simple_types@U?$pair@$$CBV?$basic_string@DU?$char_traits@D@std@@V?$allocator@D@2@@std@@V12@@std@@@std@@@2@$00@2@$00@std@@QBEABU?$less@V?$basic_string@DU?$char_traits@D@std@@V?$allocator@D@2@@std@@@2@XZ 10076b40 f i KitParser.obj
 0002:00027b60       ?_Get_first@?$_Compressed_pair@U?$less@V?$basic_string@DU?$char_traits@D@std@@V?$allocator@D@2@@std@@@std@@V?$_Compressed_pair@V?$allocator@U?$_Tree_node@U?$pair@$$CBV?$basic_string@DU?$char_traits@D@std@@V?$allocator@D@2@@std@@V?$basic_json@Vmap@std@@Vvector@2@V?$basic_string@DU?$char_traits@D@std@@V?$allocator@D@2@@2@_N_J_KNVallocator@2@Uadl_serializer@nlohmann@@@nlohmann@@@std@@PAX@std@@@std@@V?$_Tree_val@U?$_Tree_simple_types@U?$pair@$$CBV?$basic_string@DU?$char_traits@D@std@@V?$allocator@D@2@@std@@V?$basic_json@Vmap@std@@Vvector@2@V?$basic_string@DU?$char_traits@D@std@@V?$allocator@D@2@@2@_N_J_KNVallocator@2@Uadl_serializer@nlohmann@@@nlohmann@@@std@@@std@@@2@$00@2@$00@std@@QAEAAU?$less@V?$basic_string@DU?$char_traits@D@std@@V?$allocator@D@2@@std@@@2@XZ 10076b60 f i KitParser.obj
 0002:00027bc0       ?_Get_first@?$_Compressed_pair@V?$allocator@U?$_Tree_node@U?$pair@$$CBV?$basic_string@DU?$char_traits@D@std@@V?$allocator@D@2@@std@@V12@@std@@PAX@std@@@std@@V?$_Tree_val@U?$_Tree_simple_types@U?$pair@$$CBV?$basic_string@DU?$char_traits@D@std@@V?$allocator@D@2@@std@@V12@@std@@@std@@@2@$00@std@@QAEAAV?$allocator@U?$_Tree_node@U?$pair@$$CBV?$basic_string@DU?$char_traits@D@std@@V?$allocator@D@2@@std@@V12@@std@@PAX@std@@@2@XZ 10076bc0 f i KitParser.obj
 0002:00027be0       ?_Get_first@?$_Compressed_pair@V?$allocator@U?$_Tree_node@U?$pair@$$CBV?$basic_string@DU?$char_traits@D@std@@V?$allocator@D@2@@std@@V12@@std@@PAX@std@@@std@@V?$_Tree_val@U?$_Tree_simple_types@U?$pair@$$CBV?$basic_string@DU?$char_traits@D@std@@V?$allocator@D@2@@std@@V12@@std@@@std@@@2@$00@std@@QBEABV?$allocator@U?$_Tree_node@U?$pair@$$CBV?$basic_string@DU?$char_traits@D@std@@V?$allocator@D@2@@std@@V12@@std@@PAX@std@@@2@XZ 10076be0 f i KitParser.obj
 0002:00027c00       ?_Get_first@?$_Compressed_pair@V?$allocator@U?$_Tree_node@U?$pair@$$CBV?$basic_string@DU?$char_traits@D@std@@V?$allocator@D@2@@std@@V?$basic_json@Vmap@std@@Vvector@2@V?$basic_string@DU?$char_traits@D@std@@V?$allocator@D@2@@2@_N_J_KNVallocator@2@Uadl_serializer@nlohmann@@@nlohmann@@@std@@PAX@std@@@std@@V?$_Tree_val@U?$_Tree_simple_types@U?$pair@$$CBV?$basic_string@DU?$char_traits@D@std@@V?$allocator@D@2@@std@@V?$basic_json@Vmap@std@@Vvector@2@V?$basic_string@DU?$char_traits@D@std@@V?$allocator@D@2@@2@_N_J_KNVallocator@2@Uadl_serializer@nlohmann@@@nlohmann@@@std@@@std@@@2@$00@std@@QAEAAV?$allocator@U?$_Tree_node@U?$pair@$$CBV?$basic_string@DU?$char_traits@D@std@@V?$allocator@D@2@@std@@V?$basic_json@Vmap@std@@Vvector@2@V?$basic_string@DU?$char_traits@D@std@@V?$allocator@D@2@@2@_N_J_KNVallocator@2@Uadl_serializer@nlohmann@@@nlohmann@@@std@@PAX@std@@@2@XZ 10076c00 f i KitParser.obj
 0002:00027c20       ?_Get_first@?$_Compressed_pair@V?$allocator@U?$_Tree_node@U?$pair@$$CBV?$basic_string@DU?$char_traits@D@std@@V?$allocator@D@2@@std@@V?$basic_json@Vmap@std@@Vvector@2@V?$basic_string@DU?$char_traits@D@std@@V?$allocator@D@2@@2@_N_J_KNVallocator@2@Uadl_serializer@nlohmann@@@nlohmann@@@std@@PAX@std@@@std@@V?$_Tree_val@U?$_Tree_simple_types@U?$pair@$$CBV?$basic_string@DU?$char_traits@D@std@@V?$allocator@D@2@@std@@V?$basic_json@Vmap@std@@Vvector@2@V?$basic_string@DU?$char_traits@D@std@@V?$allocator@D@2@@2@_N_J_KNVallocator@2@Uadl_serializer@nlohmann@@@nlohmann@@@std@@@std@@@2@$00@std@@QBEABV?$allocator@U?$_Tree_node@U?$pair@$$CBV?$basic_string@DU?$char_traits@D@std@@V?$allocator@D@2@@std@@V?$basic_json@Vmap@std@@Vvector@2@V?$basic_string@DU?$char_traits@D@std@@V?$allocator@D@2@@2@_N_J_KNVallocator@2@Uadl_serializer@nlohmann@@@nlohmann@@@std@@PAX@std@@@2@XZ 10076c20 f i KitParser.obj
 0002:00027c40       ?_Get_first@?$_Compressed_pair@V?$allocator@V?$basic_json@Vmap@std@@Vvector@2@V?$basic_string@DU?$char_traits@D@std@@V?$allocator@D@2@@2@_N_J_KNVallocator@2@Uadl_serializer@nlohmann@@@nlohmann@@@std@@V?$_Vector_val@U?$_Simple_types@V?$basic_json@Vmap@std@@Vvector@2@V?$basic_string@DU?$char_traits@D@std@@V?$allocator@D@2@@2@_N_J_KNVallocator@2@Uadl_serializer@nlohmann@@@nlohmann@@@std@@@2@$00@std@@QAEAAV?$allocator@V?$basic_json@Vmap@std@@Vvector@2@V?$basic_string@DU?$char_traits@D@std@@V?$allocator@D@2@@2@_N_J_KNVallocator@2@Uadl_serializer@nlohmann@@@nlohmann@@@2@XZ 10076c40 f i KitParser.obj
 0002:00027c60       ?_Get_first@?$_Compressed_pair@V?$allocator@_W@std@@V?$_String_val@U?$_Simple_types@_W@std@@@2@$00@std@@QAEAAV?$allocator@_W@2@XZ 10076c60 f i KitParser.obj
 0002:00027c80       ?_Get_second@?$_Compressed_pair@U?$less@V?$basic_string@DU?$char_traits@D@std@@V?$allocator@D@2@@std@@@std@@V?$_Compressed_pair@V?$allocator@U?$_Tree_node@U?$pair@$$CBV?$basic_string@DU?$char_traits@D@std@@V?$allocator@D@2@@std@@V12@@std@@PAX@std@@@std@@V?$_Tree_val@U?$_Tree_simple_types@U?$pair@$$CBV?$basic_string@DU?$char_traits@D@std@@V?$allocator@D@2@@std@@V12@@std@@@std@@@2@$00@2@$00@std@@QAEAAV?$_Compressed_pair@V?$allocator@U?$_Tree_node@U?$pair@$$CBV?$basic_string@DU?$char_traits@D@std@@V?$allocator@D@2@@std@@V12@@std@@PAX@std@@@std@@V?$_Tree_val@U?$_Tree_simple_types@U?$pair@$$CBV?$basic_string@DU?$char_traits@D@std@@V?$allocator@D@2@@std@@V12@@std@@@std@@@2@$00@2@XZ 10076c80 f i KitParser.obj
 0002:00027ca0       ?_Get_second@?$_Compressed_pair@U?$less@V?$basic_string@DU?$char_traits@D@std@@V?$allocator@D@2@@std@@@std@@V?$_Compressed_pair@V?$allocator@U?$_Tree_node@U?$pair@$$CBV?$basic_string@DU?$char_traits@D@std@@V?$allocator@D@2@@std@@V12@@std@@PAX@std@@@std@@V?$_Tree_val@U?$_Tree_simple_types@U?$pair@$$CBV?$basic_string@DU?$char_traits@D@std@@V?$allocator@D@2@@std@@V12@@std@@@std@@@2@$00@2@$00@std@@QBEABV?$_Compressed_pair@V?$allocator@U?$_Tree_node@U?$pair@$$CBV?$basic_string@DU?$char_traits@D@std@@V?$allocator@D@2@@std@@V12@@std@@PAX@std@@@std@@V?$_Tree_val@U?$_Tree_simple_types@U?$pair@$$CBV?$basic_string@DU?$char_traits@D@std@@V?$allocator@D@2@@std@@V12@@std@@@std@@@2@$00@2@XZ 10076ca0 f i KitParser.obj
 0002:00027cc0       ?_Get_second@?$_Compressed_pair@U?$less@V?$basic_string@DU?$char_traits@D@std@@V?$allocator@D@2@@std@@@std@@V?$_Compressed_pair@V?$allocator@U?$_Tree_node@U?$pair@$$CBV?$basic_string@DU?$char_traits@D@std@@V?$allocator@D@2@@std@@V?$basic_json@Vmap@std@@Vvector@2@V?$basic_string@DU?$char_traits@D@std@@V?$allocator@D@2@@2@_N_J_KNVallocator@2@Uadl_serializer@nlohmann@@@nlohmann@@@std@@PAX@std@@@std@@V?$_Tree_val@U?$_Tree_simple_types@U?$pair@$$CBV?$basic_string@DU?$char_traits@D@std@@V?$allocator@D@2@@std@@V?$basic_json@Vmap@std@@Vvector@2@V?$basic_string@DU?$char_traits@D@std@@V?$allocator@D@2@@2@_N_J_KNVallocator@2@Uadl_serializer@nlohmann@@@nlohmann@@@std@@@std@@@2@$00@2@$00@std@@QAEAAV?$_Compressed_pair@V?$allocator@U?$_Tree_node@U?$pair@$$CBV?$basic_string@DU?$char_traits@D@std@@V?$allocator@D@2@@std@@V?$basic_json@Vmap@std@@Vvector@2@V?$basic_string@DU?$char_traits@D@std@@V?$allocator@D@2@@2@_N_J_KNVallocator@2@Uadl_serializer@nlohmann@@@nlohmann@@@std@@PAX@std@@@std@@V?$_Tree_val@U?$_Tree_simple_types@U?$pair@$$CBV?$basic_string@DU?$char_traits@D@std@@V?$allocator@D@2@@std@@V?$basic_json@Vmap@std@@Vvector@2@V?$basic_string@DU?$char_traits@D@std@@V?$allocator@D@2@@2@_N_J_KNVallocator@2@Uadl_serializer@nlohmann@@@nlohmann@@@std@@@std@@@2@$00@2@XZ 10076cc0 f i KitParser.obj
 0002:00027ce0       ?_Get_second@?$_Compressed_pair@U?$less@V?$basic_string@DU?$char_traits@D@std@@V?$allocator@D@2@@std@@@std@@V?$_Compressed_pair@V?$allocator@U?$_Tree_node@U?$pair@$$CBV?$basic_string@DU?$char_traits@D@std@@V?$allocator@D@2@@std@@V?$basic_json@Vmap@std@@Vvector@2@V?$basic_string@DU?$char_traits@D@std@@V?$allocator@D@2@@2@_N_J_KNVallocator@2@Uadl_serializer@nlohmann@@@nlohmann@@@std@@PAX@std@@@std@@V?$_Tree_val@U?$_Tree_simple_types@U?$pair@$$CBV?$basic_string@DU?$char_traits@D@std@@V?$allocator@D@2@@std@@V?$basic_json@Vmap@std@@Vvector@2@V?$basic_string@DU?$char_traits@D@std@@V?$allocator@D@2@@2@_N_J_KNVallocator@2@Uadl_serializer@nlohmann@@@nlohmann@@@std@@@std@@@2@$00@2@$00@std@@QBEABV?$_Compressed_pair@V?$allocator@U?$_Tree_node@U?$pair@$$CBV?$basic_string@DU?$char_traits@D@std@@V?$allocator@D@2@@std@@V?$basic_json@Vmap@std@@Vvector@2@V?$basic_string@DU?$char_traits@D@std@@V?$allocator@D@2@@2@_N_J_KNVallocator@2@Uadl_serializer@nlohmann@@@nlohmann@@@std@@PAX@std@@@std@@V?$_Tree_val@U?$_Tree_simple_types@U?$pair@$$CBV?$basic_string@DU?$char_traits@D@std@@V?$allocator@D@2@@std@@V?$basic_json@Vmap@std@@Vvector@2@V?$basic_string@DU?$char_traits@D@std@@V?$allocator@D@2@@2@_N_J_KNVallocator@2@Uadl_serializer@nlohmann@@@nlohmann@@@std@@@std@@@2@$00@2@XZ 10076ce0 f i KitParser.obj
 0002:00027d80       ?_Get_second@?$_Compressed_pair@V?$allocator@U?$_Tree_node@U?$pair@$$CBV?$basic_string@DU?$char_traits@D@std@@V?$allocator@D@2@@std@@V12@@std@@PAX@std@@@std@@V?$_Tree_val@U?$_Tree_simple_types@U?$pair@$$CBV?$basic_string@DU?$char_traits@D@std@@V?$allocator@D@2@@std@@V12@@std@@@std@@@2@$00@std@@QAEAAV?$_Tree_val@U?$_Tree_simple_types@U?$pair@$$CBV?$basic_string@DU?$char_traits@D@std@@V?$allocator@D@2@@std@@V12@@std@@@std@@@2@XZ 10076d80 f i KitParser.obj
 0002:00027da0       ?_Get_second@?$_Compressed_pair@V?$allocator@U?$_Tree_node@U?$pair@$$CBV?$basic_string@DU?$char_traits@D@std@@V?$allocator@D@2@@std@@V12@@std@@PAX@std@@@std@@V?$_Tree_val@U?$_Tree_simple_types@U?$pair@$$CBV?$basic_string@DU?$char_traits@D@std@@V?$allocator@D@2@@std@@V12@@std@@@std@@@2@$00@std@@QBEABV?$_Tree_val@U?$_Tree_simple_types@U?$pair@$$CBV?$basic_string@DU?$char_traits@D@std@@V?$allocator@D@2@@std@@V12@@std@@@std@@@2@XZ 10076da0 f i KitParser.obj
 0002:00027dc0       ?_Get_second@?$_Compressed_pair@V?$allocator@U?$_Tree_node@U?$pair@$$CBV?$basic_string@DU?$char_traits@D@std@@V?$allocator@D@2@@std@@V?$basic_json@Vmap@std@@Vvector@2@V?$basic_string@DU?$char_traits@D@std@@V?$allocator@D@2@@2@_N_J_KNVallocator@2@Uadl_serializer@nlohmann@@@nlohmann@@@std@@PAX@std@@@std@@V?$_Tree_val@U?$_Tree_simple_types@U?$pair@$$CBV?$basic_string@DU?$char_traits@D@std@@V?$allocator@D@2@@std@@V?$basic_json@Vmap@std@@Vvector@2@V?$basic_string@DU?$char_traits@D@std@@V?$allocator@D@2@@2@_N_J_KNVallocator@2@Uadl_serializer@nlohmann@@@nlohmann@@@std@@@std@@@2@$00@std@@QAEAAV?$_Tree_val@U?$_Tree_simple_types@U?$pair@$$CBV?$basic_string@DU?$char_traits@D@std@@V?$allocator@D@2@@std@@V?$basic_json@Vmap@std@@Vvector@2@V?$basic_string@DU?$char_traits@D@std@@V?$allocator@D@2@@2@_N_J_KNVallocator@2@Uadl_serializer@nlohmann@@@nlohmann@@@std@@@std@@@2@XZ 10076dc0 f i KitParser.obj
 0002:00027de0       ?_Get_second@?$_Compressed_pair@V?$allocator@U?$_Tree_node@U?$pair@$$CBV?$basic_string@DU?$char_traits@D@std@@V?$allocator@D@2@@std@@V?$basic_json@Vmap@std@@Vvector@2@V?$basic_string@DU?$char_traits@D@std@@V?$allocator@D@2@@2@_N_J_KNVallocator@2@Uadl_serializer@nlohmann@@@nlohmann@@@std@@PAX@std@@@std@@V?$_Tree_val@U?$_Tree_simple_types@U?$pair@$$CBV?$basic_string@DU?$char_traits@D@std@@V?$allocator@D@2@@std@@V?$basic_json@Vmap@std@@Vvector@2@V?$basic_string@DU?$char_traits@D@std@@V?$allocator@D@2@@2@_N_J_KNVallocator@2@Uadl_serializer@nlohmann@@@nlohmann@@@std@@@std@@@2@$00@std@@QBEABV?$_Tree_val@U?$_Tree_simple_types@U?$pair@$$CBV?$basic_string@DU?$char_traits@D@std@@V?$allocator@D@2@@std@@V?$basic_json@Vmap@std@@Vvector@2@V?$basic_string@DU?$char_traits@D@std@@V?$allocator@D@2@@2@_N_J_KNVallocator@2@Uadl_serializer@nlohmann@@@nlohmann@@@std@@@std@@@2@XZ 10076de0 f i KitParser.obj
 0002:00027e00       ?_Get_second@?$_Compressed_pair@V?$allocator@V?$basic_json@Vmap@std@@Vvector@2@V?$basic_string@DU?$char_traits@D@std@@V?$allocator@D@2@@2@_N_J_KNVallocator@2@Uadl_serializer@nlohmann@@@nlohmann@@@std@@V?$_Vector_val@U?$_Simple_types@V?$basic_json@Vmap@std@@Vvector@2@V?$basic_string@DU?$char_traits@D@std@@V?$allocator@D@2@@2@_N_J_KNVallocator@2@Uadl_serializer@nlohmann@@@nlohmann@@@std@@@2@$00@std@@QAEAAV?$_Vector_val@U?$_Simple_types@V?$basic_json@Vmap@std@@Vvector@2@V?$basic_string@DU?$char_traits@D@std@@V?$allocator@D@2@@2@_N_J_KNVallocator@2@Uadl_serializer@nlohmann@@@nlohmann@@@std@@@2@XZ 10076e00 f i KitParser.obj
 0002:00027e20       ?_Get_second@?$_Compressed_pair@V?$allocator@V?$basic_json@Vmap@std@@Vvector@2@V?$basic_string@DU?$char_traits@D@std@@V?$allocator@D@2@@2@_N_J_KNVallocator@2@Uadl_serializer@nlohmann@@@nlohmann@@@std@@V?$_Vector_val@U?$_Simple_types@V?$basic_json@Vmap@std@@Vvector@2@V?$basic_string@DU?$char_traits@D@std@@V?$allocator@D@2@@2@_N_J_KNVallocator@2@Uadl_serializer@nlohmann@@@nlohmann@@@std@@@2@$00@std@@QBEABV?$_Vector_val@U?$_Simple_types@V?$basic_json@Vmap@std@@Vvector@2@V?$basic_string@DU?$char_traits@D@std@@V?$allocator@D@2@@2@_N_J_KNVallocator@2@Uadl_serializer@nlohmann@@@nlohmann@@@std@@@2@XZ 10076e20 f i KitParser.obj
 0002:00027e40       ?_Get_second@?$_Compressed_pair@V?$allocator@_W@std@@V?$_String_val@U?$_Simple_types@_W@std@@@2@$00@std@@QAEAAV?$_String_val@U?$_Simple_types@_W@std@@@2@XZ 10076e40 f i KitParser.obj
 0002:00027e60       ?_Getal@?$_String_alloc@U?$_String_base_types@_WV?$allocator@_W@std@@@std@@@std@@QAEAAV?$allocator@_W@2@XZ 10076e60 f i KitParser.obj
 0002:00027e90       ?_Getal@?$_Tree_comp_alloc@V?$_Tmap_traits@V?$basic_string@DU?$char_traits@D@std@@V?$allocator@D@2@@std@@V12@U?$less@V?$basic_string@DU?$char_traits@D@std@@V?$allocator@D@2@@std@@@2@V?$allocator@U?$pair@$$CBV?$basic_string@DU?$char_traits@D@std@@V?$allocator@D@2@@std@@V12@@std@@@2@$0A@@std@@@std@@QAEAAV?$allocator@U?$_Tree_node@U?$pair@$$CBV?$basic_string@DU?$char_traits@D@std@@V?$allocator@D@2@@std@@V12@@std@@PAX@std@@@2@XZ 10076e90 f i KitParser.obj
 0002:00027ec0       ?_Getal@?$_Tree_comp_alloc@V?$_Tmap_traits@V?$basic_string@DU?$char_traits@D@std@@V?$allocator@D@2@@std@@V12@U?$less@V?$basic_string@DU?$char_traits@D@std@@V?$allocator@D@2@@std@@@2@V?$allocator@U?$pair@$$CBV?$basic_string@DU?$char_traits@D@std@@V?$allocator@D@2@@std@@V12@@std@@@2@$0A@@std@@@std@@QBEABV?$allocator@U?$_Tree_node@U?$pair@$$CBV?$basic_string@DU?$char_traits@D@std@@V?$allocator@D@2@@std@@V12@@std@@PAX@std@@@2@XZ 10076ec0 f i KitParser.obj
 0002:00027ef0       ?_Getal@?$_Tree_comp_alloc@V?$_Tmap_traits@V?$basic_string@DU?$char_traits@D@std@@V?$allocator@D@2@@std@@V?$basic_json@Vmap@std@@Vvector@2@V?$basic_string@DU?$char_traits@D@std@@V?$allocator@D@2@@2@_N_J_KNVallocator@2@Uadl_serializer@nlohmann@@@nlohmann@@U?$less@V?$basic_string@DU?$char_traits@D@std@@V?$allocator@D@2@@std@@@2@V?$allocator@U?$pair@$$CBV?$basic_string@DU?$char_traits@D@std@@V?$allocator@D@2@@std@@V?$basic_json@Vmap@std@@Vvector@2@V?$basic_string@DU?$char_traits@D@std@@V?$allocator@D@2@@2@_N_J_KNVallocator@2@Uadl_serializer@nlohmann@@@nlohmann@@@std@@@2@$0A@@std@@@std@@QAEAAV?$allocator@U?$_Tree_node@U?$pair@$$CBV?$basic_string@DU?$char_traits@D@std@@V?$allocator@D@2@@std@@V?$basic_json@Vmap@std@@Vvector@2@V?$basic_string@DU?$char_traits@D@std@@V?$allocator@D@2@@2@_N_J_KNVallocator@2@Uadl_serializer@nlohmann@@@nlohmann@@@std@@PAX@std@@@2@XZ 10076ef0 f i KitParser.obj
 0002:00027f20       ?_Getal@?$_Tree_comp_alloc@V?$_Tmap_traits@V?$basic_string@DU?$char_traits@D@std@@V?$allocator@D@2@@std@@V?$basic_json@Vmap@std@@Vvector@2@V?$basic_string@DU?$char_traits@D@std@@V?$allocator@D@2@@2@_N_J_KNVallocator@2@Uadl_serializer@nlohmann@@@nlohmann@@U?$less@V?$basic_string@DU?$char_traits@D@std@@V?$allocator@D@2@@std@@@2@V?$allocator@U?$pair@$$CBV?$basic_string@DU?$char_traits@D@std@@V?$allocator@D@2@@std@@V?$basic_json@Vmap@std@@Vvector@2@V?$basic_string@DU?$char_traits@D@std@@V?$allocator@D@2@@2@_N_J_KNVallocator@2@Uadl_serializer@nlohmann@@@nlohmann@@@std@@@2@$0A@@std@@@std@@QBEABV?$allocator@U?$_Tree_node@U?$pair@$$CBV?$basic_string@DU?$char_traits@D@std@@V?$allocator@D@2@@std@@V?$basic_json@Vmap@std@@Vvector@2@V?$basic_string@DU?$char_traits@D@std@@V?$allocator@D@2@@2@_N_J_KNVallocator@2@Uadl_serializer@nlohmann@@@nlohmann@@@std@@PAX@std@@@2@XZ 10076f20 f i KitParser.obj
 0002:00027f50       ?_Getal@?$_Vector_alloc@U?$_Vec_base_types@V?$basic_json@Vmap@std@@Vvector@2@V?$basic_string@DU?$char_traits@D@std@@V?$allocator@D@2@@2@_N_J_KNVallocator@2@Uadl_serializer@nlohmann@@@nlohmann@@V?$allocator@V?$basic_json@Vmap@std@@Vvector@2@V?$basic_string@DU?$char_traits@D@std@@V?$allocator@D@2@@2@_N_J_KNVallocator@2@Uadl_serializer@nlohmann@@@nlohmann@@@std@@@std@@@std@@QAEAAV?$allocator@V?$basic_json@Vmap@std@@Vvector@2@V?$basic_string@DU?$char_traits@D@std@@V?$allocator@D@2@@2@_N_J_KNVallocator@2@Uadl_serializer@nlohmann@@@nlohmann@@@2@XZ 10076f50 f i KitParser.obj
 0002:00027f80       ?_Getcomp@?$_Tree_comp_alloc@V?$_Tmap_traits@V?$basic_string@DU?$char_traits@D@std@@V?$allocator@D@2@@std@@V12@U?$less@V?$basic_string@DU?$char_traits@D@std@@V?$allocator@D@2@@std@@@2@V?$allocator@U?$pair@$$CBV?$basic_string@DU?$char_traits@D@std@@V?$allocator@D@2@@std@@V12@@std@@@2@$0A@@std@@@std@@QAEAAU?$less@V?$basic_string@DU?$char_traits@D@std@@V?$allocator@D@2@@std@@@2@XZ 10076f80 f i KitParser.obj
 0002:00027fb0       ?_Getcomp@?$_Tree_comp_alloc@V?$_Tmap_traits@V?$basic_string@DU?$char_traits@D@std@@V?$allocator@D@2@@std@@V12@U?$less@V?$basic_string@DU?$char_traits@D@std@@V?$allocator@D@2@@std@@@2@V?$allocator@U?$pair@$$CBV?$basic_string@DU?$char_traits@D@std@@V?$allocator@D@2@@std@@V12@@std@@@2@$0A@@std@@@std@@QBEABU?$less@V?$basic_string@DU?$char_traits@D@std@@V?$allocator@D@2@@std@@@2@XZ 10076fb0 f i KitParser.obj
 0002:00027fe0       ?_Getcomp@?$_Tree_comp_alloc@V?$_Tmap_traits@V?$basic_string@DU?$char_traits@D@std@@V?$allocator@D@2@@std@@V?$basic_json@Vmap@std@@Vvector@2@V?$basic_string@DU?$char_traits@D@std@@V?$allocator@D@2@@2@_N_J_KNVallocator@2@Uadl_serializer@nlohmann@@@nlohmann@@U?$less@V?$basic_string@DU?$char_traits@D@std@@V?$allocator@D@2@@std@@@2@V?$allocator@U?$pair@$$CBV?$basic_string@DU?$char_traits@D@std@@V?$allocator@D@2@@std@@V?$basic_json@Vmap@std@@Vvector@2@V?$basic_string@DU?$char_traits@D@std@@V?$allocator@D@2@@2@_N_J_KNVallocator@2@Uadl_serializer@nlohmann@@@nlohmann@@@std@@@2@$0A@@std@@@std@@QAEAAU?$less@V?$basic_string@DU?$char_traits@D@std@@V?$allocator@D@2@@std@@@2@XZ 10076fe0 f i KitParser.obj
 0002:00028010       ?_Getfacet@locale@std@@QBEPBVfacet@12@I@Z 10077010 f i KitParser.obj
 0002:000280c0       ?_Getptr@?$_Ref_count_obj@V?$output_stream_adapter@D@detail@nlohmann@@@std@@QAEPAV?$output_stream_adapter@D@detail@nlohmann@@XZ 100770c0 f i KitParser.obj
 0002:000280e0       ?_Getstate@?$basic_stringbuf@DU?$char_traits@D@std@@V?$allocator@D@2@@std@@AAEHH@Z 100770e0 f i KitParser.obj
 0002:00028160       ?_Incref@_Ref_count_base@std@@QAEXXZ 10077160 f i KitParser.obj
 0002:00028190       ?_Init@?$basic_filebuf@DU?$char_traits@D@std@@@std@@IAEXPAU_iobuf@@W4_Initfl@12@@Z 10077190 f i KitParser.obj
 0002:000282b0       ?_Init@?$basic_stringbuf@DU?$char_traits@D@std@@V?$allocator@D@2@@std@@IAEXPBDIH@Z 100772b0 f i KitParser.obj
 0002:00028410       ?_Init@?$wstring_convert@V?$codecvt_utf8_utf16@_W$0BAPPPP@$0A@@std@@_WV?$allocator@_W@2@V?$allocator@D@2@@std@@AAEXPBV?$codecvt_utf8_utf16@_W$0BAPPPP@$0A@@2@@Z 10077410 f i KitParser.obj
 0002:000284a0       ?_Initcvt@?$basic_filebuf@DU?$char_traits@D@std@@@std@@IAEXPBV?$codecvt@DDU_Mbstatet@@@2@@Z 100774a0 f i KitParser.obj
 0002:00028500       ?_Key@?$_Tree@V?$_Tmap_traits@V?$basic_string@DU?$char_traits@D@std@@V?$allocator@D@2@@std@@V12@U?$less@V?$basic_string@DU?$char_traits@D@std@@V?$allocator@D@2@@std@@@2@V?$allocator@U?$pair@$$CBV?$basic_string@DU?$char_traits@D@std@@V?$allocator@D@2@@std@@V12@@std@@@2@$0A@@std@@@std@@IBEABV?$basic_string@DU?$char_traits@D@std@@V?$allocator@D@2@@2@PAU?$_Tree_node@U?$pair@$$CBV?$basic_string@DU?$char_traits@D@std@@V?$allocator@D@2@@std@@V12@@std@@PAX@2@@Z 10077500 f i KitParser.obj
 0002:00028530       ?_Key@?$_Tree@V?$_Tmap_traits@V?$basic_string@DU?$char_traits@D@std@@V?$allocator@D@2@@std@@V?$basic_json@Vmap@std@@Vvector@2@V?$basic_string@DU?$char_traits@D@std@@V?$allocator@D@2@@2@_N_J_KNVallocator@2@Uadl_serializer@nlohmann@@@nlohmann@@U?$less@V?$basic_string@DU?$char_traits@D@std@@V?$allocator@D@2@@std@@@2@V?$allocator@U?$pair@$$CBV?$basic_string@DU?$char_traits@D@std@@V?$allocator@D@2@@std@@V?$basic_json@Vmap@std@@Vvector@2@V?$basic_string@DU?$char_traits@D@std@@V?$allocator@D@2@@2@_N_J_KNVallocator@2@Uadl_serializer@nlohmann@@@nlohmann@@@std@@@2@$0A@@std@@@std@@IBEABV?$basic_string@DU?$char_traits@D@std@@V?$allocator@D@2@@2@PAU?$_Tree_node@U?$pair@$$CBV?$basic_string@DU?$char_traits@D@std@@V?$allocator@D@2@@std@@V?$basic_json@Vmap@std@@Vvector@2@V?$basic_string@DU?$char_traits@D@std@@V?$allocator@D@2@@2@_N_J_KNVallocator@2@Uadl_serializer@nlohmann@@@nlohmann@@@std@@PAX@2@@Z 10077530 f i KitParser.obj
 0002:00028560       ?_Kfn@?$_Tree@V?$_Tmap_traits@V?$basic_string@DU?$char_traits@D@std@@V?$allocator@D@2@@std@@V12@U?$less@V?$basic_string@DU?$char_traits@D@std@@V?$allocator@D@2@@std@@@2@V?$allocator@U?$pair@$$CBV?$basic_string@DU?$char_traits@D@std@@V?$allocator@D@2@@std@@V12@@std@@@2@$0A@@std@@@std@@IBEABV?$basic_string@DU?$char_traits@D@std@@V?$allocator@D@2@@2@ABU?$pair@$$CBV?$basic_string@DU?$char_traits@D@std@@V?$allocator@D@2@@std@@V12@@2@@Z 10077560 f i KitParser.obj
 0002:00028590       ?_Kfn@?$_Tree@V?$_Tmap_traits@V?$basic_string@DU?$char_traits@D@std@@V?$allocator@D@2@@std@@V?$basic_json@Vmap@std@@Vvector@2@V?$basic_string@DU?$char_traits@D@std@@V?$allocator@D@2@@2@_N_J_KNVallocator@2@Uadl_serializer@nlohmann@@@nlohmann@@U?$less@V?$basic_string@DU?$char_traits@D@std@@V?$allocator@D@2@@std@@@2@V?$allocator@U?$pair@$$CBV?$basic_string@DU?$char_traits@D@std@@V?$allocator@D@2@@std@@V?$basic_json@Vmap@std@@Vvector@2@V?$basic_string@DU?$char_traits@D@std@@V?$allocator@D@2@@2@_N_J_KNVallocator@2@Uadl_serializer@nlohmann@@@nlohmann@@@std@@@2@$0A@@std@@@std@@IBEABV?$basic_string@DU?$char_traits@D@std@@V?$allocator@D@2@@2@ABU?$pair@$$CBV?$basic_string@DU?$char_traits@D@std@@V?$allocator@D@2@@std@@V?$basic_json@Vmap@std@@Vvector@2@V?$basic_string@DU?$char_traits@D@std@@V?$allocator@D@2@@2@_N_J_KNVallocator@2@Uadl_serializer@nlohmann@@@nlohmann@@@2@@Z 10077590 f i KitParser.obj
 0002:000285c0       ?_Large_string_engaged@?$_String_val@U?$_Simple_types@_W@std@@@std@@QBE_NXZ 100775c0 f i KitParser.obj
 0002:00028600       ?_Lmost@?$_Tree@V?$_Tmap_traits@V?$basic_string@DU?$char_traits@D@std@@V?$allocator@D@2@@std@@V12@U?$less@V?$basic_string@DU?$char_traits@D@std@@V?$allocator@D@2@@std@@@2@V?$allocator@U?$pair@$$CBV?$basic_string@DU?$char_traits@D@std@@V?$allocator@D@2@@std@@V12@@std@@@2@$0A@@std@@@std@@IBEAAPAU?$_Tree_node@U?$pair@$$CBV?$basic_string@DU?$char_traits@D@std@@V?$allocator@D@2@@std@@V12@@std@@PAX@2@XZ 10077600 f i KitParser.obj
 0002:00028630       ?_Lmost@?$_Tree@V?$_Tmap_traits@V?$basic_string@DU?$char_traits@D@std@@V?$allocator@D@2@@std@@V?$basic_json@Vmap@std@@Vvector@2@V?$basic_string@DU?$char_traits@D@std@@V?$allocator@D@2@@2@_N_J_KNVallocator@2@Uadl_serializer@nlohmann@@@nlohmann@@U?$less@V?$basic_string@DU?$char_traits@D@std@@V?$allocator@D@2@@std@@@2@V?$allocator@U?$pair@$$CBV?$basic_string@DU?$char_traits@D@std@@V?$allocator@D@2@@std@@V?$basic_json@Vmap@std@@Vvector@2@V?$basic_string@DU?$char_traits@D@std@@V?$allocator@D@2@@2@_N_J_KNVallocator@2@Uadl_serializer@nlohmann@@@nlohmann@@@std@@@2@$0A@@std@@@std@@IBEAAPAU?$_Tree_node@U?$pair@$$CBV?$basic_string@DU?$char_traits@D@std@@V?$allocator@D@2@@std@@V?$basic_json@Vmap@std@@Vvector@2@V?$basic_string@DU?$char_traits@D@std@@V?$allocator@D@2@@2@_N_J_KNVallocator@2@Uadl_serializer@nlohmann@@@nlohmann@@@std@@PAX@2@XZ 10077630 f i KitParser.obj
 0002:00028660       ?_Lock@?$basic_filebuf@DU?$char_traits@D@std@@@std@@UAEXXZ 10077660 f i KitParser.obj
 0002:000286a0       ?_Lrotate@?$_Tree@V?$_Tmap_traits@V?$basic_string@DU?$char_traits@D@std@@V?$allocator@D@2@@std@@V12@U?$less@V?$basic_string@DU?$char_traits@D@std@@V?$allocator@D@2@@std@@@2@V?$allocator@U?$pair@$$CBV?$basic_string@DU?$char_traits@D@std@@V?$allocator@D@2@@std@@V12@@std@@@2@$0A@@std@@@std@@IAEXPAU?$_Tree_node@U?$pair@$$CBV?$basic_string@DU?$char_traits@D@std@@V?$allocator@D@2@@std@@V12@@std@@PAX@2@@Z 100776a0 f i KitParser.obj
 0002:00028770       ?_Lrotate@?$_Tree@V?$_Tmap_traits@V?$basic_string@DU?$char_traits@D@std@@V?$allocator@D@2@@std@@V?$basic_json@Vmap@std@@Vvector@2@V?$basic_string@DU?$char_traits@D@std@@V?$allocator@D@2@@2@_N_J_KNVallocator@2@Uadl_serializer@nlohmann@@@nlohmann@@U?$less@V?$basic_string@DU?$char_traits@D@std@@V?$allocator@D@2@@std@@@2@V?$allocator@U?$pair@$$CBV?$basic_string@DU?$char_traits@D@std@@V?$allocator@D@2@@std@@V?$basic_json@Vmap@std@@Vvector@2@V?$basic_string@DU?$char_traits@D@std@@V?$allocator@D@2@@2@_N_J_KNVallocator@2@Uadl_serializer@nlohmann@@@nlohmann@@@std@@@2@$0A@@std@@@std@@IAEXPAU?$_Tree_node@U?$pair@$$CBV?$basic_string@DU?$char_traits@D@std@@V?$allocator@D@2@@std@@V?$basic_json@Vmap@std@@Vvector@2@V?$basic_string@DU?$char_traits@D@std@@V?$allocator@D@2@@2@_N_J_KNVallocator@2@Uadl_serializer@nlohmann@@@nlohmann@@@std@@PAX@2@@Z 10077770 f i KitParser.obj
 0002:00028840       ?_Max@?$_Tree_comp_alloc@V?$_Tmap_traits@V?$basic_string@DU?$char_traits@D@std@@V?$allocator@D@2@@std@@V?$basic_json@Vmap@std@@Vvector@2@V?$basic_string@DU?$char_traits@D@std@@V?$allocator@D@2@@2@_N_J_KNVallocator@2@Uadl_serializer@nlohmann@@@nlohmann@@U?$less@V?$basic_string@DU?$char_traits@D@std@@V?$allocator@D@2@@std@@@2@V?$allocator@U?$pair@$$CBV?$basic_string@DU?$char_traits@D@std@@V?$allocator@D@2@@std@@V?$basic_json@Vmap@std@@Vvector@2@V?$basic_string@DU?$char_traits@D@std@@V?$allocator@D@2@@2@_N_J_KNVallocator@2@Uadl_serializer@nlohmann@@@nlohmann@@@std@@@2@$0A@@std@@@std@@SAPAU?$_Tree_node@U?$pair@$$CBV?$basic_string@DU?$char_traits@D@std@@V?$allocator@D@2@@std@@V?$basic_json@Vmap@std@@Vvector@2@V?$basic_string@DU?$char_traits@D@std@@V?$allocator@D@2@@2@_N_J_KNVallocator@2@Uadl_serializer@nlohmann@@@nlohmann@@@std@@PAX@2@PAU32@@Z 10077840 f i KitParser.obj
 0002:00028870       ?_Max@?$_Tree_val@U?$_Tree_simple_types@U?$pair@$$CBV?$basic_string@DU?$char_traits@D@std@@V?$allocator@D@2@@std@@V12@@std@@@std@@@std@@SAPAU?$_Tree_node@U?$pair@$$CBV?$basic_string@DU?$char_traits@D@std@@V?$allocator@D@2@@std@@V12@@std@@PAX@2@PAU32@@Z 10077870 f i KitParser.obj
 0002:000288b0       ?_Max@?$_Tree_val@U?$_Tree_simple_types@U?$pair@$$CBV?$basic_string@DU?$char_traits@D@std@@V?$allocator@D@2@@std@@V?$basic_json@Vmap@std@@Vvector@2@V?$basic_string@DU?$char_traits@D@std@@V?$allocator@D@2@@2@_N_J_KNVallocator@2@Uadl_serializer@nlohmann@@@nlohmann@@@std@@@std@@@std@@SAPAU?$_Tree_node@U?$pair@$$CBV?$basic_string@DU?$char_traits@D@std@@V?$allocator@D@2@@std@@V?$basic_json@Vmap@std@@Vvector@2@V?$basic_string@DU?$char_traits@D@std@@V?$allocator@D@2@@2@_N_J_KNVallocator@2@Uadl_serializer@nlohmann@@@nlohmann@@@std@@PAX@2@PAU32@@Z 100778b0 f i KitParser.obj
 0002:000288f0       ?_Min@?$_Tree_comp_alloc@V?$_Tmap_traits@V?$basic_string@DU?$char_traits@D@std@@V?$allocator@D@2@@std@@V?$basic_json@Vmap@std@@Vvector@2@V?$basic_string@DU?$char_traits@D@std@@V?$allocator@D@2@@2@_N_J_KNVallocator@2@Uadl_serializer@nlohmann@@@nlohmann@@U?$less@V?$basic_string@DU?$char_traits@D@std@@V?$allocator@D@2@@std@@@2@V?$allocator@U?$pair@$$CBV?$basic_string@DU?$char_traits@D@std@@V?$allocator@D@2@@std@@V?$basic_json@Vmap@std@@Vvector@2@V?$basic_string@DU?$char_traits@D@std@@V?$allocator@D@2@@2@_N_J_KNVallocator@2@Uadl_serializer@nlohmann@@@nlohmann@@@std@@@2@$0A@@std@@@std@@SAPAU?$_Tree_node@U?$pair@$$CBV?$basic_string@DU?$char_traits@D@std@@V?$allocator@D@2@@std@@V?$basic_json@Vmap@std@@Vvector@2@V?$basic_string@DU?$char_traits@D@std@@V?$allocator@D@2@@2@_N_J_KNVallocator@2@Uadl_serializer@nlohmann@@@nlohmann@@@std@@PAX@2@PAU32@@Z 100778f0 f i KitParser.obj
 0002:00028920       ?_Min@?$_Tree_val@U?$_Tree_simple_types@U?$pair@$$CBV?$basic_string@DU?$char_traits@D@std@@V?$allocator@D@2@@std@@V12@@std@@@std@@@std@@SAPAU?$_Tree_node@U?$pair@$$CBV?$basic_string@DU?$char_traits@D@std@@V?$allocator@D@2@@std@@V12@@std@@PAX@2@PAU32@@Z 10077920 f i KitParser.obj
 0002:00028960       ?_Min@?$_Tree_val@U?$_Tree_simple_types@U?$pair@$$CBV?$basic_string@DU?$char_traits@D@std@@V?$allocator@D@2@@std@@V?$basic_json@Vmap@std@@Vvector@2@V?$basic_string@DU?$char_traits@D@std@@V?$allocator@D@2@@2@_N_J_KNVallocator@2@Uadl_serializer@nlohmann@@@nlohmann@@@std@@@std@@@std@@SAPAU?$_Tree_node@U?$pair@$$CBV?$basic_string@DU?$char_traits@D@std@@V?$allocator@D@2@@std@@V?$basic_json@Vmap@std@@Vvector@2@V?$basic_string@DU?$char_traits@D@std@@V?$allocator@D@2@@2@_N_J_KNVallocator@2@Uadl_serializer@nlohmann@@@nlohmann@@@std@@PAX@2@PAU32@@Z 10077960 f i KitParser.obj
 0002:000289a0       ?_Myend@?$_Vector_alloc@U?$_Vec_base_types@V?$basic_json@Vmap@std@@Vvector@2@V?$basic_string@DU?$char_traits@D@std@@V?$allocator@D@2@@2@_N_J_KNVallocator@2@Uadl_serializer@nlohmann@@@nlohmann@@V?$allocator@V?$basic_json@Vmap@std@@Vvector@2@V?$basic_string@DU?$char_traits@D@std@@V?$allocator@D@2@@2@_N_J_KNVallocator@2@Uadl_serializer@nlohmann@@@nlohmann@@@std@@@std@@@std@@QAEAAPAV?$basic_json@Vmap@std@@Vvector@2@V?$basic_string@DU?$char_traits@D@std@@V?$allocator@D@2@@2@_N_J_KNVallocator@2@Uadl_serializer@nlohmann@@@nlohmann@@XZ 100779a0 f i KitParser.obj
 0002:000289d0       ?_Myend@?$_Vector_alloc@U?$_Vec_base_types@V?$basic_json@Vmap@std@@Vvector@2@V?$basic_string@DU?$char_traits@D@std@@V?$allocator@D@2@@2@_N_J_KNVallocator@2@Uadl_serializer@nlohmann@@@nlohmann@@V?$allocator@V?$basic_json@Vmap@std@@Vvector@2@V?$basic_string@DU?$char_traits@D@std@@V?$allocator@D@2@@2@_N_J_KNVallocator@2@Uadl_serializer@nlohmann@@@nlohmann@@@std@@@std@@@std@@QBEABQAV?$basic_json@Vmap@std@@Vvector@2@V?$basic_string@DU?$char_traits@D@std@@V?$allocator@D@2@@2@_N_J_KNVallocator@2@Uadl_serializer@nlohmann@@@nlohmann@@XZ 100779d0 f i KitParser.obj
 0002:00028a00       ?_Myfirst@?$_Vector_alloc@U?$_Vec_base_types@V?$basic_json@Vmap@std@@Vvector@2@V?$basic_string@DU?$char_traits@D@std@@V?$allocator@D@2@@2@_N_J_KNVallocator@2@Uadl_serializer@nlohmann@@@nlohmann@@V?$allocator@V?$basic_json@Vmap@std@@Vvector@2@V?$basic_string@DU?$char_traits@D@std@@V?$allocator@D@2@@2@_N_J_KNVallocator@2@Uadl_serializer@nlohmann@@@nlohmann@@@std@@@std@@@std@@QAEAAPAV?$basic_json@Vmap@std@@Vvector@2@V?$basic_string@DU?$char_traits@D@std@@V?$allocator@D@2@@2@_N_J_KNVallocator@2@Uadl_serializer@nlohmann@@@nlohmann@@XZ 10077a00 f i KitParser.obj
 0002:00028a30       ?_Myfirst@?$_Vector_alloc@U?$_Vec_base_types@V?$basic_json@Vmap@std@@Vvector@2@V?$basic_string@DU?$char_traits@D@std@@V?$allocator@D@2@@2@_N_J_KNVallocator@2@Uadl_serializer@nlohmann@@@nlohmann@@V?$allocator@V?$basic_json@Vmap@std@@Vvector@2@V?$basic_string@DU?$char_traits@D@std@@V?$allocator@D@2@@2@_N_J_KNVallocator@2@Uadl_serializer@nlohmann@@@nlohmann@@@std@@@std@@@std@@QBEABQAV?$basic_json@Vmap@std@@Vvector@2@V?$basic_string@DU?$char_traits@D@std@@V?$allocator@D@2@@2@_N_J_KNVallocator@2@Uadl_serializer@nlohmann@@@nlohmann@@XZ 10077a30 f i KitParser.obj
 0002:00028a60       ?_Myhead@?$_Tree_comp_alloc@V?$_Tmap_traits@V?$basic_string@DU?$char_traits@D@std@@V?$allocator@D@2@@std@@V12@U?$less@V?$basic_string@DU?$char_traits@D@std@@V?$allocator@D@2@@std@@@2@V?$allocator@U?$pair@$$CBV?$basic_string@DU?$char_traits@D@std@@V?$allocator@D@2@@std@@V12@@std@@@2@$0A@@std@@@std@@QAEAAPAU?$_Tree_node@U?$pair@$$CBV?$basic_string@DU?$char_traits@D@std@@V?$allocator@D@2@@std@@V12@@std@@PAX@2@XZ 10077a60 f i KitParser.obj
 0002:00028a90       ?_Myhead@?$_Tree_comp_alloc@V?$_Tmap_traits@V?$basic_string@DU?$char_traits@D@std@@V?$allocator@D@2@@std@@V12@U?$less@V?$basic_string@DU?$char_traits@D@std@@V?$allocator@D@2@@std@@@2@V?$allocator@U?$pair@$$CBV?$basic_string@DU?$char_traits@D@std@@V?$allocator@D@2@@std@@V12@@std@@@2@$0A@@std@@@std@@QBEABQAU?$_Tree_node@U?$pair@$$CBV?$basic_string@DU?$char_traits@D@std@@V?$allocator@D@2@@std@@V12@@std@@PAX@2@XZ 10077a90 f i KitParser.obj
 0002:00028ac0       ?_Myhead@?$_Tree_comp_alloc@V?$_Tmap_traits@V?$basic_string@DU?$char_traits@D@std@@V?$allocator@D@2@@std@@V?$basic_json@Vmap@std@@Vvector@2@V?$basic_string@DU?$char_traits@D@std@@V?$allocator@D@2@@2@_N_J_KNVallocator@2@Uadl_serializer@nlohmann@@@nlohmann@@U?$less@V?$basic_string@DU?$char_traits@D@std@@V?$allocator@D@2@@std@@@2@V?$allocator@U?$pair@$$CBV?$basic_string@DU?$char_traits@D@std@@V?$allocator@D@2@@std@@V?$basic_json@Vmap@std@@Vvector@2@V?$basic_string@DU?$char_traits@D@std@@V?$allocator@D@2@@2@_N_J_KNVallocator@2@Uadl_serializer@nlohmann@@@nlohmann@@@std@@@2@$0A@@std@@@std@@QAEAAPAU?$_Tree_node@U?$pair@$$CBV?$basic_string@DU?$char_traits@D@std@@V?$allocator@D@2@@std@@V?$basic_json@Vmap@std@@Vvector@2@V?$basic_string@DU?$char_traits@D@std@@V?$allocator@D@2@@2@_N_J_KNVallocator@2@Uadl_serializer@nlohmann@@@nlohmann@@@std@@PAX@2@XZ 10077ac0 f i KitParser.obj
 0002:00028af0       ?_Myhead@?$_Tree_comp_alloc@V?$_Tmap_traits@V?$basic_string@DU?$char_traits@D@std@@V?$allocator@D@2@@std@@V?$basic_json@Vmap@std@@Vvector@2@V?$basic_string@DU?$char_traits@D@std@@V?$allocator@D@2@@2@_N_J_KNVallocator@2@Uadl_serializer@nlohmann@@@nlohmann@@U?$less@V?$basic_string@DU?$char_traits@D@std@@V?$allocator@D@2@@std@@@2@V?$allocator@U?$pair@$$CBV?$basic_string@DU?$char_traits@D@std@@V?$allocator@D@2@@std@@V?$basic_json@Vmap@std@@Vvector@2@V?$basic_string@DU?$char_traits@D@std@@V?$allocator@D@2@@2@_N_J_KNVallocator@2@Uadl_serializer@nlohmann@@@nlohmann@@@std@@@2@$0A@@std@@@std@@QBEABQAU?$_Tree_node@U?$pair@$$CBV?$basic_string@DU?$char_traits@D@std@@V?$allocator@D@2@@std@@V?$basic_json@Vmap@std@@Vvector@2@V?$basic_string@DU?$char_traits@D@std@@V?$allocator@D@2@@2@_N_J_KNVallocator@2@Uadl_serializer@nlohmann@@@nlohmann@@@std@@PAX@2@XZ 10077af0 f i KitParser.obj
 0002:00028b20       ?_Mylast@?$_Vector_alloc@U?$_Vec_base_types@V?$basic_json@Vmap@std@@Vvector@2@V?$basic_string@DU?$char_traits@D@std@@V?$allocator@D@2@@2@_N_J_KNVallocator@2@Uadl_serializer@nlohmann@@@nlohmann@@V?$allocator@V?$basic_json@Vmap@std@@Vvector@2@V?$basic_string@DU?$char_traits@D@std@@V?$allocator@D@2@@2@_N_J_KNVallocator@2@Uadl_serializer@nlohmann@@@nlohmann@@@std@@@std@@@std@@QAEAAPAV?$basic_json@Vmap@std@@Vvector@2@V?$basic_string@DU?$char_traits@D@std@@V?$allocator@D@2@@2@_N_J_KNVallocator@2@Uadl_serializer@nlohmann@@@nlohmann@@XZ 10077b20 f i KitParser.obj
 0002:00028b50       ?_Mylast@?$_Vector_alloc@U?$_Vec_base_types@V?$basic_json@Vmap@std@@Vvector@2@V?$basic_string@DU?$char_traits@D@std@@V?$allocator@D@2@@2@_N_J_KNVallocator@2@Uadl_serializer@nlohmann@@@nlohmann@@V?$allocator@V?$basic_json@Vmap@std@@Vvector@2@V?$basic_string@DU?$char_traits@D@std@@V?$allocator@D@2@@2@_N_J_KNVallocator@2@Uadl_serializer@nlohmann@@@nlohmann@@@std@@@std@@@std@@QBEABQAV?$basic_json@Vmap@std@@Vvector@2@V?$basic_string@DU?$char_traits@D@std@@V?$allocator@D@2@@2@_N_J_KNVallocator@2@Uadl_serializer@nlohmann@@@nlohmann@@XZ 10077b50 f i KitParser.obj
 0002:00028b80       ?_Myptr@?$_String_val@U?$_Simple_types@D@std@@@std@@QBEPBDXZ 10077b80 f i KitParser.obj
 0002:00028c90       ?_Mysize@?$_Tree_comp_alloc@V?$_Tmap_traits@V?$basic_string@DU?$char_traits@D@std@@V?$allocator@D@2@@std@@V12@U?$less@V?$basic_string@DU?$char_traits@D@std@@V?$allocator@D@2@@std@@@2@V?$allocator@U?$pair@$$CBV?$basic_string@DU?$char_traits@D@std@@V?$allocator@D@2@@std@@V12@@std@@@2@$0A@@std@@@std@@QAEAAIXZ 10077c90 f i KitParser.obj
 0002:00028cc0       ?_Mysize@?$_Tree_comp_alloc@V?$_Tmap_traits@V?$basic_string@DU?$char_traits@D@std@@V?$allocator@D@2@@std@@V12@U?$less@V?$basic_string@DU?$char_traits@D@std@@V?$allocator@D@2@@std@@@2@V?$allocator@U?$pair@$$CBV?$basic_string@DU?$char_traits@D@std@@V?$allocator@D@2@@std@@V12@@std@@@2@$0A@@std@@@std@@QBEABIXZ 10077cc0 f i KitParser.obj
 0002:00028cf0       ?_Mysize@?$_Tree_comp_alloc@V?$_Tmap_traits@V?$basic_string@DU?$char_traits@D@std@@V?$allocator@D@2@@std@@V?$basic_json@Vmap@std@@Vvector@2@V?$basic_string@DU?$char_traits@D@std@@V?$allocator@D@2@@2@_N_J_KNVallocator@2@Uadl_serializer@nlohmann@@@nlohmann@@U?$less@V?$basic_string@DU?$char_traits@D@std@@V?$allocator@D@2@@std@@@2@V?$allocator@U?$pair@$$CBV?$basic_string@DU?$char_traits@D@std@@V?$allocator@D@2@@std@@V?$basic_json@Vmap@std@@Vvector@2@V?$basic_string@DU?$char_traits@D@std@@V?$allocator@D@2@@2@_N_J_KNVallocator@2@Uadl_serializer@nlohmann@@@nlohmann@@@std@@@2@$0A@@std@@@std@@QAEAAIXZ 10077cf0 f i KitParser.obj
 0002:00028d20       ?_Mysize@?$_Tree_comp_alloc@V?$_Tmap_traits@V?$basic_string@DU?$char_traits@D@std@@V?$allocator@D@2@@std@@V?$basic_json@Vmap@std@@Vvector@2@V?$basic_string@DU?$char_traits@D@std@@V?$allocator@D@2@@2@_N_J_KNVallocator@2@Uadl_serializer@nlohmann@@@nlohmann@@U?$less@V?$basic_string@DU?$char_traits@D@std@@V?$allocator@D@2@@std@@@2@V?$allocator@U?$pair@$$CBV?$basic_string@DU?$char_traits@D@std@@V?$allocator@D@2@@std@@V?$basic_json@Vmap@std@@Vvector@2@V?$basic_string@DU?$char_traits@D@std@@V?$allocator@D@2@@2@_N_J_KNVallocator@2@Uadl_serializer@nlohmann@@@nlohmann@@@std@@@2@$0A@@std@@@std@@QBEABIXZ 10077d20 f i KitParser.obj
 0002:00028d50       ?_Orphan_all@?$_String_alloc@U?$_String_base_types@_WV?$allocator@_W@std@@@std@@@std@@QAEXXZ 10077d50 f i KitParser.obj
 0002:00028d80       ?_Orphan_all@?$_Vector_alloc@U?$_Vec_base_types@V?$basic_json@Vmap@std@@Vvector@2@V?$basic_string@DU?$char_traits@D@std@@V?$allocator@D@2@@2@_N_J_KNVallocator@2@Uadl_serializer@nlohmann@@@nlohmann@@V?$allocator@V?$basic_json@Vmap@std@@Vvector@2@V?$basic_string@DU?$char_traits@D@std@@V?$allocator@D@2@@2@_N_J_KNVallocator@2@Uadl_serializer@nlohmann@@@nlohmann@@@std@@@std@@@std@@QAEXXZ 10077d80 f i KitParser.obj
 0002:00028db0       ?_Reset_back@?$basic_filebuf@DU?$char_traits@D@std@@@std@@AAEXXZ 10077db0 f i KitParser.obj
 0002:00028e10       ?_Rmost@?$_Tree@V?$_Tmap_traits@V?$basic_string@DU?$char_traits@D@std@@V?$allocator@D@2@@std@@V12@U?$less@V?$basic_string@DU?$char_traits@D@std@@V?$allocator@D@2@@std@@@2@V?$allocator@U?$pair@$$CBV?$basic_string@DU?$char_traits@D@std@@V?$allocator@D@2@@std@@V12@@std@@@2@$0A@@std@@@std@@IBEAAPAU?$_Tree_node@U?$pair@$$CBV?$basic_string@DU?$char_traits@D@std@@V?$allocator@D@2@@std@@V12@@std@@PAX@2@XZ 10077e10 f i KitParser.obj
 0002:00028e40       ?_Rmost@?$_Tree@V?$_Tmap_traits@V?$basic_string@DU?$char_traits@D@std@@V?$allocator@D@2@@std@@V?$basic_json@Vmap@std@@Vvector@2@V?$basic_string@DU?$char_traits@D@std@@V?$allocator@D@2@@2@_N_J_KNVallocator@2@Uadl_serializer@nlohmann@@@nlohmann@@U?$less@V?$basic_string@DU?$char_traits@D@std@@V?$allocator@D@2@@std@@@2@V?$allocator@U?$pair@$$CBV?$basic_string@DU?$char_traits@D@std@@V?$allocator@D@2@@std@@V?$basic_json@Vmap@std@@Vvector@2@V?$basic_string@DU?$char_traits@D@std@@V?$allocator@D@2@@2@_N_J_KNVallocator@2@Uadl_serializer@nlohmann@@@nlohmann@@@std@@@2@$0A@@std@@@std@@IBEAAPAU?$_Tree_node@U?$pair@$$CBV?$basic_string@DU?$char_traits@D@std@@V?$allocator@D@2@@std@@V?$basic_json@Vmap@std@@Vvector@2@V?$basic_string@DU?$char_traits@D@std@@V?$allocator@D@2@@2@_N_J_KNVallocator@2@Uadl_serializer@nlohmann@@@nlohmann@@@std@@PAX@2@XZ 10077e40 f i KitParser.obj
 0002:00028e70       ?_Root@?$_Tree@V?$_Tmap_traits@V?$basic_string@DU?$char_traits@D@std@@V?$allocator@D@2@@std@@V12@U?$less@V?$basic_string@DU?$char_traits@D@std@@V?$allocator@D@2@@std@@@2@V?$allocator@U?$pair@$$CBV?$basic_string@DU?$char_traits@D@std@@V?$allocator@D@2@@std@@V12@@std@@@2@$0A@@std@@@std@@IBEAAPAU?$_Tree_node@U?$pair@$$CBV?$basic_string@DU?$char_traits@D@std@@V?$allocator@D@2@@std@@V12@@std@@PAX@2@XZ 10077e70 f i KitParser.obj
 0002:00028ea0       ?_Root@?$_Tree@V?$_Tmap_traits@V?$basic_string@DU?$char_traits@D@std@@V?$allocator@D@2@@std@@V?$basic_json@Vmap@std@@Vvector@2@V?$basic_string@DU?$char_traits@D@std@@V?$allocator@D@2@@2@_N_J_KNVallocator@2@Uadl_serializer@nlohmann@@@nlohmann@@U?$less@V?$basic_string@DU?$char_traits@D@std@@V?$allocator@D@2@@std@@@2@V?$allocator@U?$pair@$$CBV?$basic_string@DU?$char_traits@D@std@@V?$allocator@D@2@@std@@V?$basic_json@Vmap@std@@Vvector@2@V?$basic_string@DU?$char_traits@D@std@@V?$allocator@D@2@@2@_N_J_KNVallocator@2@Uadl_serializer@nlohmann@@@nlohmann@@@std@@@2@$0A@@std@@@std@@IBEAAPAU?$_Tree_node@U?$pair@$$CBV?$basic_string@DU?$char_traits@D@std@@V?$allocator@D@2@@std@@V?$basic_json@Vmap@std@@Vvector@2@V?$basic_string@DU?$char_traits@D@std@@V?$allocator@D@2@@2@_N_J_KNVallocator@2@Uadl_serializer@nlohmann@@@nlohmann@@@std@@PAX@2@XZ 10077ea0 f i KitParser.obj
 0002:00028ed0       ?_Rrotate@?$_Tree@V?$_Tmap_traits@V?$basic_string@DU?$char_traits@D@std@@V?$allocator@D@2@@std@@V12@U?$less@V?$basic_string@DU?$char_traits@D@std@@V?$allocator@D@2@@std@@@2@V?$allocator@U?$pair@$$CBV?$basic_string@DU?$char_traits@D@std@@V?$allocator@D@2@@std@@V12@@std@@@2@$0A@@std@@@std@@IAEXPAU?$_Tree_node@U?$pair@$$CBV?$basic_string@DU?$char_traits@D@std@@V?$allocator@D@2@@std@@V12@@std@@PAX@2@@Z 10077ed0 f i KitParser.obj
 0002:00028fa0       ?_Rrotate@?$_Tree@V?$_Tmap_traits@V?$basic_string@DU?$char_traits@D@std@@V?$allocator@D@2@@std@@V?$basic_json@Vmap@std@@Vvector@2@V?$basic_string@DU?$char_traits@D@std@@V?$allocator@D@2@@2@_N_J_KNVallocator@2@Uadl_serializer@nlohmann@@@nlohmann@@U?$less@V?$basic_string@DU?$char_traits@D@std@@V?$allocator@D@2@@std@@@2@V?$allocator@U?$pair@$$CBV?$basic_string@DU?$char_traits@D@std@@V?$allocator@D@2@@std@@V?$basic_json@Vmap@std@@Vvector@2@V?$basic_string@DU?$char_traits@D@std@@V?$allocator@D@2@@2@_N_J_KNVallocator@2@Uadl_serializer@nlohmann@@@nlohmann@@@std@@@2@$0A@@std@@@std@@IAEXPAU?$_Tree_node@U?$pair@$$CBV?$basic_string@DU?$char_traits@D@std@@V?$allocator@D@2@@std@@V?$basic_json@Vmap@std@@Vvector@2@V?$basic_string@DU?$char_traits@D@std@@V?$allocator@D@2@@2@_N_J_KNVallocator@2@Uadl_serializer@nlohmann@@@nlohmann@@@std@@PAX@2@@Z 10077fa0 f i KitParser.obj
 0002:00029070       ?_Set_back@?$basic_filebuf@DU?$char_traits@D@std@@@std@@AAEXXZ 10078070 f i KitParser.obj
 0002:000290f0       ?_Set_ptr_rep@?$_Ptr_base@V?$output_stream_adapter@D@detail@nlohmann@@@std@@IAEXPAV?$output_stream_adapter@D@detail@nlohmann@@PAV_Ref_count_base@2@@Z 100780f0 f i KitParser.obj
 0002:00029120       ?_Tidy@?$_Tree@V?$_Tmap_traits@V?$basic_string@DU?$char_traits@D@std@@V?$allocator@D@2@@std@@V?$basic_json@Vmap@std@@Vvector@2@V?$basic_string@DU?$char_traits@D@std@@V?$allocator@D@2@@2@_N_J_KNVallocator@2@Uadl_serializer@nlohmann@@@nlohmann@@U?$less@V?$basic_string@DU?$char_traits@D@std@@V?$allocator@D@2@@std@@@2@V?$allocator@U?$pair@$$CBV?$basic_string@DU?$char_traits@D@std@@V?$allocator@D@2@@std@@V?$basic_json@Vmap@std@@Vvector@2@V?$basic_string@DU?$char_traits@D@std@@V?$allocator@D@2@@2@_N_J_KNVallocator@2@Uadl_serializer@nlohmann@@@nlohmann@@@std@@@2@$0A@@std@@@std@@IAEXXZ 10078120 f i KitParser.obj
 0002:00029180       ?_Tidy@?$basic_stringbuf@DU?$char_traits@D@std@@V?$allocator@D@2@@std@@IAEXXZ 10078180 f i KitParser.obj
 0002:00029250       ?_Tidy@?$vector@V?$basic_json@Vmap@std@@Vvector@2@V?$basic_string@DU?$char_traits@D@std@@V?$allocator@D@2@@2@_N_J_KNVallocator@2@Uadl_serializer@nlohmann@@@nlohmann@@V?$allocator@V?$basic_json@Vmap@std@@Vvector@2@V?$basic_string@DU?$char_traits@D@std@@V?$allocator@D@2@@2@_N_J_KNVallocator@2@Uadl_serializer@nlohmann@@@nlohmann@@@std@@@std@@AAEXXZ 10078250 f i KitParser.obj
 0002:00029310       ?_Tidy_deallocate@?$basic_string@_WU?$char_traits@_W@std@@V?$allocator@_W@2@@std@@QAEXXZ 10078310 f i KitParser.obj
 0002:000293f0       ?_Tidy_init@?$basic_string@_WU?$char_traits@_W@std@@V?$allocator@_W@2@@std@@QAEXXZ 100783f0 f i KitParser.obj
 0002:00029460       ?_Unlock@?$basic_filebuf@DU?$char_traits@D@std@@@std@@UAEXXZ 10078460 f i KitParser.obj
 0002:000294a0       ?_Xran@?$_String_val@U?$_Simple_types@D@std@@@std@@SAXXZ 100784a0 f i KitParser.obj
 0002:000294c0       ?__autoclassinit2@?$_Array_iterator@D$0EA@@std@@QAEXI@Z 100784c0 f i KitParser.obj
 0002:000294f0       ?__autoclassinit2@?$_String_const_iterator@V?$_String_val@U?$_Simple_types@D@std@@@std@@@std@@QAEXI@Z 100784f0 f i KitParser.obj
 0002:00029520       ?__autoclassinit2@?$_Tree_const_iterator@V?$_Tree_val@U?$_Tree_simple_types@U?$pair@$$CBV?$basic_string@DU?$char_traits@D@std@@V?$allocator@D@2@@std@@V12@@std@@@std@@@std@@@std@@QAEXI@Z 10078520 f i KitParser.obj
 0002:00029550       ?__autoclassinit2@?$_Tree_const_iterator@V?$_Tree_val@U?$_Tree_simple_types@U?$pair@$$CBV?$basic_string@DU?$char_traits@D@std@@V?$allocator@D@2@@std@@V?$basic_json@Vmap@std@@Vvector@2@V?$basic_string@DU?$char_traits@D@std@@V?$allocator@D@2@@2@_N_J_KNVallocator@2@Uadl_serializer@nlohmann@@@nlohmann@@@std@@@std@@@std@@@std@@QAEXI@Z 10078550 f i KitParser.obj
 0002:00029580       ?__autoclassinit2@?$_Tree_iterator@V?$_Tree_val@U?$_Tree_simple_types@U?$pair@$$CBV?$basic_string@DU?$char_traits@D@std@@V?$allocator@D@2@@std@@V12@@std@@@std@@@std@@@std@@QAEXI@Z 10078580 f i KitParser.obj
 0002:000295b0       ?__autoclassinit2@?$_Tree_iterator@V?$_Tree_val@U?$_Tree_simple_types@U?$pair@$$CBV?$basic_string@DU?$char_traits@D@std@@V?$allocator@D@2@@std@@V?$basic_json@Vmap@std@@Vvector@2@V?$basic_string@DU?$char_traits@D@std@@V?$allocator@D@2@@2@_N_J_KNVallocator@2@Uadl_serializer@nlohmann@@@nlohmann@@@std@@@std@@@std@@@std@@QAEXI@Z 100785b0 f i KitParser.obj
 0002:000295e0       ?__autoclassinit2@?$_Vector_const_iterator@V?$_Vector_val@U?$_Simple_types@V?$basic_json@Vmap@std@@Vvector@2@V?$basic_string@DU?$char_traits@D@std@@V?$allocator@D@2@@2@_N_J_KNVallocator@2@Uadl_serializer@nlohmann@@@nlohmann@@@std@@@std@@@std@@QAEXI@Z 100785e0 f i KitParser.obj
 0002:00029610       ?__autoclassinit2@?$basic_ofstream@DU?$char_traits@D@std@@@std@@QAEXI@Z 10078610 f i KitParser.obj
 0002:00029640       ?__autoclassinit2@?$basic_stringstream@DU?$char_traits@D@std@@V?$allocator@D@2@@std@@QAEXI@Z 10078640 f i KitParser.obj
 0002:00029670       ?__autoclassinit2@?$serializer@V?$basic_json@Vmap@std@@Vvector@2@V?$basic_string@DU?$char_traits@D@std@@V?$allocator@D@2@@2@_N_J_KNVallocator@2@Uadl_serializer@nlohmann@@@nlohmann@@@detail@nlohmann@@QAEXI@Z 10078670 f i KitParser.obj
 0002:000296a0       ?__autoclassinit2@?$shared_ptr@V?$output_stream_adapter@D@detail@nlohmann@@@std@@QAEXI@Z 100786a0 f i KitParser.obj
 0002:00029730       ?__autoclassinit2@?$wstring_convert@V?$codecvt_utf8_utf16@_W$0BAPPPP@$0A@@std@@_WV?$allocator@_W@2@V?$allocator@D@2@@std@@QAEXI@Z 10078730 f i KitParser.obj
 0002:00029760       ?allocate@?$_Default_allocator_traits@V?$allocator@V?$basic_string@DU?$char_traits@D@std@@V?$allocator@D@2@@std@@@std@@@std@@SAPAV?$basic_string@DU?$char_traits@D@std@@V?$allocator@D@2@@2@AAV?$allocator@V?$basic_string@DU?$char_traits@D@std@@V?$allocator@D@2@@std@@@2@I@Z 10078760 f i KitParser.obj
 0002:00029790       ?allocate@?$_Default_allocator_traits@V?$allocator@V?$map@V?$basic_string@DU?$char_traits@D@std@@V?$allocator@D@2@@std@@V?$basic_json@Vmap@std@@Vvector@2@V?$basic_string@DU?$char_traits@D@std@@V?$allocator@D@2@@2@_N_J_KNVallocator@2@Uadl_serializer@nlohmann@@@nlohmann@@U?$less@V?$basic_string@DU?$char_traits@D@std@@V?$allocator@D@2@@std@@@2@V?$allocator@U?$pair@$$CBV?$basic_string@DU?$char_traits@D@std@@V?$allocator@D@2@@std@@V?$basic_json@Vmap@std@@Vvector@2@V?$basic_string@DU?$char_traits@D@std@@V?$allocator@D@2@@2@_N_J_KNVallocator@2@Uadl_serializer@nlohmann@@@nlohmann@@@std@@@2@@std@@@std@@@std@@SAPAV?$map@V?$basic_string@DU?$char_traits@D@std@@V?$allocator@D@2@@std@@V?$basic_json@Vmap@std@@Vvector@2@V?$basic_string@DU?$char_traits@D@std@@V?$allocator@D@2@@2@_N_J_KNVallocator@2@Uadl_serializer@nlohmann@@@nlohmann@@U?$less@V?$basic_string@DU?$char_traits@D@std@@V?$allocator@D@2@@std@@@2@V?$allocator@U?$pair@$$CBV?$basic_string@DU?$char_traits@D@std@@V?$allocator@D@2@@std@@V?$basic_json@Vmap@std@@Vvector@2@V?$basic_string@DU?$char_traits@D@std@@V?$allocator@D@2@@2@_N_J_KNVallocator@2@Uadl_serializer@nlohmann@@@nlohmann@@@std@@@2@@2@AAV?$allocator@V?$map@V?$basic_string@DU?$char_traits@D@std@@V?$allocator@D@2@@std@@V?$basic_json@Vmap@std@@Vvector@2@V?$basic_string@DU?$char_traits@D@std@@V?$allocator@D@2@@2@_N_J_KNVallocator@2@Uadl_serializer@nlohmann@@@nlohmann@@U?$less@V?$basic_string@DU?$char_traits@D@std@@V?$allocator@D@2@@std@@@2@V?$allocator@U?$pair@$$CBV?$basic_string@DU?$char_traits@D@std@@V?$allocator@D@2@@std@@V?$basic_json@Vmap@std@@Vvector@2@V?$basic_string@DU?$char_traits@D@std@@V?$allocator@D@2@@2@_N_J_KNVallocator@2@Uadl_serializer@nlohmann@@@nlohmann@@@std@@@2@@std@@@2@I@Z 10078790 f i KitParser.obj
 0002:000297c0       ?allocate@?$allocator@U?$_Tree_node@U?$pair@$$CBV?$basic_string@DU?$char_traits@D@std@@V?$allocator@D@2@@std@@V12@@std@@PAX@std@@@std@@QAEPAU?$_Tree_node@U?$pair@$$CBV?$basic_string@DU?$char_traits@D@std@@V?$allocator@D@2@@std@@V12@@std@@PAX@2@I@Z 100787c0 f i KitParser.obj
 0002:00029800       ?allocate@?$allocator@U?$_Tree_node@U?$pair@$$CBV?$basic_string@DU?$char_traits@D@std@@V?$allocator@D@2@@std@@V?$basic_json@Vmap@std@@Vvector@2@V?$basic_string@DU?$char_traits@D@std@@V?$allocator@D@2@@2@_N_J_KNVallocator@2@Uadl_serializer@nlohmann@@@nlohmann@@@std@@PAX@std@@@std@@QAEPAU?$_Tree_node@U?$pair@$$CBV?$basic_string@DU?$char_traits@D@std@@V?$allocator@D@2@@std@@V?$basic_json@Vmap@std@@Vvector@2@V?$basic_string@DU?$char_traits@D@std@@V?$allocator@D@2@@2@_N_J_KNVallocator@2@Uadl_serializer@nlohmann@@@nlohmann@@@std@@PAX@2@I@Z 10078800 f i KitParser.obj
 0002:00029840       ?append@?$basic_string@DU?$char_traits@D@std@@V?$allocator@D@2@@std@@QAEAAV12@ABV12@@Z 10078840 f i KitParser.obj
 0002:00029890       ?append@?$basic_string@DU?$char_traits@D@std@@V?$allocator@D@2@@std@@QAEAAV12@ID@Z 10078890 f i KitParser.obj
 0002:00029960       ?append@?$basic_string@DU?$char_traits@D@std@@V?$allocator@D@2@@std@@QAEAAV12@QBD@Z 10078960 f i KitParser.obj
 0002:000299b0       ?append@?$basic_string@DU?$char_traits@D@std@@V?$allocator@D@2@@std@@QAEAAV12@QBDI@Z 100789b0 f i KitParser.obj
 0002:00029a80       ?assert_invariant@?$basic_json@Vmap@std@@Vvector@2@V?$basic_string@DU?$char_traits@D@std@@V?$allocator@D@2@@2@_N_J_KNVallocator@2@Uadl_serializer@nlohmann@@@nlohmann@@ABEXXZ 10078a80 f i KitParser.obj
 0002:00029b40       ?assign@?$_WChar_traits@_W@std@@SAXAA_WAB_W@Z 10078b40 f i KitParser.obj
 0002:00029b70       ?assign@?$basic_string@DU?$char_traits@D@std@@V?$allocator@D@2@@std@@QAEAAV12@ID@Z 10078b70 f i KitParser.obj
 0002:00029c20       ?assign@?$char_traits@D@std@@SAPADQADID@Z 10078c20 f i KitParser.obj
 0002:00029c50       ?back@?$basic_string@DU?$char_traits@D@std@@V?$allocator@D@2@@std@@QBEABDXZ 10078c50 f i KitParser.obj
 0002:00029c90       ?back@?$vector@V?$basic_json@Vmap@std@@Vvector@2@V?$basic_string@DU?$char_traits@D@std@@V?$allocator@D@2@@2@_N_J_KNVallocator@2@Uadl_serializer@nlohmann@@@nlohmann@@V?$allocator@V?$basic_json@Vmap@std@@Vvector@2@V?$basic_string@DU?$char_traits@D@std@@V?$allocator@D@2@@2@_N_J_KNVallocator@2@Uadl_serializer@nlohmann@@@nlohmann@@@std@@@std@@QAEAAV?$basic_json@Vmap@std@@Vvector@2@V?$basic_string@DU?$char_traits@D@std@@V?$allocator@D@2@@2@_N_J_KNVallocator@2@Uadl_serializer@nlohmann@@@nlohmann@@XZ 10078c90 f i KitParser.obj
 0002:00029cc0       ?begin@?$_Tree@V?$_Tmap_traits@V?$basic_string@DU?$char_traits@D@std@@V?$allocator@D@2@@std@@V12@U?$less@V?$basic_string@DU?$char_traits@D@std@@V?$allocator@D@2@@std@@@2@V?$allocator@U?$pair@$$CBV?$basic_string@DU?$char_traits@D@std@@V?$allocator@D@2@@std@@V12@@std@@@2@$0A@@std@@@std@@QAE?AV?$_Tree_iterator@V?$_Tree_val@U?$_Tree_simple_types@U?$pair@$$CBV?$basic_string@DU?$char_traits@D@std@@V?$allocator@D@2@@std@@V12@@std@@@std@@@std@@@2@XZ 10078cc0 f i KitParser.obj
 0002:00029d40       ?begin@?$_Tree@V?$_Tmap_traits@V?$basic_string@DU?$char_traits@D@std@@V?$allocator@D@2@@std@@V12@U?$less@V?$basic_string@DU?$char_traits@D@std@@V?$allocator@D@2@@std@@@2@V?$allocator@U?$pair@$$CBV?$basic_string@DU?$char_traits@D@std@@V?$allocator@D@2@@std@@V12@@std@@@2@$0A@@std@@@std@@QBE?AV?$_Tree_const_iterator@V?$_Tree_val@U?$_Tree_simple_types@U?$pair@$$CBV?$basic_string@DU?$char_traits@D@std@@V?$allocator@D@2@@std@@V12@@std@@@std@@@std@@@2@XZ 10078d40 f i KitParser.obj
 0002:00029dc0       ?begin@?$_Tree@V?$_Tmap_traits@V?$basic_string@DU?$char_traits@D@std@@V?$allocator@D@2@@std@@V?$basic_json@Vmap@std@@Vvector@2@V?$basic_string@DU?$char_traits@D@std@@V?$allocator@D@2@@2@_N_J_KNVallocator@2@Uadl_serializer@nlohmann@@@nlohmann@@U?$less@V?$basic_string@DU?$char_traits@D@std@@V?$allocator@D@2@@std@@@2@V?$allocator@U?$pair@$$CBV?$basic_string@DU?$char_traits@D@std@@V?$allocator@D@2@@std@@V?$basic_json@Vmap@std@@Vvector@2@V?$basic_string@DU?$char_traits@D@std@@V?$allocator@D@2@@2@_N_J_KNVallocator@2@Uadl_serializer@nlohmann@@@nlohmann@@@std@@@2@$0A@@std@@@std@@QAE?AV?$_Tree_iterator@V?$_Tree_val@U?$_Tree_simple_types@U?$pair@$$CBV?$basic_string@DU?$char_traits@D@std@@V?$allocator@D@2@@std@@V?$basic_json@Vmap@std@@Vvector@2@V?$basic_string@DU?$char_traits@D@std@@V?$allocator@D@2@@2@_N_J_KNVallocator@2@Uadl_serializer@nlohmann@@@nlohmann@@@std@@@std@@@std@@@2@XZ 10078dc0 f i KitParser.obj
 0002:00029e40       ?begin@?$_Tree@V?$_Tmap_traits@V?$basic_string@DU?$char_traits@D@std@@V?$allocator@D@2@@std@@V?$basic_json@Vmap@std@@Vvector@2@V?$basic_string@DU?$char_traits@D@std@@V?$allocator@D@2@@2@_N_J_KNVallocator@2@Uadl_serializer@nlohmann@@@nlohmann@@U?$less@V?$basic_string@DU?$char_traits@D@std@@V?$allocator@D@2@@std@@@2@V?$allocator@U?$pair@$$CBV?$basic_string@DU?$char_traits@D@std@@V?$allocator@D@2@@std@@V?$basic_json@Vmap@std@@Vvector@2@V?$basic_string@DU?$char_traits@D@std@@V?$allocator@D@2@@2@_N_J_KNVallocator@2@Uadl_serializer@nlohmann@@@nlohmann@@@std@@@2@$0A@@std@@@std@@QBE?AV?$_Tree_const_iterator@V?$_Tree_val@U?$_Tree_simple_types@U?$pair@$$CBV?$basic_string@DU?$char_traits@D@std@@V?$allocator@D@2@@std@@V?$basic_json@Vmap@std@@Vvector@2@V?$basic_string@DU?$char_traits@D@std@@V?$allocator@D@2@@2@_N_J_KNVallocator@2@Uadl_serializer@nlohmann@@@nlohmann@@@std@@@std@@@std@@@2@XZ 10078e40 f i KitParser.obj
 0002:00029ec0       ?begin@?$array@D$0EA@@std@@QAE?AV?$_Array_iterator@D$0EA@@2@XZ 10078ec0 f i KitParser.obj
 0002:00029f30       ?begin@?$basic_string@DU?$char_traits@D@std@@V?$allocator@D@2@@std@@QAE?AV?$_String_iterator@V?$_String_val@U?$_Simple_types@D@std@@@std@@@2@XZ 10078f30 f i KitParser.obj
 0002:00029fd0       ?begin@?$vector@V?$basic_json@Vmap@std@@Vvector@2@V?$basic_string@DU?$char_traits@D@std@@V?$allocator@D@2@@2@_N_J_KNVallocator@2@Uadl_serializer@nlohmann@@@nlohmann@@V?$allocator@V?$basic_json@Vmap@std@@Vvector@2@V?$basic_string@DU?$char_traits@D@std@@V?$allocator@D@2@@2@_N_J_KNVallocator@2@Uadl_serializer@nlohmann@@@nlohmann@@@std@@@std@@QBE?AV?$_Vector_const_iterator@V?$_Vector_val@U?$_Simple_types@V?$basic_json@Vmap@std@@Vvector@2@V?$basic_string@DU?$char_traits@D@std@@V?$allocator@D@2@@2@_N_J_KNVallocator@2@Uadl_serializer@nlohmann@@@nlohmann@@@std@@@std@@@2@XZ 10078fd0 f i KitParser.obj
 0002:0002a050       ?bytes_following@?$serializer@V?$basic_json@Vmap@std@@Vvector@2@V?$basic_string@DU?$char_traits@D@std@@V?$allocator@D@2@@2@_N_J_KNVallocator@2@Uadl_serializer@nlohmann@@@nlohmann@@@detail@nlohmann@@CAIE@Z 10079050 f i KitParser.obj
 0002:0002a120       ?c_str@?$basic_string@DU?$char_traits@D@std@@V?$allocator@D@2@@std@@QBEPBDXZ 10079120 f i KitParser.obj
 0002:0002a180       ?capacity@?$basic_string@DU?$char_traits@D@std@@V?$allocator@D@2@@std@@QBEIXZ 10079180 f i KitParser.obj
 0002:0002a1b0       ?capacity@?$vector@V?$basic_json@Vmap@std@@Vvector@2@V?$basic_string@DU?$char_traits@D@std@@V?$allocator@D@2@@2@_N_J_KNVallocator@2@Uadl_serializer@nlohmann@@@nlohmann@@V?$allocator@V?$basic_json@Vmap@std@@Vvector@2@V?$basic_string@DU?$char_traits@D@std@@V?$allocator@D@2@@2@_N_J_KNVallocator@2@Uadl_serializer@nlohmann@@@nlohmann@@@std@@@std@@QBEIXZ 100791b0 f i KitParser.obj
 0002:0002a1f0       ?cbegin@?$_Tree@V?$_Tmap_traits@V?$basic_string@DU?$char_traits@D@std@@V?$allocator@D@2@@std@@V?$basic_json@Vmap@std@@Vvector@2@V?$basic_string@DU?$char_traits@D@std@@V?$allocator@D@2@@2@_N_J_KNVallocator@2@Uadl_serializer@nlohmann@@@nlohmann@@U?$less@V?$basic_string@DU?$char_traits@D@std@@V?$allocator@D@2@@std@@@2@V?$allocator@U?$pair@$$CBV?$basic_string@DU?$char_traits@D@std@@V?$allocator@D@2@@std@@V?$basic_json@Vmap@std@@Vvector@2@V?$basic_string@DU?$char_traits@D@std@@V?$allocator@D@2@@2@_N_J_KNVallocator@2@Uadl_serializer@nlohmann@@@nlohmann@@@std@@@2@$0A@@std@@@std@@QBE?AV?$_Tree_const_iterator@V?$_Tree_val@U?$_Tree_simple_types@U?$pair@$$CBV?$basic_string@DU?$char_traits@D@std@@V?$allocator@D@2@@std@@V?$basic_json@Vmap@std@@Vvector@2@V?$basic_string@DU?$char_traits@D@std@@V?$allocator@D@2@@2@_N_J_KNVallocator@2@Uadl_serializer@nlohmann@@@nlohmann@@@std@@@std@@@std@@@2@XZ 100791f0 f i KitParser.obj
 0002:0002a220       ?cbegin@?$vector@V?$basic_json@Vmap@std@@Vvector@2@V?$basic_string@DU?$char_traits@D@std@@V?$allocator@D@2@@2@_N_J_KNVallocator@2@Uadl_serializer@nlohmann@@@nlohmann@@V?$allocator@V?$basic_json@Vmap@std@@Vvector@2@V?$basic_string@DU?$char_traits@D@std@@V?$allocator@D@2@@2@_N_J_KNVallocator@2@Uadl_serializer@nlohmann@@@nlohmann@@@std@@@std@@QBE?AV?$_Vector_const_iterator@V?$_Vector_val@U?$_Simple_types@V?$basic_json@Vmap@std@@Vvector@2@V?$basic_string@DU?$char_traits@D@std@@V?$allocator@D@2@@2@_N_J_KNVallocator@2@Uadl_serializer@nlohmann@@@nlohmann@@@std@@@std@@@2@XZ 10079220 f i KitParser.obj
 0002:0002a250       ?cend@?$_Tree@V?$_Tmap_traits@V?$basic_string@DU?$char_traits@D@std@@V?$allocator@D@2@@std@@V?$basic_json@Vmap@std@@Vvector@2@V?$basic_string@DU?$char_traits@D@std@@V?$allocator@D@2@@2@_N_J_KNVallocator@2@Uadl_serializer@nlohmann@@@nlohmann@@U?$less@V?$basic_string@DU?$char_traits@D@std@@V?$allocator@D@2@@std@@@2@V?$allocator@U?$pair@$$CBV?$basic_string@DU?$char_traits@D@std@@V?$allocator@D@2@@std@@V?$basic_json@Vmap@std@@Vvector@2@V?$basic_string@DU?$char_traits@D@std@@V?$allocator@D@2@@2@_N_J_KNVallocator@2@Uadl_serializer@nlohmann@@@nlohmann@@@std@@@2@$0A@@std@@@std@@QBE?AV?$_Tree_const_iterator@V?$_Tree_val@U?$_Tree_simple_types@U?$pair@$$CBV?$basic_string@DU?$char_traits@D@std@@V?$allocator@D@2@@std@@V?$basic_json@Vmap@std@@Vvector@2@V?$basic_string@DU?$char_traits@D@std@@V?$allocator@D@2@@2@_N_J_KNVallocator@2@Uadl_serializer@nlohmann@@@nlohmann@@@std@@@std@@@std@@@2@XZ 10079250 f i KitParser.obj
 0002:0002a280       ?cend@?$vector@V?$basic_json@Vmap@std@@Vvector@2@V?$basic_string@DU?$char_traits@D@std@@V?$allocator@D@2@@2@_N_J_KNVallocator@2@Uadl_serializer@nlohmann@@@nlohmann@@V?$allocator@V?$basic_json@Vmap@std@@Vvector@2@V?$basic_string@DU?$char_traits@D@std@@V?$allocator@D@2@@2@_N_J_KNVallocator@2@Uadl_serializer@nlohmann@@@nlohmann@@@std@@@std@@QBE?AV?$_Vector_const_iterator@V?$_Vector_val@U?$_Simple_types@V?$basic_json@Vmap@std@@Vvector@2@V?$basic_string@DU?$char_traits@D@std@@V?$allocator@D@2@@2@_N_J_KNVallocator@2@Uadl_serializer@nlohmann@@@nlohmann@@@std@@@std@@@2@XZ 10079280 f i KitParser.obj
 0002:0002a2b0       ?clear@?$_Tree@V?$_Tmap_traits@V?$basic_string@DU?$char_traits@D@std@@V?$allocator@D@2@@std@@V?$basic_json@Vmap@std@@Vvector@2@V?$basic_string@DU?$char_traits@D@std@@V?$allocator@D@2@@2@_N_J_KNVallocator@2@Uadl_serializer@nlohmann@@@nlohmann@@U?$less@V?$basic_string@DU?$char_traits@D@std@@V?$allocator@D@2@@std@@@2@V?$allocator@U?$pair@$$CBV?$basic_string@DU?$char_traits@D@std@@V?$allocator@D@2@@std@@V?$basic_json@Vmap@std@@Vvector@2@V?$basic_string@DU?$char_traits@D@std@@V?$allocator@D@2@@2@_N_J_KNVallocator@2@Uadl_serializer@nlohmann@@@nlohmann@@@std@@@2@$0A@@std@@@std@@QAEXXZ 100792b0 f i KitParser.obj
 0002:0002a380       ?close@?$basic_filebuf@DU?$char_traits@D@std@@@std@@QAEPAV12@XZ 10079380 f i KitParser.obj
 0002:0002a410       ?compare@?$basic_string@DU?$char_traits@D@std@@V?$allocator@D@2@@std@@QBEHABV12@@Z 10079410 f i KitParser.obj
 0002:0002a4b0       ?compare@?$char_traits@D@std@@SAHQBD0I@Z 100794b0 f i KitParser.obj
 0002:0002a4e0       ?create@type_error@detail@nlohmann@@SA?AV123@HABV?$basic_string@DU?$char_traits@D@std@@V?$allocator@D@2@@std@@@Z 100794e0 f i KitParser.obj
 0002:0002a620       ?data@?$array@D$0EA@@std@@QAEPADXZ 10079620 f i KitParser.obj
 0002:0002a640       ?deallocate@?$_Default_allocator_traits@V?$allocator@U?$_Tree_node@U?$pair@$$CBV?$basic_string@DU?$char_traits@D@std@@V?$allocator@D@2@@std@@V12@@std@@PAX@std@@@std@@@std@@SAXAAV?$allocator@U?$_Tree_node@U?$pair@$$CBV?$basic_string@DU?$char_traits@D@std@@V?$allocator@D@2@@std@@V12@@std@@PAX@std@@@2@QAU?$_Tree_node@U?$pair@$$CBV?$basic_string@DU?$char_traits@D@std@@V?$allocator@D@2@@std@@V12@@std@@PAX@2@I@Z 10079640 f i KitParser.obj
 0002:0002a670       ?deallocate@?$_Default_allocator_traits@V?$allocator@U?$_Tree_node@U?$pair@$$CBV?$basic_string@DU?$char_traits@D@std@@V?$allocator@D@2@@std@@V?$basic_json@Vmap@std@@Vvector@2@V?$basic_string@DU?$char_traits@D@std@@V?$allocator@D@2@@2@_N_J_KNVallocator@2@Uadl_serializer@nlohmann@@@nlohmann@@@std@@PAX@std@@@std@@@std@@SAXAAV?$allocator@U?$_Tree_node@U?$pair@$$CBV?$basic_string@DU?$char_traits@D@std@@V?$allocator@D@2@@std@@V?$basic_json@Vmap@std@@Vvector@2@V?$basic_string@DU?$char_traits@D@std@@V?$allocator@D@2@@2@_N_J_KNVallocator@2@Uadl_serializer@nlohmann@@@nlohmann@@@std@@PAX@std@@@2@QAU?$_Tree_node@U?$pair@$$CBV?$basic_string@DU?$char_traits@D@std@@V?$allocator@D@2@@std@@V?$basic_json@Vmap@std@@Vvector@2@V?$basic_string@DU?$char_traits@D@std@@V?$allocator@D@2@@2@_N_J_KNVallocator@2@Uadl_serializer@nlohmann@@@nlohmann@@@std@@PAX@2@I@Z 10079670 f i KitParser.obj
 0002:0002a6a0       ?deallocate@?$_Default_allocator_traits@V?$allocator@V?$basic_string@DU?$char_traits@D@std@@V?$allocator@D@2@@std@@@std@@@std@@SAXAAV?$allocator@V?$basic_string@DU?$char_traits@D@std@@V?$allocator@D@2@@std@@@2@QAV?$basic_string@DU?$char_traits@D@std@@V?$allocator@D@2@@2@I@Z 100796a0 f i KitParser.obj
 0002:0002a6d0       ?deallocate@?$_Default_allocator_traits@V?$allocator@V?$map@V?$basic_string@DU?$char_traits@D@std@@V?$allocator@D@2@@std@@V?$basic_json@Vmap@std@@Vvector@2@V?$basic_string@DU?$char_traits@D@std@@V?$allocator@D@2@@2@_N_J_KNVallocator@2@Uadl_serializer@nlohmann@@@nlohmann@@U?$less@V?$basic_string@DU?$char_traits@D@std@@V?$allocator@D@2@@std@@@2@V?$allocator@U?$pair@$$CBV?$basic_string@DU?$char_traits@D@std@@V?$allocator@D@2@@std@@V?$basic_json@Vmap@std@@Vvector@2@V?$basic_string@DU?$char_traits@D@std@@V?$allocator@D@2@@2@_N_J_KNVallocator@2@Uadl_serializer@nlohmann@@@nlohmann@@@std@@@2@@std@@@std@@@std@@SAXAAV?$allocator@V?$map@V?$basic_string@DU?$char_traits@D@std@@V?$allocator@D@2@@std@@V?$basic_json@Vmap@std@@Vvector@2@V?$basic_string@DU?$char_traits@D@std@@V?$allocator@D@2@@2@_N_J_KNVallocator@2@Uadl_serializer@nlohmann@@@nlohmann@@U?$less@V?$basic_string@DU?$char_traits@D@std@@V?$allocator@D@2@@std@@@2@V?$allocator@U?$pair@$$CBV?$basic_string@DU?$char_traits@D@std@@V?$allocator@D@2@@std@@V?$basic_json@Vmap@std@@Vvector@2@V?$basic_string@DU?$char_traits@D@std@@V?$allocator@D@2@@2@_N_J_KNVallocator@2@Uadl_serializer@nlohmann@@@nlohmann@@@std@@@2@@std@@@2@QAV?$map@V?$basic_string@DU?$char_traits@D@std@@V?$allocator@D@2@@std@@V?$basic_json@Vmap@std@@Vvector@2@V?$basic_string@DU?$char_traits@D@std@@V?$allocator@D@2@@2@_N_J_KNVallocator@2@Uadl_serializer@nlohmann@@@nlohmann@@U?$less@V?$basic_string@DU?$char_traits@D@std@@V?$allocator@D@2@@std@@@2@V?$allocator@U?$pair@$$CBV?$basic_string@DU?$char_traits@D@std@@V?$allocator@D@2@@std@@V?$basic_json@Vmap@std@@Vvector@2@V?$basic_string@DU?$char_traits@D@std@@V?$allocator@D@2@@2@_N_J_KNVallocator@2@Uadl_serializer@nlohmann@@@nlohmann@@@std@@@2@@2@I@Z 100796d0 f i KitParser.obj
 0002:0002a700       ?deallocate@?$_Default_allocator_traits@V?$allocator@V?$vector@V?$basic_json@Vmap@std@@Vvector@2@V?$basic_string@DU?$char_traits@D@std@@V?$allocator@D@2@@2@_N_J_KNVallocator@2@Uadl_serializer@nlohmann@@@nlohmann@@V?$allocator@V?$basic_json@Vmap@std@@Vvector@2@V?$basic_string@DU?$char_traits@D@std@@V?$allocator@D@2@@2@_N_J_KNVallocator@2@Uadl_serializer@nlohmann@@@nlohmann@@@std@@@std@@@std@@@std@@SAXAAV?$allocator@V?$vector@V?$basic_json@Vmap@std@@Vvector@2@V?$basic_string@DU?$char_traits@D@std@@V?$allocator@D@2@@2@_N_J_KNVallocator@2@Uadl_serializer@nlohmann@@@nlohmann@@V?$allocator@V?$basic_json@Vmap@std@@Vvector@2@V?$basic_string@DU?$char_traits@D@std@@V?$allocator@D@2@@2@_N_J_KNVallocator@2@Uadl_serializer@nlohmann@@@nlohmann@@@std@@@std@@@2@QAV?$vector@V?$basic_json@Vmap@std@@Vvector@2@V?$basic_string@DU?$char_traits@D@std@@V?$allocator@D@2@@2@_N_J_KNVallocator@2@Uadl_serializer@nlohmann@@@nlohmann@@V?$allocator@V?$basic_json@Vmap@std@@Vvector@2@V?$basic_string@DU?$char_traits@D@std@@V?$allocator@D@2@@2@_N_J_KNVallocator@2@Uadl_serializer@nlohmann@@@nlohmann@@@std@@@2@I@Z 10079700 f i KitParser.obj
 0002:0002a730       ?deallocate@?$allocator@U?$_Tree_node@U?$pair@$$CBV?$basic_string@DU?$char_traits@D@std@@V?$allocator@D@2@@std@@V12@@std@@PAX@std@@@std@@QAEXQAU?$_Tree_node@U?$pair@$$CBV?$basic_string@DU?$char_traits@D@std@@V?$allocator@D@2@@std@@V12@@std@@PAX@2@I@Z 10079730 f i KitParser.obj
 0002:0002a770       ?deallocate@?$allocator@U?$_Tree_node@U?$pair@$$CBV?$basic_string@DU?$char_traits@D@std@@V?$allocator@D@2@@std@@V?$basic_json@Vmap@std@@Vvector@2@V?$basic_string@DU?$char_traits@D@std@@V?$allocator@D@2@@2@_N_J_KNVallocator@2@Uadl_serializer@nlohmann@@@nlohmann@@@std@@PAX@std@@@std@@QAEXQAU?$_Tree_node@U?$pair@$$CBV?$basic_string@DU?$char_traits@D@std@@V?$allocator@D@2@@std@@V?$basic_json@Vmap@std@@Vvector@2@V?$basic_string@DU?$char_traits@D@std@@V?$allocator@D@2@@2@_N_J_KNVallocator@2@Uadl_serializer@nlohmann@@@nlohmann@@@std@@PAX@2@I@Z 10079770 f i KitParser.obj
 0002:0002a7a0       ?deallocate@?$allocator@V?$basic_json@Vmap@std@@Vvector@2@V?$basic_string@DU?$char_traits@D@std@@V?$allocator@D@2@@2@_N_J_KNVallocator@2@Uadl_serializer@nlohmann@@@nlohmann@@@std@@QAEXQAV?$basic_json@Vmap@std@@Vvector@2@V?$basic_string@DU?$char_traits@D@std@@V?$allocator@D@2@@2@_N_J_KNVallocator@2@Uadl_serializer@nlohmann@@@nlohmann@@I@Z 100797a0 f i KitParser.obj
 0002:0002a7e0       ?deallocate@?$allocator@_W@std@@QAEXQA_WI@Z 100797e0 f i KitParser.obj
 0002:0002a810       ?decode@?$serializer@V?$basic_json@Vmap@std@@Vvector@2@V?$basic_string@DU?$char_traits@D@std@@V?$allocator@D@2@@2@_N_J_KNVallocator@2@Uadl_serializer@nlohmann@@@nlohmann@@@detail@nlohmann@@CAXAAEE@Z 10079810 f i KitParser.obj
 0002:0002a870       ?destroy@json_value@?$basic_json@Vmap@std@@Vvector@2@V?$basic_string@DU?$char_traits@D@std@@V?$allocator@D@2@@2@_N_J_KNVallocator@2@Uadl_serializer@nlohmann@@@nlohmann@@QAEXW4value_t@detail@3@@Z 10079870 f i KitParser.obj
 0002:0002a980       ?do_always_noconv@?$codecvt_utf8_utf16@_W$0BAPPPP@$0A@@std@@MBE_NXZ 10079980 f i KitParser.obj
 0002:0002a9a0       ?do_encoding@?$codecvt_utf8_utf16@_W$0BAPPPP@$0A@@std@@MBEHXZ 100799a0 f i KitParser.obj
 0002:0002a9c0       ?do_in@?$codecvt_utf8_utf16@_W$0BAPPPP@$0A@@std@@MBEHAAU_Mbstatet@@PBD1AAPBDPA_W3AAPA_W@Z 100799c0 f i KitParser.obj
 0002:0002ae80       ?do_length@?$codecvt_utf8_utf16@_W$0BAPPPP@$0A@@std@@MBEHAAU_Mbstatet@@PBD1I@Z 10079e80 f i KitParser.obj
 0002:0002af90       ?do_max_length@?$codecvt_utf8_utf16@_W$0BAPPPP@$0A@@std@@MBEHXZ 10079f90 f i KitParser.obj
 0002:0002afb0       ?do_out@?$codecvt_utf8_utf16@_W$0BAPPPP@$0A@@std@@MBEHAAU_Mbstatet@@PB_W1AAPB_WPAD3AAPAD@Z 10079fb0 f i KitParser.obj
 0002:0002b320       ?do_unshift@?$codecvt_utf8_utf16@_W$0BAPPPP@$0A@@std@@MBEHAAU_Mbstatet@@PAD1AAPAD@Z 1007a320 f i KitParser.obj
 0002:0002b380       ?dump@?$serializer@V?$basic_json@Vmap@std@@Vvector@2@V?$basic_string@DU?$char_traits@D@std@@V?$allocator@D@2@@2@_N_J_KNVallocator@2@Uadl_serializer@nlohmann@@@nlohmann@@@detail@nlohmann@@QAEXABV?$basic_json@Vmap@std@@Vvector@2@V?$basic_string@DU?$char_traits@D@std@@V?$allocator@D@2@@2@_N_J_KNVallocator@2@Uadl_serializer@nlohmann@@@3@_N1II@Z 1007a380 f i KitParser.obj
 0002:0002c1a0       ?dump_escaped@?$serializer@V?$basic_json@Vmap@std@@Vvector@2@V?$basic_string@DU?$char_traits@D@std@@V?$allocator@D@2@@2@_N_J_KNVallocator@2@Uadl_serializer@nlohmann@@@nlohmann@@@detail@nlohmann@@ABEXABV?$basic_string@DU?$char_traits@D@std@@V?$allocator@D@2@@std@@_N@Z 1007b1a0 f i KitParser.obj
 0002:0002c870       ?dump_float@?$serializer@V?$basic_json@Vmap@std@@Vvector@2@V?$basic_string@DU?$char_traits@D@std@@V?$allocator@D@2@@2@_N_J_KNVallocator@2@Uadl_serializer@nlohmann@@@nlohmann@@@detail@nlohmann@@AAEXN@Z 1007b870 f i KitParser.obj
 0002:0002cc70       ?empty@?$_Tree@V?$_Tmap_traits@V?$basic_string@DU?$char_traits@D@std@@V?$allocator@D@2@@std@@V?$basic_json@Vmap@std@@Vvector@2@V?$basic_string@DU?$char_traits@D@std@@V?$allocator@D@2@@2@_N_J_KNVallocator@2@Uadl_serializer@nlohmann@@@nlohmann@@U?$less@V?$basic_string@DU?$char_traits@D@std@@V?$allocator@D@2@@std@@@2@V?$allocator@U?$pair@$$CBV?$basic_string@DU?$char_traits@D@std@@V?$allocator@D@2@@std@@V?$basic_json@Vmap@std@@Vvector@2@V?$basic_string@DU?$char_traits@D@std@@V?$allocator@D@2@@2@_N_J_KNVallocator@2@Uadl_serializer@nlohmann@@@nlohmann@@@std@@@2@$0A@@std@@@std@@QBE_NXZ 1007bc70 f i KitParser.obj
 0002:0002ccb0       ?empty@?$vector@V?$basic_json@Vmap@std@@Vvector@2@V?$basic_string@DU?$char_traits@D@std@@V?$allocator@D@2@@2@_N_J_KNVallocator@2@Uadl_serializer@nlohmann@@@nlohmann@@V?$allocator@V?$basic_json@Vmap@std@@Vvector@2@V?$basic_string@DU?$char_traits@D@std@@V?$allocator@D@2@@2@_N_J_KNVallocator@2@Uadl_serializer@nlohmann@@@nlohmann@@@std@@@std@@QBE_NXZ 1007bcb0 f i KitParser.obj
 0002:0002cd00       ?end@?$_Tree@V?$_Tmap_traits@V?$basic_string@DU?$char_traits@D@std@@V?$allocator@D@2@@std@@V12@U?$less@V?$basic_string@DU?$char_traits@D@std@@V?$allocator@D@2@@std@@@2@V?$allocator@U?$pair@$$CBV?$basic_string@DU?$char_traits@D@std@@V?$allocator@D@2@@std@@V12@@std@@@2@$0A@@std@@@std@@QAE?AV?$_Tree_iterator@V?$_Tree_val@U?$_Tree_simple_types@U?$pair@$$CBV?$basic_string@DU?$char_traits@D@std@@V?$allocator@D@2@@std@@V12@@std@@@std@@@std@@@2@XZ 1007bd00 f i KitParser.obj
 0002:0002cd80       ?end@?$_Tree@V?$_Tmap_traits@V?$basic_string@DU?$char_traits@D@std@@V?$allocator@D@2@@std@@V12@U?$less@V?$basic_string@DU?$char_traits@D@std@@V?$allocator@D@2@@std@@@2@V?$allocator@U?$pair@$$CBV?$basic_string@DU?$char_traits@D@std@@V?$allocator@D@2@@std@@V12@@std@@@2@$0A@@std@@@std@@QBE?AV?$_Tree_const_iterator@V?$_Tree_val@U?$_Tree_simple_types@U?$pair@$$CBV?$basic_string@DU?$char_traits@D@std@@V?$allocator@D@2@@std@@V12@@std@@@std@@@std@@@2@XZ 1007bd80 f i KitParser.obj
 0002:0002ce00       ?end@?$_Tree@V?$_Tmap_traits@V?$basic_string@DU?$char_traits@D@std@@V?$allocator@D@2@@std@@V?$basic_json@Vmap@std@@Vvector@2@V?$basic_string@DU?$char_traits@D@std@@V?$allocator@D@2@@2@_N_J_KNVallocator@2@Uadl_serializer@nlohmann@@@nlohmann@@U?$less@V?$basic_string@DU?$char_traits@D@std@@V?$allocator@D@2@@std@@@2@V?$allocator@U?$pair@$$CBV?$basic_string@DU?$char_traits@D@std@@V?$allocator@D@2@@std@@V?$basic_json@Vmap@std@@Vvector@2@V?$basic_string@DU?$char_traits@D@std@@V?$allocator@D@2@@2@_N_J_KNVallocator@2@Uadl_serializer@nlohmann@@@nlohmann@@@std@@@2@$0A@@std@@@std@@QAE?AV?$_Tree_iterator@V?$_Tree_val@U?$_Tree_simple_types@U?$pair@$$CBV?$basic_string@DU?$char_traits@D@std@@V?$allocator@D@2@@std@@V?$basic_json@Vmap@std@@Vvector@2@V?$basic_string@DU?$char_traits@D@std@@V?$allocator@D@2@@2@_N_J_KNVallocator@2@Uadl_serializer@nlohmann@@@nlohmann@@@std@@@std@@@std@@@2@XZ 1007be00 f i KitParser.obj
 0002:0002ce80       ?end@?$_Tree@V?$_Tmap_traits@V?$basic_string@DU?$char_traits@D@std@@V?$allocator@D@2@@std@@V?$basic_json@Vmap@std@@Vvector@2@V?$basic_string@DU?$char_traits@D@std@@V?$allocator@D@2@@2@_N_J_KNVallocator@2@Uadl_serializer@nlohmann@@@nlohmann@@U?$less@V?$basic_string@DU?$char_traits@D@std@@V?$allocator@D@2@@std@@@2@V?$allocator@U?$pair@$$CBV?$basic_string@DU?$char_traits@D@std@@V?$allocator@D@2@@std@@V?$basic_json@Vmap@std@@Vvector@2@V?$basic_string@DU?$char_traits@D@std@@V?$allocator@D@2@@2@_N_J_KNVallocator@2@Uadl_serializer@nlohmann@@@nlohmann@@@std@@@2@$0A@@std@@@std@@QBE?AV?$_Tree_const_iterator@V?$_Tree_val@U?$_Tree_simple_types@U?$pair@$$CBV?$basic_string@DU?$char_traits@D@std@@V?$allocator@D@2@@std@@V?$basic_json@Vmap@std@@Vvector@2@V?$basic_string@DU?$char_traits@D@std@@V?$allocator@D@2@@2@_N_J_KNVallocator@2@Uadl_serializer@nlohmann@@@nlohmann@@@std@@@std@@@std@@@2@XZ 1007be80 f i KitParser.obj
 0002:0002cf00       ?end@?$array@D$0EA@@std@@QAE?AV?$_Array_iterator@D$0EA@@2@XZ 1007bf00 f i KitParser.obj
 0002:0002cf70       ?end@?$basic_string@DU?$char_traits@D@std@@V?$allocator@D@2@@std@@QBE?AV?$_String_const_iterator@V?$_String_val@U?$_Simple_types@D@std@@@std@@@2@XZ 1007bf70 f i KitParser.obj
 0002:0002d010       ?end@?$vector@V?$basic_json@Vmap@std@@Vvector@2@V?$basic_string@DU?$char_traits@D@std@@V?$allocator@D@2@@2@_N_J_KNVallocator@2@Uadl_serializer@nlohmann@@@nlohmann@@V?$allocator@V?$basic_json@Vmap@std@@Vvector@2@V?$basic_string@DU?$char_traits@D@std@@V?$allocator@D@2@@2@_N_J_KNVallocator@2@Uadl_serializer@nlohmann@@@nlohmann@@@std@@@std@@QBE?AV?$_Vector_const_iterator@V?$_Vector_val@U?$_Simple_types@V?$basic_json@Vmap@std@@Vvector@2@V?$basic_string@DU?$char_traits@D@std@@V?$allocator@D@2@@2@_N_J_KNVallocator@2@Uadl_serializer@nlohmann@@@nlohmann@@@std@@@std@@@2@XZ 1007c010 f i KitParser.obj
 0002:0002d090       ?eof@?$char_traits@D@std@@SAHXZ 1007c090 f i KitParser.obj
 0002:0002d0b0       ?eq@?$char_traits@D@std@@SA_NABD0@Z 1007c0b0 f i KitParser.obj
 0002:0002d0f0       ?eq_int_type@?$char_traits@D@std@@SA_NABH0@Z 1007c0f0 f i KitParser.obj
 0002:0002d130       ?erase@?$_Tree@V?$_Tmap_traits@V?$basic_string@DU?$char_traits@D@std@@V?$allocator@D@2@@std@@V?$basic_json@Vmap@std@@Vvector@2@V?$basic_string@DU?$char_traits@D@std@@V?$allocator@D@2@@2@_N_J_KNVallocator@2@Uadl_serializer@nlohmann@@@nlohmann@@U?$less@V?$basic_string@DU?$char_traits@D@std@@V?$allocator@D@2@@std@@@2@V?$allocator@U?$pair@$$CBV?$basic_string@DU?$char_traits@D@std@@V?$allocator@D@2@@std@@V?$basic_json@Vmap@std@@Vvector@2@V?$basic_string@DU?$char_traits@D@std@@V?$allocator@D@2@@2@_N_J_KNVallocator@2@Uadl_serializer@nlohmann@@@nlohmann@@@std@@@2@$0A@@std@@@std@@QAE?AV?$_Tree_iterator@V?$_Tree_val@U?$_Tree_simple_types@U?$pair@$$CBV?$basic_string@DU?$char_traits@D@std@@V?$allocator@D@2@@std@@V?$basic_json@Vmap@std@@Vvector@2@V?$basic_string@DU?$char_traits@D@std@@V?$allocator@D@2@@2@_N_J_KNVallocator@2@Uadl_serializer@nlohmann@@@nlohmann@@@std@@@std@@@std@@@2@V?$_Tree_const_iterator@V?$_Tree_val@U?$_Tree_simple_types@U?$pair@$$CBV?$basic_string@DU?$char_traits@D@std@@V?$allocator@D@2@@std@@V?$basic_json@Vmap@std@@Vvector@2@V?$basic_string@DU?$char_traits@D@std@@V?$allocator@D@2@@2@_N_J_KNVallocator@2@Uadl_serializer@nlohmann@@@nlohmann@@@std@@@std@@@std@@@2@0@Z 1007c130 f i KitParser.obj
 0002:0002d220       ?erase@?$_Tree@V?$_Tmap_traits@V?$basic_string@DU?$char_traits@D@std@@V?$allocator@D@2@@std@@V?$basic_json@Vmap@std@@Vvector@2@V?$basic_string@DU?$char_traits@D@std@@V?$allocator@D@2@@2@_N_J_KNVallocator@2@Uadl_serializer@nlohmann@@@nlohmann@@U?$less@V?$basic_string@DU?$char_traits@D@std@@V?$allocator@D@2@@std@@@2@V?$allocator@U?$pair@$$CBV?$basic_string@DU?$char_traits@D@std@@V?$allocator@D@2@@std@@V?$basic_json@Vmap@std@@Vvector@2@V?$basic_string@DU?$char_traits@D@std@@V?$allocator@D@2@@2@_N_J_KNVallocator@2@Uadl_serializer@nlohmann@@@nlohmann@@@std@@@2@$0A@@std@@@std@@QAE?AV?$_Tree_iterator@V?$_Tree_val@U?$_Tree_simple_types@U?$pair@$$CBV?$basic_string@DU?$char_traits@D@std@@V?$allocator@D@2@@std@@V?$basic_json@Vmap@std@@Vvector@2@V?$basic_string@DU?$char_traits@D@std@@V?$allocator@D@2@@2@_N_J_KNVallocator@2@Uadl_serializer@nlohmann@@@nlohmann@@@std@@@std@@@std@@@2@V?$_Tree_const_iterator@V?$_Tree_val@U?$_Tree_simple_types@U?$pair@$$CBV?$basic_string@DU?$char_traits@D@std@@V?$allocator@D@2@@std@@V?$basic_json@Vmap@std@@Vvector@2@V?$basic_string@DU?$char_traits@D@std@@V?$allocator@D@2@@2@_N_J_KNVallocator@2@Uadl_serializer@nlohmann@@@nlohmann@@@std@@@std@@@std@@@2@@Z 1007c220 f i KitParser.obj
 0002:0002d300       ?erase@?$basic_string@DU?$char_traits@D@std@@V?$allocator@D@2@@std@@QAEAAV12@II@Z 1007c300 f i KitParser.obj
 0002:0002d3c0       ?escape_codepoint@?$serializer@V?$basic_json@Vmap@std@@Vvector@2@V?$basic_string@DU?$char_traits@D@std@@V?$allocator@D@2@@2@_N_J_KNVallocator@2@Uadl_serializer@nlohmann@@@nlohmann@@@detail@nlohmann@@CAXHAAV?$basic_string@DU?$char_traits@D@std@@V?$allocator@D@2@@std@@AAI@Z 1007c3c0 f i KitParser.obj
 0002:0002d810       ?extra_space@?$serializer@V?$basic_json@Vmap@std@@Vvector@2@V?$basic_string@DU?$char_traits@D@std@@V?$allocator@D@2@@2@_N_J_KNVallocator@2@Uadl_serializer@nlohmann@@@nlohmann@@@detail@nlohmann@@CAIABV?$basic_string@DU?$char_traits@D@std@@V?$allocator@D@2@@std@@_N@Z 1007c810 f i KitParser.obj
 0002:0002da50       ?fpclassify@@YAHN@Z        1007ca50 f i KitParser.obj
 0002:0002da80       ?get@?$_Ptr_base@U?$output_adapter_protocol@D@detail@nlohmann@@@std@@IBEPAU?$output_adapter_protocol@D@detail@nlohmann@@XZ 1007ca80 f i KitParser.obj
 0002:0002db60       ?hex@std@@YAAAVios_base@1@AAV21@@Z 1007cb60 f i KitParser.obj
 0002:0002db90       ?imbue@?$basic_filebuf@DU?$char_traits@D@std@@@std@@MAEXABVlocale@2@@Z 1007cb90 f i KitParser.obj
 0002:0002dbd0       ?insert@?$basic_string@DU?$char_traits@D@std@@V?$allocator@D@2@@std@@QAEAAV12@IABV12@@Z 1007cbd0 f i KitParser.obj
 0002:0002dc20       ?insert@?$basic_string@DU?$char_traits@D@std@@V?$allocator@D@2@@std@@QAEAAV12@IQBD@Z 1007cc20 f i KitParser.obj
 0002:0002dc70       ?insert@?$basic_string@DU?$char_traits@D@std@@V?$allocator@D@2@@std@@QAEAAV12@IQBDI@Z 1007cc70 f i KitParser.obj
 0002:0002ddd0       ?lower_bound@?$_Tree@V?$_Tmap_traits@V?$basic_string@DU?$char_traits@D@std@@V?$allocator@D@2@@std@@V12@U?$less@V?$basic_string@DU?$char_traits@D@std@@V?$allocator@D@2@@std@@@2@V?$allocator@U?$pair@$$CBV?$basic_string@DU?$char_traits@D@std@@V?$allocator@D@2@@std@@V12@@std@@@2@$0A@@std@@@std@@QAE?AV?$_Tree_iterator@V?$_Tree_val@U?$_Tree_simple_types@U?$pair@$$CBV?$basic_string@DU?$char_traits@D@std@@V?$allocator@D@2@@std@@V12@@std@@@std@@@std@@@2@ABV?$basic_string@DU?$char_traits@D@std@@V?$allocator@D@2@@2@@Z 1007cdd0 f i KitParser.obj
 0002:0002de20       ?max_size@?$_Default_allocator_traits@V?$allocator@U?$_Tree_node@U?$pair@$$CBV?$basic_string@DU?$char_traits@D@std@@V?$allocator@D@2@@std@@V12@@std@@PAX@std@@@std@@@std@@SAIABV?$allocator@U?$_Tree_node@U?$pair@$$CBV?$basic_string@DU?$char_traits@D@std@@V?$allocator@D@2@@std@@V12@@std@@PAX@std@@@2@@Z 1007ce20 f i KitParser.obj
 0002:0002de40       ?max_size@?$_Default_allocator_traits@V?$allocator@U?$_Tree_node@U?$pair@$$CBV?$basic_string@DU?$char_traits@D@std@@V?$allocator@D@2@@std@@V?$basic_json@Vmap@std@@Vvector@2@V?$basic_string@DU?$char_traits@D@std@@V?$allocator@D@2@@2@_N_J_KNVallocator@2@Uadl_serializer@nlohmann@@@nlohmann@@@std@@PAX@std@@@std@@@std@@SAIABV?$allocator@U?$_Tree_node@U?$pair@$$CBV?$basic_string@DU?$char_traits@D@std@@V?$allocator@D@2@@std@@V?$basic_json@Vmap@std@@Vvector@2@V?$basic_string@DU?$char_traits@D@std@@V?$allocator@D@2@@2@_N_J_KNVallocator@2@Uadl_serializer@nlohmann@@@nlohmann@@@std@@PAX@std@@@2@@Z 1007ce40 f i KitParser.obj
 0002:0002de60       ?max_size@?$_Tree@V?$_Tmap_traits@V?$basic_string@DU?$char_traits@D@std@@V?$allocator@D@2@@std@@V12@U?$less@V?$basic_string@DU?$char_traits@D@std@@V?$allocator@D@2@@std@@@2@V?$allocator@U?$pair@$$CBV?$basic_string@DU?$char_traits@D@std@@V?$allocator@D@2@@std@@V12@@std@@@2@$0A@@std@@@std@@QBEIXZ 1007ce60 f i KitParser.obj
 0002:0002de90       ?max_size@?$_Tree@V?$_Tmap_traits@V?$basic_string@DU?$char_traits@D@std@@V?$allocator@D@2@@std@@V?$basic_json@Vmap@std@@Vvector@2@V?$basic_string@DU?$char_traits@D@std@@V?$allocator@D@2@@2@_N_J_KNVallocator@2@Uadl_serializer@nlohmann@@@nlohmann@@U?$less@V?$basic_string@DU?$char_traits@D@std@@V?$allocator@D@2@@std@@@2@V?$allocator@U?$pair@$$CBV?$basic_string@DU?$char_traits@D@std@@V?$allocator@D@2@@std@@V?$basic_json@Vmap@std@@Vvector@2@V?$basic_string@DU?$char_traits@D@std@@V?$allocator@D@2@@2@_N_J_KNVallocator@2@Uadl_serializer@nlohmann@@@nlohmann@@@std@@@2@$0A@@std@@@std@@QBEIXZ 1007ce90 f i KitParser.obj
 0002:0002dec0       ?memchr@@YAPAXPAXHI@Z      1007cec0 f i KitParser.obj
 0002:0002df00       ?name@exception@detail@nlohmann@@KA?AV?$basic_string@DU?$char_traits@D@std@@V?$allocator@D@2@@std@@ABV45@H@Z 1007cf00 f i KitParser.obj
 0002:0002e0c0       ?not_eof@?$char_traits@D@std@@SAHABH@Z 1007d0c0 f i KitParser.obj
 0002:0002e120       ?open@?$basic_filebuf@DU?$char_traits@D@std@@@std@@QAEPAV12@PBDHH@Z 1007d120 f i KitParser.obj
 0002:0002e210       ?overflow@?$basic_filebuf@DU?$char_traits@D@std@@@std@@MAEHH@Z 1007d210 f i KitParser.obj
 0002:0002e660       ?overflow@?$basic_stringbuf@DU?$char_traits@D@std@@V?$allocator@D@2@@std@@MAEHH@Z 1007d660 f i KitParser.obj
 0002:0002ea30       ?pbackfail@?$basic_filebuf@DU?$char_traits@D@std@@@std@@MAEHH@Z 1007da30 f i KitParser.obj
 0002:0002ebe0       ?pbackfail@?$basic_stringbuf@DU?$char_traits@D@std@@V?$allocator@D@2@@std@@MAEHH@Z 1007dbe0 f i KitParser.obj
 0002:0002ed10       ?pointer_to@?$pointer_traits@PAD@std@@SAPADAAD@Z 1007dd10 f i KitParser.obj
 0002:0002ed40       ?pointer_to@?$pointer_traits@PAU?$pair@$$CBV?$basic_string@DU?$char_traits@D@std@@V?$allocator@D@2@@std@@V12@@std@@@std@@SAPAU?$pair@$$CBV?$basic_string@DU?$char_traits@D@std@@V?$allocator@D@2@@std@@V12@@2@AAU32@@Z 1007dd40 f i KitParser.obj
 0002:0002ed70       ?pointer_to@?$pointer_traits@PBU?$pair@$$CBV?$basic_string@DU?$char_traits@D@std@@V?$allocator@D@2@@std@@V?$basic_json@Vmap@std@@Vvector@2@V?$basic_string@DU?$char_traits@D@std@@V?$allocator@D@2@@2@_N_J_KNVallocator@2@Uadl_serializer@nlohmann@@@nlohmann@@@std@@@std@@SAPBU?$pair@$$CBV?$basic_string@DU?$char_traits@D@std@@V?$allocator@D@2@@std@@V?$basic_json@Vmap@std@@Vvector@2@V?$basic_string@DU?$char_traits@D@std@@V?$allocator@D@2@@2@_N_J_KNVallocator@2@Uadl_serializer@nlohmann@@@nlohmann@@@2@ABU32@@Z 1007dd70 f i KitParser.obj
 0002:0002ee20       ?reserve@?$basic_string@DU?$char_traits@D@std@@V?$allocator@D@2@@std@@QAEXI@Z 1007de20 f i KitParser.obj
 0002:0002eee0       ?resize@?$basic_string@DU?$char_traits@D@std@@V?$allocator@D@2@@std@@QAEXID@Z 1007dee0 f i KitParser.obj
 0002:0002ef40       ?seekoff@?$basic_filebuf@DU?$char_traits@D@std@@@std@@MAE?AV?$fpos@U_Mbstatet@@@2@_JHH@Z 1007df40 f i KitParser.obj
 0002:0002f080       ?seekoff@?$basic_stringbuf@DU?$char_traits@D@std@@V?$allocator@D@2@@std@@MAE?AV?$fpos@U_Mbstatet@@@2@_JHH@Z 1007e080 f i KitParser.obj
 0002:0002f3f0       ?seekpos@?$basic_filebuf@DU?$char_traits@D@std@@@std@@MAE?AV?$fpos@U_Mbstatet@@@2@V32@H@Z 1007e3f0 f i KitParser.obj
 0002:0002f550       ?seekpos@?$basic_stringbuf@DU?$char_traits@D@std@@V?$allocator@D@2@@std@@MAE?AV?$fpos@U_Mbstatet@@@2@V32@H@Z 1007e550 f i KitParser.obj
 0002:0002f7d0       ?seekpos@?$fpos@U_Mbstatet@@@std@@QBE_JXZ 1007e7d0 f i KitParser.obj
 0002:0002f800       ?select_on_container_copy_construction@?$_Default_allocator_traits@V?$allocator@D@std@@@std@@SA?AV?$allocator@D@2@ABV32@@Z 1007e800 f i KitParser.obj
 0002:0002f820       ?setbuf@?$basic_filebuf@DU?$char_traits@D@std@@@std@@MAEPAV?$basic_streambuf@DU?$char_traits@D@std@@@2@PAD_J@Z 1007e820 f i KitParser.obj
 0002:0002f8c0       ?size@?$_Tree@V?$_Tmap_traits@V?$basic_string@DU?$char_traits@D@std@@V?$allocator@D@2@@std@@V12@U?$less@V?$basic_string@DU?$char_traits@D@std@@V?$allocator@D@2@@std@@@2@V?$allocator@U?$pair@$$CBV?$basic_string@DU?$char_traits@D@std@@V?$allocator@D@2@@std@@V12@@std@@@2@$0A@@std@@@std@@QBEIXZ 1007e8c0 f i KitParser.obj
 0002:0002f8f0       ?size@?$_Tree@V?$_Tmap_traits@V?$basic_string@DU?$char_traits@D@std@@V?$allocator@D@2@@std@@V?$basic_json@Vmap@std@@Vvector@2@V?$basic_string@DU?$char_traits@D@std@@V?$allocator@D@2@@2@_N_J_KNVallocator@2@Uadl_serializer@nlohmann@@@nlohmann@@U?$less@V?$basic_string@DU?$char_traits@D@std@@V?$allocator@D@2@@std@@@2@V?$allocator@U?$pair@$$CBV?$basic_string@DU?$char_traits@D@std@@V?$allocator@D@2@@std@@V?$basic_json@Vmap@std@@Vvector@2@V?$basic_string@DU?$char_traits@D@std@@V?$allocator@D@2@@2@_N_J_KNVallocator@2@Uadl_serializer@nlohmann@@@nlohmann@@@std@@@2@$0A@@std@@@std@@QBEIXZ 1007e8f0 f i KitParser.obj
 0002:0002f920       ?size@?$array@D$0EA@@std@@QBEIXZ 1007e920 f i KitParser.obj
 0002:0002f940       ?size@?$basic_string@DU?$char_traits@D@std@@V?$allocator@D@2@@std@@QBEIXZ 1007e940 f i KitParser.obj
 0002:0002f970       ?state@?$fpos@U_Mbstatet@@@std@@QBE?AU_Mbstatet@@XZ 1007e970 f i KitParser.obj
 0002:0002f9b0       ?str@?$basic_stringbuf@DU?$char_traits@D@std@@V?$allocator@D@2@@std@@QBE?AV?$basic_string@DU?$char_traits@D@std@@V?$allocator@D@2@@2@XZ 1007e9b0 f i KitParser.obj
 0002:0002fb80       ?str@?$basic_stringstream@DU?$char_traits@D@std@@V?$allocator@D@2@@std@@QBE?AV?$basic_string@DU?$char_traits@D@std@@V?$allocator@D@2@@2@XZ 1007eb80 f i KitParser.obj
 0002:0002fbd0       ?strstr@@YAPADQADQBD@Z     1007ebd0 f i KitParser.obj
 0002:0002fc00       ?sync@?$basic_filebuf@DU?$char_traits@D@std@@@std@@MAEHXZ 1007ec00 f i KitParser.obj
 0002:0002fca0       ?throw_if_invalid_utf8@?$serializer@V?$basic_json@Vmap@std@@Vvector@2@V?$basic_string@DU?$char_traits@D@std@@V?$allocator@D@2@@2@_N_J_KNVallocator@2@Uadl_serializer@nlohmann@@@nlohmann@@@detail@nlohmann@@CAXABV?$basic_string@DU?$char_traits@D@std@@V?$allocator@D@2@@std@@@Z 1007eca0 f i KitParser.obj
 0002:00030190       ?to_bytes@?$wstring_convert@V?$codecvt_utf8_utf16@_W$0BAPPPP@$0A@@std@@_WV?$allocator@_W@2@V?$allocator@D@2@@std@@QAE?AV?$basic_string@DU?$char_traits@D@std@@V?$allocator@D@2@@2@PB_W0@Z 1007f190 f i KitParser.obj
 0002:00030520       ?to_bytes@?$wstring_convert@V?$codecvt_utf8_utf16@_W$0BAPPPP@$0A@@std@@_WV?$allocator@_W@2@V?$allocator@D@2@@std@@QAE?AV?$basic_string@DU?$char_traits@D@std@@V?$allocator@D@2@@2@PB_W@Z 1007f520 f i KitParser.obj
 0002:00030590       ?to_char_type@?$char_traits@D@std@@SADABH@Z 1007f590 f i KitParser.obj
 0002:000305b0       ?to_int_type@?$char_traits@D@std@@SAHABD@Z 1007f5b0 f i KitParser.obj
 0002:000305d0       ?to_string@std@@YA?AV?$basic_string@DU?$char_traits@D@std@@V?$allocator@D@2@@1@H@Z 1007f5d0 f i KitParser.obj
 0002:00030610       ?to_string@std@@YA?AV?$basic_string@DU?$char_traits@D@std@@V?$allocator@D@2@@1@I@Z 1007f610 f i KitParser.obj
 0002:00030650       ?uflow@?$basic_filebuf@DU?$char_traits@D@std@@@std@@MAEHXZ 1007f650 f i KitParser.obj
 0002:00030a50       ?underflow@?$basic_filebuf@DU?$char_traits@D@std@@@std@@MAEHXZ 1007fa50 f i KitParser.obj
 0002:00030b30       ?underflow@?$basic_stringbuf@DU?$char_traits@D@std@@V?$allocator@D@2@@std@@MAEHXZ 1007fb30 f i KitParser.obj
 0002:00030c80       ?uppercase@std@@YAAAVios_base@1@AAV21@@Z 1007fc80 f i KitParser.obj
 0002:00030cb0       ?what@exception@detail@nlohmann@@UBEPBDXZ 1007fcb0 f i KitParser.obj
 0002:00030d20       ?what@exception@std@@UBEPBDXZ 1007fd20 f i KitParser.obj
 0002:00030d60       ?write_character@?$output_stream_adapter@D@detail@nlohmann@@UAEXD@Z 1007fd60 f i KitParser.obj
 0002:00030d90       ?write_characters@?$output_stream_adapter@D@detail@nlohmann@@UAEXPBDI@Z 1007fd90 f i KitParser.obj
 0002:00030dd0       ___local_stdio_printf_options 1007fdd0 f i KitParser.obj
 0002:00030f50       _snprintf                  1007ff50 f i KitParser.obj
 0002:00030fa0       _vsnprintf                 1007ffa0 f i KitParser.obj
 0002:000310d0       ??$?0$$V@?$_Compressed_pair@V?$allocator@Unetvar_table@NetvarSys@@@std@@V?$_Vector_val@U?$_Simple_types@Unetvar_table@NetvarSys@@@std@@@2@$00@std@@QAE@U_Zero_then_variadic_args_t@1@@Z 100800d0 f i SequenceProxy.obj
 0002:00031110       ??$?0AAU?$equal_to@V?$basic_string@DU?$char_traits@D@std@@V?$allocator@D@2@@std@@@std@@M@?$_Compressed_pair@U?$equal_to@V?$basic_string@DU?$char_traits@D@std@@V?$allocator@D@2@@std@@@std@@M$00@std@@QAE@U_One_then_variadic_args_t@1@AAU?$equal_to@V?$basic_string@DU?$char_traits@D@std@@V?$allocator@D@2@@std@@@1@$$QAM@Z 10080110 f i SequenceProxy.obj
 0002:00031160       ??$?0AAU?$hash@V?$basic_string@DU?$char_traits@D@std@@V?$allocator@D@2@@std@@@std@@U_One_then_variadic_args_t@1@AAU?$equal_to@V?$basic_string@DU?$char_traits@D@std@@V?$allocator@D@2@@std@@@1@M@?$_Compressed_pair@U?$hash@V?$basic_string@DU?$char_traits@D@std@@V?$allocator@D@2@@std@@@std@@V?$_Compressed_pair@U?$equal_to@V?$basic_string@DU?$char_traits@D@std@@V?$allocator@D@2@@std@@@std@@M$00@2@$00@std@@QAE@U_One_then_variadic_args_t@1@AAU?$hash@V?$basic_string@DU?$char_traits@D@std@@V?$allocator@D@2@@std@@@1@$$QAU21@AAU?$equal_to@V?$basic_string@DU?$char_traits@D@std@@V?$allocator@D@2@@std@@@1@$$QAM@Z 10080160 f i SequenceProxy.obj
 0002:00031350       ??$?0ABV?$allocator@U?$pair@$$CBV?$basic_string@DU?$char_traits@D@std@@V?$allocator@D@2@@std@@P6AHH@Z@std@@@std@@$$V@?$_Compressed_pair@V?$allocator@U?$_List_node@U?$pair@$$CBV?$basic_string@DU?$char_traits@D@std@@V?$allocator@D@2@@std@@P6AHH@Z@std@@PAX@std@@@std@@V?$_List_val@U?$_List_simple_types@U?$pair@$$CBV?$basic_string@DU?$char_traits@D@std@@V?$allocator@D@2@@std@@P6AHH@Z@std@@@std@@@2@$00@std@@QAE@U_One_then_variadic_args_t@1@ABV?$allocator@U?$pair@$$CBV?$basic_string@DU?$char_traits@D@std@@V?$allocator@D@2@@std@@P6AHH@Z@std@@@1@@Z 10080350 f i SequenceProxy.obj
 0002:000313a0       ??$?0ABV?$allocator@U?$pair@$$CBV?$basic_string@DU?$char_traits@D@std@@V?$allocator@D@2@@std@@P6AHH@Z@std@@@std@@X@?$_List_alloc@U?$_List_base_types@U?$pair@$$CBV?$basic_string@DU?$char_traits@D@std@@V?$allocator@D@2@@std@@P6AHH@Z@std@@V?$allocator@U?$pair@$$CBV?$basic_string@DU?$char_traits@D@std@@V?$allocator@D@2@@std@@P6AHH@Z@std@@@2@@std@@@std@@QAE@ABV?$allocator@U?$pair@$$CBV?$basic_string@DU?$char_traits@D@std@@V?$allocator@D@2@@std@@P6AHH@Z@std@@@1@@Z 100803a0 f i SequenceProxy.obj
 0002:00031400       ??$?0ABV?$allocator@U?$pair@$$CBV?$basic_string@DU?$char_traits@D@std@@V?$allocator@D@2@@std@@P6AHH@Z@std@@@std@@X@?$_List_buy@U?$pair@$$CBV?$basic_string@DU?$char_traits@D@std@@V?$allocator@D@2@@std@@P6AHH@Z@std@@V?$allocator@U?$pair@$$CBV?$basic_string@DU?$char_traits@D@std@@V?$allocator@D@2@@std@@P6AHH@Z@std@@@2@@std@@QAE@ABV?$allocator@U?$pair@$$CBV?$basic_string@DU?$char_traits@D@std@@V?$allocator@D@2@@std@@P6AHH@Z@std@@@1@@Z 10080400 f i SequenceProxy.obj
 0002:00031440       ??$?0ABV?$allocator@V?$_List_unchecked_iterator@V?$_List_val@U?$_List_simple_types@U?$pair@$$CBV?$basic_string@DU?$char_traits@D@std@@V?$allocator@D@2@@std@@P6AHH@Z@std@@@std@@@std@@@std@@@std@@$$V@?$_Compressed_pair@V?$allocator@V?$_List_unchecked_iterator@V?$_List_val@U?$_List_simple_types@U?$pair@$$CBV?$basic_string@DU?$char_traits@D@std@@V?$allocator@D@2@@std@@P6AHH@Z@std@@@std@@@std@@@std@@@std@@V?$_Vector_val@U?$_Simple_types@V?$_List_unchecked_iterator@V?$_List_val@U?$_List_simple_types@U?$pair@$$CBV?$basic_string@DU?$char_traits@D@std@@V?$allocator@D@2@@std@@P6AHH@Z@std@@@std@@@std@@@std@@@std@@@2@$00@std@@QAE@U_One_then_variadic_args_t@1@ABV?$allocator@V?$_List_unchecked_iterator@V?$_List_val@U?$_List_simple_types@U?$pair@$$CBV?$basic_string@DU?$char_traits@D@std@@V?$allocator@D@2@@std@@P6AHH@Z@std@@@std@@@std@@@std@@@1@@Z 10080440 f i SequenceProxy.obj
 0002:00031480       ??$?0ABV?$allocator@V?$_List_unchecked_iterator@V?$_List_val@U?$_List_simple_types@U?$pair@$$CBV?$basic_string@DU?$char_traits@D@std@@V?$allocator@D@2@@std@@P6AHH@Z@std@@@std@@@std@@@std@@@std@@X@?$_Vector_alloc@U?$_Vec_base_types@V?$_List_unchecked_iterator@V?$_List_val@U?$_List_simple_types@U?$pair@$$CBV?$basic_string@DU?$char_traits@D@std@@V?$allocator@D@2@@std@@P6AHH@Z@std@@@std@@@std@@@std@@V?$allocator@V?$_List_unchecked_iterator@V?$_List_val@U?$_List_simple_types@U?$pair@$$CBV?$basic_string@DU?$char_traits@D@std@@V?$allocator@D@2@@std@@P6AHH@Z@std@@@std@@@std@@@std@@@2@@std@@@std@@QAE@ABV?$allocator@V?$_List_unchecked_iterator@V?$_List_val@U?$_List_simple_types@U?$pair@$$CBV?$basic_string@DU?$char_traits@D@std@@V?$allocator@D@2@@std@@P6AHH@Z@std@@@std@@@std@@@std@@@1@@Z 10080480 f i SequenceProxy.obj
 0002:000314c0       ??$?0U?$pair@$$CBV?$basic_string@DU?$char_traits@D@std@@V?$allocator@D@2@@std@@P6AHH@Z@std@@@?$allocator@U?$_List_node@U?$pair@$$CBV?$basic_string@DU?$char_traits@D@std@@V?$allocator@D@2@@std@@P6AHH@Z@std@@PAX@std@@@std@@QAE@ABV?$allocator@U?$pair@$$CBV?$basic_string@DU?$char_traits@D@std@@V?$allocator@D@2@@std@@P6AHH@Z@std@@@1@@Z 100804c0 f i SequenceProxy.obj
 0002:000314e0       ??$?0U?$pair@$$CBV?$basic_string@DU?$char_traits@D@std@@V?$allocator@D@2@@std@@P6AHH@Z@std@@@?$allocator@V?$_List_unchecked_iterator@V?$_List_val@U?$_List_simple_types@U?$pair@$$CBV?$basic_string@DU?$char_traits@D@std@@V?$allocator@D@2@@std@@P6AHH@Z@std@@@std@@@std@@@std@@@std@@QAE@ABV?$allocator@U?$pair@$$CBV?$basic_string@DU?$char_traits@D@std@@V?$allocator@D@2@@std@@P6AHH@Z@std@@@1@@Z 100804e0 f i SequenceProxy.obj
 0002:00031500       ??$?0V?$_List_const_iterator@V?$_List_val@U?$_List_simple_types@U?$pair@$$CBV?$basic_string@DU?$char_traits@D@std@@V?$allocator@D@2@@std@@P6AHH@Z@std@@@std@@@std@@@std@@V01@$0A@@?$pair@V?$_List_const_iterator@V?$_List_val@U?$_List_simple_types@U?$pair@$$CBV?$basic_string@DU?$char_traits@D@std@@V?$allocator@D@2@@std@@P6AHH@Z@std@@@std@@@std@@@std@@V12@@std@@QAE@$$QAV?$_List_const_iterator@V?$_List_val@U?$_List_simple_types@U?$pair@$$CBV?$basic_string@DU?$char_traits@D@std@@V?$allocator@D@2@@std@@P6AHH@Z@std@@@std@@@std@@@1@0@Z 10080500 f i SequenceProxy.obj
 0002:00031550       ??$?0V?$_List_iterator@V?$_List_val@U?$_List_simple_types@U?$pair@$$CBV?$basic_string@DU?$char_traits@D@std@@V?$allocator@D@2@@std@@P6AHH@Z@std@@@std@@@std@@@std@@V01@$0A@@?$pair@V?$_List_const_iterator@V?$_List_val@U?$_List_simple_types@U?$pair@$$CBV?$basic_string@DU?$char_traits@D@std@@V?$allocator@D@2@@std@@P6AHH@Z@std@@@std@@@std@@@std@@V12@@std@@QAE@$$QAV?$_List_iterator@V?$_List_val@U?$_List_simple_types@U?$pair@$$CBV?$basic_string@DU?$char_traits@D@std@@V?$allocator@D@2@@std@@P6AHH@Z@std@@@std@@@std@@@1@0@Z 10080550 f i SequenceProxy.obj
 0002:000315a0       ??$?0V?$_List_iterator@V?$_List_val@U?$_List_simple_types@U?$pair@$$CBV?$basic_string@DU?$char_traits@D@std@@V?$allocator@D@2@@std@@P6AHH@Z@std@@@std@@@std@@@std@@_N$0A@@?$pair@V?$_List_iterator@V?$_List_val@U?$_List_simple_types@U?$pair@$$CBV?$basic_string@DU?$char_traits@D@std@@V?$allocator@D@2@@std@@P6AHH@Z@std@@@std@@@std@@@std@@_N@std@@QAE@$$QAV?$_List_iterator@V?$_List_val@U?$_List_simple_types@U?$pair@$$CBV?$basic_string@DU?$char_traits@D@std@@V?$allocator@D@2@@std@@P6AHH@Z@std@@@std@@@std@@@1@$$QA_N@Z 100805a0 f i SequenceProxy.obj
 0002:000315f0       ??$?8DU?$char_traits@D@std@@V?$allocator@D@1@@std@@YA_NABV?$basic_string@DU?$char_traits@D@std@@V?$allocator@D@2@@0@0@Z 100805f0 f i SequenceProxy.obj
 0002:00031620       ??$_Buy_if_not_node@AAU?$pair@$$CBV?$basic_string@DU?$char_traits@D@std@@V?$allocator@D@2@@std@@P6AHH@Z@std@@@?$_Hash@V?$_Umap_traits@V?$basic_string@DU?$char_traits@D@std@@V?$allocator@D@2@@std@@P6AHH@ZV?$_Uhash_compare@V?$basic_string@DU?$char_traits@D@std@@V?$allocator@D@2@@std@@U?$hash@V?$basic_string@DU?$char_traits@D@std@@V?$allocator@D@2@@std@@@2@U?$equal_to@V?$basic_string@DU?$char_traits@D@std@@V?$allocator@D@2@@std@@@2@@2@V?$allocator@U?$pair@$$CBV?$basic_string@DU?$char_traits@D@std@@V?$allocator@D@2@@std@@P6AHH@Z@std@@@2@$0A@@std@@@std@@IAE?AV?$_List_unchecked_iterator@V?$_List_val@U?$_List_simple_types@U?$pair@$$CBV?$basic_string@DU?$char_traits@D@std@@V?$allocator@D@2@@std@@P6AHH@Z@std@@@std@@@std@@@1@AAU?$pair@$$CBV?$basic_string@DU?$char_traits@D@std@@V?$allocator@D@2@@std@@P6AHH@Z@1@V21@@Z 10080620 f i SequenceProxy.obj
 0002:00031650       ??$_Buynode@ABU?$pair@$$CBV?$basic_string@DU?$char_traits@D@std@@V?$allocator@D@2@@std@@P6AHH@Z@std@@@?$_List_buy@U?$pair@$$CBV?$basic_string@DU?$char_traits@D@std@@V?$allocator@D@2@@std@@P6AHH@Z@std@@V?$allocator@U?$pair@$$CBV?$basic_string@DU?$char_traits@D@std@@V?$allocator@D@2@@std@@P6AHH@Z@std@@@2@@std@@QAEPAU?$_List_node@U?$pair@$$CBV?$basic_string@DU?$char_traits@D@std@@V?$allocator@D@2@@std@@P6AHH@Z@std@@PAX@1@PAU21@0ABU?$pair@$$CBV?$basic_string@DU?$char_traits@D@std@@V?$allocator@D@2@@std@@P6AHH@Z@1@@Z 10080650 f i SequenceProxy.obj
 0002:00031750       ??$_Destroy_range1@V?$allocator@PAVRecvProp@@@std@@@std@@YAXPAPAVRecvProp@@0AAV?$allocator@PAVRecvProp@@@0@U?$integral_constant@_N$00@0@@Z 10080750 f i SequenceProxy.obj
 0002:00031770       ??$_Destroy_range1@V?$allocator@Unetvar_table@NetvarSys@@@std@@@std@@YAXPAUnetvar_table@NetvarSys@@0AAV?$allocator@Unetvar_table@NetvarSys@@@0@U?$integral_constant@_N$0A@@0@@Z 10080770 f i SequenceProxy.obj
 0002:000317c0       ??$_Destroy_range1@V?$allocator@V?$_List_unchecked_iterator@V?$_List_val@U?$_List_simple_types@U?$pair@$$CBV?$basic_string@DU?$char_traits@D@std@@V?$allocator@D@2@@std@@P6AHH@Z@std@@@std@@@std@@@std@@@std@@@std@@YAXPAV?$_List_unchecked_iterator@V?$_List_val@U?$_List_simple_types@U?$pair@$$CBV?$basic_string@DU?$char_traits@D@std@@V?$allocator@D@2@@std@@P6AHH@Z@std@@@std@@@std@@@0@0AAV?$allocator@V?$_List_unchecked_iterator@V?$_List_val@U?$_List_simple_types@U?$pair@$$CBV?$basic_string@DU?$char_traits@D@std@@V?$allocator@D@2@@std@@P6AHH@Z@std@@@std@@@std@@@std@@@0@U?$integral_constant@_N$00@0@@Z 100807c0 f i SequenceProxy.obj
 0002:000317e0       ??$_Destroy_range@V?$allocator@PAVRecvProp@@@std@@@std@@YAXPAPAVRecvProp@@0AAV?$allocator@PAVRecvProp@@@0@@Z 100807e0 f i SequenceProxy.obj
 0002:00031820       ??$_Destroy_range@V?$allocator@Unetvar_table@NetvarSys@@@std@@@std@@YAXPAUnetvar_table@NetvarSys@@0AAV?$allocator@Unetvar_table@NetvarSys@@@0@@Z 10080820 f i SequenceProxy.obj
 0002:00031860       ??$_Destroy_range@V?$allocator@V?$_List_unchecked_iterator@V?$_List_val@U?$_List_simple_types@U?$pair@$$CBV?$basic_string@DU?$char_traits@D@std@@V?$allocator@D@2@@std@@P6AHH@Z@std@@@std@@@std@@@std@@@std@@@std@@YAXPAV?$_List_unchecked_iterator@V?$_List_val@U?$_List_simple_types@U?$pair@$$CBV?$basic_string@DU?$char_traits@D@std@@V?$allocator@D@2@@std@@P6AHH@Z@std@@@std@@@std@@@0@0AAV?$allocator@V?$_List_unchecked_iterator@V?$_List_val@U?$_List_simple_types@U?$pair@$$CBV?$basic_string@DU?$char_traits@D@std@@V?$allocator@D@2@@std@@P6AHH@Z@std@@@std@@@std@@@std@@@0@@Z 10080860 f i SequenceProxy.obj
 0002:000318a0       ??$_Distance1@V?$_List_const_iterator@V?$_List_val@U?$_List_simple_types@U?$pair@$$CBV?$basic_string@DU?$char_traits@D@std@@V?$allocator@D@2@@std@@P6AHH@Z@std@@@std@@@std@@@std@@@std@@YAHV?$_List_const_iterator@V?$_List_val@U?$_List_simple_types@U?$pair@$$CBV?$basic_string@DU?$char_traits@D@std@@V?$allocator@D@2@@std@@P6AHH@Z@std@@@std@@@std@@@0@0Uinput_iterator_tag@0@@Z 100808a0 f i SequenceProxy.obj
 0002:00031900       ??$_Fill_memset_is_safe@PAV?$_List_unchecked_iterator@V?$_List_val@U?$_List_simple_types@U?$pair@$$CBV?$basic_string@DU?$char_traits@D@std@@V?$allocator@D@2@@std@@P6AHH@Z@std@@@std@@@std@@@std@@V12@@std@@YA?AU?$integral_constant@_N$0A@@0@ABQAV?$_List_unchecked_iterator@V?$_List_val@U?$_List_simple_types@U?$pair@$$CBV?$basic_string@DU?$char_traits@D@std@@V?$allocator@D@2@@std@@P6AHH@Z@std@@@std@@@std@@@0@ABV20@@Z 10080900 f i SequenceProxy.obj
 0002:00031920       ??$_Fill_unchecked1@PAV?$_List_unchecked_iterator@V?$_List_val@U?$_List_simple_types@U?$pair@$$CBV?$basic_string@DU?$char_traits@D@std@@V?$allocator@D@2@@std@@P6AHH@Z@std@@@std@@@std@@@std@@V12@@std@@YAXPAV?$_List_unchecked_iterator@V?$_List_val@U?$_List_simple_types@U?$pair@$$CBV?$basic_string@DU?$char_traits@D@std@@V?$allocator@D@2@@std@@P6AHH@Z@std@@@std@@@std@@@0@0ABV10@U?$integral_constant@_N$0A@@0@@Z 10080920 f i SequenceProxy.obj
 0002:00031960       ??$_Fill_unchecked@PAV?$_List_unchecked_iterator@V?$_List_val@U?$_List_simple_types@U?$pair@$$CBV?$basic_string@DU?$char_traits@D@std@@V?$allocator@D@2@@std@@P6AHH@Z@std@@@std@@@std@@@std@@V12@@std@@YAXPAV?$_List_unchecked_iterator@V?$_List_val@U?$_List_simple_types@U?$pair@$$CBV?$basic_string@DU?$char_traits@D@std@@V?$allocator@D@2@@std@@P6AHH@Z@std@@@std@@@std@@@0@0ABV10@@Z 10080960 f i SequenceProxy.obj
 0002:000319b0       ??$_Freenode0@V?$allocator@U?$_List_node@U?$pair@$$CBV?$basic_string@DU?$char_traits@D@std@@V?$allocator@D@2@@std@@P6AHH@Z@std@@PAX@std@@@std@@@?$_List_node@U?$pair@$$CBV?$basic_string@DU?$char_traits@D@std@@V?$allocator@D@2@@std@@P6AHH@Z@std@@PAX@std@@SAXAAV?$allocator@U?$_List_node@U?$pair@$$CBV?$basic_string@DU?$char_traits@D@std@@V?$allocator@D@2@@std@@P6AHH@Z@std@@PAX@std@@@1@PAU01@@Z 100809b0 f i SequenceProxy.obj
 0002:00031a70       ??$_Get_size_of_n@$0CE@@std@@YAII@Z 10080a70 f i SequenceProxy.obj
 0002:00031ab0       ??$_Hash_array_representation@D@std@@YAIQBDI@Z 10080ab0 f i SequenceProxy.obj
 0002:00031ae0       ??$_Insert@AAU?$pair@$$CBV?$basic_string@DU?$char_traits@D@std@@V?$allocator@D@2@@std@@P6AHH@Z@std@@V?$_List_unchecked_iterator@V?$_List_val@U?$_List_simple_types@U?$pair@$$CBV?$basic_string@DU?$char_traits@D@std@@V?$allocator@D@2@@std@@P6AHH@Z@std@@@std@@@std@@@2@@?$_Hash@V?$_Umap_traits@V?$basic_string@DU?$char_traits@D@std@@V?$allocator@D@2@@std@@P6AHH@ZV?$_Uhash_compare@V?$basic_string@DU?$char_traits@D@std@@V?$allocator@D@2@@std@@U?$hash@V?$basic_string@DU?$char_traits@D@std@@V?$allocator@D@2@@std@@@2@U?$equal_to@V?$basic_string@DU?$char_traits@D@std@@V?$allocator@D@2@@std@@@2@@2@V?$allocator@U?$pair@$$CBV?$basic_string@DU?$char_traits@D@std@@V?$allocator@D@2@@std@@P6AHH@Z@std@@@2@$0A@@std@@@std@@IAE?AU?$pair@V?$_List_iterator@V?$_List_val@U?$_List_simple_types@U?$pair@$$CBV?$basic_string@DU?$char_traits@D@std@@V?$allocator@D@2@@std@@P6AHH@Z@std@@@std@@@std@@@std@@_N@1@AAU?$pair@$$CBV?$basic_string@DU?$char_traits@D@std@@V?$allocator@D@2@@std@@P6AHH@Z@1@V?$_List_unchecked_iterator@V?$_List_val@U?$_List_simple_types@U?$pair@$$CBV?$basic_string@DU?$char_traits@D@std@@V?$allocator@D@2@@std@@P6AHH@Z@std@@@std@@@std@@@1@@Z 10080ae0 f i SequenceProxy.obj
 0002:00031ed0       ??$_Insert@ABU?$pair@$$CBV?$basic_string@DU?$char_traits@D@std@@V?$allocator@D@2@@std@@P6AHH@Z@std@@@?$list@U?$pair@$$CBV?$basic_string@DU?$char_traits@D@std@@V?$allocator@D@2@@std@@P6AHH@Z@std@@V?$allocator@U?$pair@$$CBV?$basic_string@DU?$char_traits@D@std@@V?$allocator@D@2@@std@@P6AHH@Z@std@@@2@@std@@QAEXV?$_List_unchecked_const_iterator@V?$_List_val@U?$_List_simple_types@U?$pair@$$CBV?$basic_string@DU?$char_traits@D@std@@V?$allocator@D@2@@std@@P6AHH@Z@std@@@std@@@std@@U_Iterator_base0@2@@1@ABU?$pair@$$CBV?$basic_string@DU?$char_traits@D@std@@V?$allocator@D@2@@std@@P6AHH@Z@1@@Z 10080ed0 f i SequenceProxy.obj
 0002:00031f50       ??$_Kfn@$$CBV?$basic_string@DU?$char_traits@D@std@@V?$allocator@D@2@@std@@P6AHH@Z@?$_Umap_traits@V?$basic_string@DU?$char_traits@D@std@@V?$allocator@D@2@@std@@P6AHH@ZV?$_Uhash_compare@V?$basic_string@DU?$char_traits@D@std@@V?$allocator@D@2@@std@@U?$hash@V?$basic_string@DU?$char_traits@D@std@@V?$allocator@D@2@@std@@@2@U?$equal_to@V?$basic_string@DU?$char_traits@D@std@@V?$allocator@D@2@@std@@@2@@2@V?$allocator@U?$pair@$$CBV?$basic_string@DU?$char_traits@D@std@@V?$allocator@D@2@@std@@P6AHH@Z@std@@@2@$0A@@std@@SAABV?$basic_string@DU?$char_traits@D@std@@V?$allocator@D@2@@1@ABU?$pair@$$CBV?$basic_string@DU?$char_traits@D@std@@V?$allocator@D@2@@std@@P6AHH@Z@1@@Z 10080f50 f i SequenceProxy.obj
 0002:00031f70       ??$_Ptr_move_cat@V?$_List_unchecked_iterator@V?$_List_val@U?$_List_simple_types@U?$pair@$$CBV?$basic_string@DU?$char_traits@D@std@@V?$allocator@D@2@@std@@P6AHH@Z@std@@@std@@@std@@@std@@V12@@std@@YA?AU_Trivially_copyable_ptr_iterator_tag@0@ABQAV?$_List_unchecked_iterator@V?$_List_val@U?$_List_simple_types@U?$pair@$$CBV?$basic_string@DU?$char_traits@D@std@@V?$allocator@D@2@@std@@P6AHH@Z@std@@@std@@@std@@@0@0@Z 10080f70 f i SequenceProxy.obj
 0002:000320d0       ??$_Rechecked@PAV?$_List_unchecked_iterator@V?$_List_val@U?$_List_simple_types@U?$pair@$$CBV?$basic_string@DU?$char_traits@D@std@@V?$allocator@D@2@@std@@P6AHH@Z@std@@@std@@@std@@@std@@PAV12@@std@@YAAAPAV?$_List_unchecked_iterator@V?$_List_val@U?$_List_simple_types@U?$pair@$$CBV?$basic_string@DU?$char_traits@D@std@@V?$allocator@D@2@@std@@P6AHH@Z@std@@@std@@@std@@@0@AAPAV10@QAV10@@Z 100810d0 f i SequenceProxy.obj
 0002:00032100       ??$_Traits_equal@U?$char_traits@D@std@@@std@@YA_NQBDI0I@Z 10081100 f i SequenceProxy.obj
 0002:00032160       ??$_Unchecked@PAV?$_List_unchecked_iterator@V?$_List_val@U?$_List_simple_types@U?$pair@$$CBV?$basic_string@DU?$char_traits@D@std@@V?$allocator@D@2@@std@@P6AHH@Z@std@@@std@@@std@@@std@@@std@@YAPAV?$_List_unchecked_iterator@V?$_List_val@U?$_List_simple_types@U?$pair@$$CBV?$basic_string@DU?$char_traits@D@std@@V?$allocator@D@2@@std@@P6AHH@Z@std@@@std@@@std@@@0@PAV10@@Z 10081160 f i SequenceProxy.obj
 0002:00032180       ??$_Unchecked@V?$_List_val@U?$_List_simple_types@U?$pair@$$CBV?$basic_string@DU?$char_traits@D@std@@V?$allocator@D@2@@std@@P6AHH@Z@std@@@std@@@std@@@std@@YA?AV?$_List_unchecked_iterator@V?$_List_val@U?$_List_simple_types@U?$pair@$$CBV?$basic_string@DU?$char_traits@D@std@@V?$allocator@D@2@@std@@P6AHH@Z@std@@@std@@@std@@@0@ABV?$_List_iterator@V?$_List_val@U?$_List_simple_types@U?$pair@$$CBV?$basic_string@DU?$char_traits@D@std@@V?$allocator@D@2@@std@@P6AHH@Z@std@@@std@@@std@@@0@@Z 10081180 f i SequenceProxy.obj
 0002:000321c0       ??$_Unfancy@Unetvar_table@NetvarSys@@@std@@YAPAUnetvar_table@NetvarSys@@PAU12@@Z 100811c0 f i SequenceProxy.obj
 0002:000321e0       ??$_Unfancy@V?$_List_unchecked_iterator@V?$_List_val@U?$_List_simple_types@U?$pair@$$CBV?$basic_string@DU?$char_traits@D@std@@V?$allocator@D@2@@std@@P6AHH@Z@std@@@std@@@std@@@std@@@std@@YAPAV?$_List_unchecked_iterator@V?$_List_val@U?$_List_simple_types@U?$pair@$$CBV?$basic_string@DU?$char_traits@D@std@@V?$allocator@D@2@@std@@P6AHH@Z@std@@@std@@@std@@@0@PAV10@@Z 100811e0 f i SequenceProxy.obj
 0002:00032200       ??$_Uninit_alloc_fill_n1@PAV?$_List_unchecked_iterator@V?$_List_val@U?$_List_simple_types@U?$pair@$$CBV?$basic_string@DU?$char_traits@D@std@@V?$allocator@D@2@@std@@P6AHH@Z@std@@@std@@@std@@@std@@IV?$allocator@V?$_List_unchecked_iterator@V?$_List_val@U?$_List_simple_types@U?$pair@$$CBV?$basic_string@DU?$char_traits@D@std@@V?$allocator@D@2@@std@@P6AHH@Z@std@@@std@@@std@@@std@@@2@@std@@YAPAV?$_List_unchecked_iterator@V?$_List_val@U?$_List_simple_types@U?$pair@$$CBV?$basic_string@DU?$char_traits@D@std@@V?$allocator@D@2@@std@@P6AHH@Z@std@@@std@@@std@@@0@PAV10@IABV10@AAV?$allocator@V?$_List_unchecked_iterator@V?$_List_val@U?$_List_simple_types@U?$pair@$$CBV?$basic_string@DU?$char_traits@D@std@@V?$allocator@D@2@@std@@P6AHH@Z@std@@@std@@@std@@@std@@@0@U?$integral_constant@_N$0A@@0@@Z 10081200 f i SequenceProxy.obj
 0002:00032300       ??$_Uninitialized_fill_n@PAV?$_List_unchecked_iterator@V?$_List_val@U?$_List_simple_types@U?$pair@$$CBV?$basic_string@DU?$char_traits@D@std@@V?$allocator@D@2@@std@@P6AHH@Z@std@@@std@@@std@@@std@@IV?$allocator@V?$_List_unchecked_iterator@V?$_List_val@U?$_List_simple_types@U?$pair@$$CBV?$basic_string@DU?$char_traits@D@std@@V?$allocator@D@2@@std@@P6AHH@Z@std@@@std@@@std@@@std@@@2@@std@@YAPAV?$_List_unchecked_iterator@V?$_List_val@U?$_List_simple_types@U?$pair@$$CBV?$basic_string@DU?$char_traits@D@std@@V?$allocator@D@2@@std@@P6AHH@Z@std@@@std@@@std@@@0@PAV10@IABV10@AAV?$allocator@V?$_List_unchecked_iterator@V?$_List_val@U?$_List_simple_types@U?$pair@$$CBV?$basic_string@DU?$char_traits@D@std@@V?$allocator@D@2@@std@@P6AHH@Z@std@@@std@@@std@@@std@@@0@@Z 10081300 f i SequenceProxy.obj
 0002:00032340       ??$_Uninitialized_move@PAV?$_List_unchecked_iterator@V?$_List_val@U?$_List_simple_types@U?$pair@$$CBV?$basic_string@DU?$char_traits@D@std@@V?$allocator@D@2@@std@@P6AHH@Z@std@@@std@@@std@@@std@@PAV12@V?$allocator@V?$_List_unchecked_iterator@V?$_List_val@U?$_List_simple_types@U?$pair@$$CBV?$basic_string@DU?$char_traits@D@std@@V?$allocator@D@2@@std@@P6AHH@Z@std@@@std@@@std@@@std@@@2@@std@@YAPAV?$_List_unchecked_iterator@V?$_List_val@U?$_List_simple_types@U?$pair@$$CBV?$basic_string@DU?$char_traits@D@std@@V?$allocator@D@2@@std@@P6AHH@Z@std@@@std@@@std@@@0@PAV10@00AAV?$allocator@V?$_List_unchecked_iterator@V?$_List_val@U?$_List_simple_types@U?$pair@$$CBV?$basic_string@DU?$char_traits@D@std@@V?$allocator@D@2@@std@@P6AHH@Z@std@@@std@@@std@@@std@@@0@@Z 10081340 f i SequenceProxy.obj
 0002:00032410       ??$_Uninitialized_move_al_unchecked@PAV?$_List_unchecked_iterator@V?$_List_val@U?$_List_simple_types@U?$pair@$$CBV?$basic_string@DU?$char_traits@D@std@@V?$allocator@D@2@@std@@P6AHH@Z@std@@@std@@@std@@@std@@PAV12@V?$allocator@V?$_List_unchecked_iterator@V?$_List_val@U?$_List_simple_types@U?$pair@$$CBV?$basic_string@DU?$char_traits@D@std@@V?$allocator@D@2@@std@@P6AHH@Z@std@@@std@@@std@@@std@@@2@@std@@YAPAV?$_List_unchecked_iterator@V?$_List_val@U?$_List_simple_types@U?$pair@$$CBV?$basic_string@DU?$char_traits@D@std@@V?$allocator@D@2@@std@@P6AHH@Z@std@@@std@@@std@@@0@PAV10@00AAV?$allocator@V?$_List_unchecked_iterator@V?$_List_val@U?$_List_simple_types@U?$pair@$$CBV?$basic_string@DU?$char_traits@D@std@@V?$allocator@D@2@@std@@P6AHH@Z@std@@@std@@@std@@@std@@@0@U_General_ptr_iterator_tag@0@U_Unused_parameter@0@@Z 10081410 f i SequenceProxy.obj
 0002:00032510       ??$addressof@$$CBU?$pair@$$CBV?$basic_string@DU?$char_traits@D@std@@V?$allocator@D@2@@std@@P6AHH@Z@std@@@std@@YAPBU?$pair@$$CBV?$basic_string@DU?$char_traits@D@std@@V?$allocator@D@2@@std@@P6AHH@Z@0@ABU10@@Z 10081510 f i SequenceProxy.obj
 0002:00032530       ??$addressof@$$CBV?$_List_val@U?$_List_simple_types@U?$pair@$$CBV?$basic_string@DU?$char_traits@D@std@@V?$allocator@D@2@@std@@P6AHH@Z@std@@@std@@@std@@@std@@YAPBV?$_List_val@U?$_List_simple_types@U?$pair@$$CBV?$basic_string@DU?$char_traits@D@std@@V?$allocator@D@2@@std@@P6AHH@Z@std@@@std@@@0@ABV10@@Z 10081530 f i SequenceProxy.obj
 0002:00032550       ??$addressof@PAU?$_List_node@U?$pair@$$CBV?$basic_string@DU?$char_traits@D@std@@V?$allocator@D@2@@std@@P6AHH@Z@std@@PAX@std@@@std@@YAPAPAU?$_List_node@U?$pair@$$CBV?$basic_string@DU?$char_traits@D@std@@V?$allocator@D@2@@std@@P6AHH@Z@std@@PAX@0@AAPAU10@@Z 10081550 f i SequenceProxy.obj
 0002:00032570       ??$addressof@U?$pair@$$CBV?$basic_string@DU?$char_traits@D@std@@V?$allocator@D@2@@std@@P6AHH@Z@std@@@std@@YAPAU?$pair@$$CBV?$basic_string@DU?$char_traits@D@std@@V?$allocator@D@2@@std@@P6AHH@Z@0@AAU10@@Z 10081570 f i SequenceProxy.obj
 0002:00032590       ??$addressof@V?$_List_val@U?$_List_simple_types@U?$pair@$$CBV?$basic_string@DU?$char_traits@D@std@@V?$allocator@D@2@@std@@P6AHH@Z@std@@@std@@@std@@@std@@YAPAV?$_List_val@U?$_List_simple_types@U?$pair@$$CBV?$basic_string@DU?$char_traits@D@std@@V?$allocator@D@2@@std@@P6AHH@Z@std@@@std@@@0@AAV10@@Z 10081590 f i SequenceProxy.obj
 0002:000325b0       ??$construct@PAU?$_List_node@U?$pair@$$CBV?$basic_string@DU?$char_traits@D@std@@V?$allocator@D@2@@std@@P6AHH@Z@std@@PAX@std@@AAPAU12@@?$_Default_allocator_traits@V?$allocator@U?$_List_node@U?$pair@$$CBV?$basic_string@DU?$char_traits@D@std@@V?$allocator@D@2@@std@@P6AHH@Z@std@@PAX@std@@@std@@@std@@SAXAAV?$allocator@U?$_List_node@U?$pair@$$CBV?$basic_string@DU?$char_traits@D@std@@V?$allocator@D@2@@std@@P6AHH@Z@std@@PAX@std@@@1@QAPAU?$_List_node@U?$pair@$$CBV?$basic_string@DU?$char_traits@D@std@@V?$allocator@D@2@@std@@P6AHH@Z@std@@PAX@1@AAPAU31@@Z 100815b0 f i SequenceProxy.obj
 0002:00032600       ??$construct@U?$pair@$$CBV?$basic_string@DU?$char_traits@D@std@@V?$allocator@D@2@@std@@P6AHH@Z@std@@ABU12@@?$_Default_allocator_traits@V?$allocator@U?$_List_node@U?$pair@$$CBV?$basic_string@DU?$char_traits@D@std@@V?$allocator@D@2@@std@@P6AHH@Z@std@@PAX@std@@@std@@@std@@SAXAAV?$allocator@U?$_List_node@U?$pair@$$CBV?$basic_string@DU?$char_traits@D@std@@V?$allocator@D@2@@std@@P6AHH@Z@std@@PAX@std@@@1@QAU?$pair@$$CBV?$basic_string@DU?$char_traits@D@std@@V?$allocator@D@2@@std@@P6AHH@Z@1@ABU31@@Z 10081600 f i SequenceProxy.obj
 0002:00032690       ??$construct@V?$_List_unchecked_iterator@V?$_List_val@U?$_List_simple_types@U?$pair@$$CBV?$basic_string@DU?$char_traits@D@std@@V?$allocator@D@2@@std@@P6AHH@Z@std@@@std@@@std@@@std@@ABV12@@?$_Default_allocator_traits@V?$allocator@V?$_List_unchecked_iterator@V?$_List_val@U?$_List_simple_types@U?$pair@$$CBV?$basic_string@DU?$char_traits@D@std@@V?$allocator@D@2@@std@@P6AHH@Z@std@@@std@@@std@@@std@@@std@@@std@@SAXAAV?$allocator@V?$_List_unchecked_iterator@V?$_List_val@U?$_List_simple_types@U?$pair@$$CBV?$basic_string@DU?$char_traits@D@std@@V?$allocator@D@2@@std@@P6AHH@Z@std@@@std@@@std@@@std@@@1@QAV?$_List_unchecked_iterator@V?$_List_val@U?$_List_simple_types@U?$pair@$$CBV?$basic_string@DU?$char_traits@D@std@@V?$allocator@D@2@@std@@P6AHH@Z@std@@@std@@@std@@@1@ABV31@@Z 10081690 f i SequenceProxy.obj
 0002:000326e0       ??$construct@V?$_List_unchecked_iterator@V?$_List_val@U?$_List_simple_types@U?$pair@$$CBV?$basic_string@DU?$char_traits@D@std@@V?$allocator@D@2@@std@@P6AHH@Z@std@@@std@@@std@@@std@@V12@@?$_Default_allocator_traits@V?$allocator@V?$_List_unchecked_iterator@V?$_List_val@U?$_List_simple_types@U?$pair@$$CBV?$basic_string@DU?$char_traits@D@std@@V?$allocator@D@2@@std@@P6AHH@Z@std@@@std@@@std@@@std@@@std@@@std@@SAXAAV?$allocator@V?$_List_unchecked_iterator@V?$_List_val@U?$_List_simple_types@U?$pair@$$CBV?$basic_string@DU?$char_traits@D@std@@V?$allocator@D@2@@std@@P6AHH@Z@std@@@std@@@std@@@std@@@1@QAV?$_List_unchecked_iterator@V?$_List_val@U?$_List_simple_types@U?$pair@$$CBV?$basic_string@DU?$char_traits@D@std@@V?$allocator@D@2@@std@@P6AHH@Z@std@@@std@@@std@@@1@$$QAV31@@Z 100816e0 f i SequenceProxy.obj
 0002:00032730       ??$destroy@PAU?$_List_node@U?$pair@$$CBV?$basic_string@DU?$char_traits@D@std@@V?$allocator@D@2@@std@@P6AHH@Z@std@@PAX@std@@@?$_Default_allocator_traits@V?$allocator@U?$_List_node@U?$pair@$$CBV?$basic_string@DU?$char_traits@D@std@@V?$allocator@D@2@@std@@P6AHH@Z@std@@PAX@std@@@std@@@std@@SAXAAV?$allocator@U?$_List_node@U?$pair@$$CBV?$basic_string@DU?$char_traits@D@std@@V?$allocator@D@2@@std@@P6AHH@Z@std@@PAX@std@@@1@QAPAU?$_List_node@U?$pair@$$CBV?$basic_string@DU?$char_traits@D@std@@V?$allocator@D@2@@std@@P6AHH@Z@std@@PAX@1@@Z 10081730 f i SequenceProxy.obj
 0002:00032750       ??$destroy@U?$pair@$$CBV?$basic_string@DU?$char_traits@D@std@@V?$allocator@D@2@@std@@P6AHH@Z@std@@@?$_Default_allocator_traits@V?$allocator@U?$_List_node@U?$pair@$$CBV?$basic_string@DU?$char_traits@D@std@@V?$allocator@D@2@@std@@P6AHH@Z@std@@PAX@std@@@std@@@std@@SAXAAV?$allocator@U?$_List_node@U?$pair@$$CBV?$basic_string@DU?$char_traits@D@std@@V?$allocator@D@2@@std@@P6AHH@Z@std@@PAX@std@@@1@QAU?$pair@$$CBV?$basic_string@DU?$char_traits@D@std@@V?$allocator@D@2@@std@@P6AHH@Z@1@@Z 10081750 f i SequenceProxy.obj
 0002:00032770       ??$destroy@Unetvar_table@NetvarSys@@@?$_Default_allocator_traits@V?$allocator@Unetvar_table@NetvarSys@@@std@@@std@@SAXAAV?$allocator@Unetvar_table@NetvarSys@@@1@QAUnetvar_table@NetvarSys@@@Z 10081770 f i SequenceProxy.obj
 0002:00032790       ??$distance@V?$_List_const_iterator@V?$_List_val@U?$_List_simple_types@U?$pair@$$CBV?$basic_string@DU?$char_traits@D@std@@V?$allocator@D@2@@std@@P6AHH@Z@std@@@std@@@std@@@std@@@std@@YAHV?$_List_const_iterator@V?$_List_val@U?$_List_simple_types@U?$pair@$$CBV?$basic_string@DU?$char_traits@D@std@@V?$allocator@D@2@@std@@P6AHH@Z@std@@@std@@@std@@@0@0@Z 10081790 f i SequenceProxy.obj
 0002:000327c0       ??$emplace@ABU?$pair@$$CBV?$basic_string@DU?$char_traits@D@std@@V?$allocator@D@2@@std@@P6AHH@Z@std@@@?$_Hash@V?$_Umap_traits@V?$basic_string@DU?$char_traits@D@std@@V?$allocator@D@2@@std@@P6AHH@ZV?$_Uhash_compare@V?$basic_string@DU?$char_traits@D@std@@V?$allocator@D@2@@std@@U?$hash@V?$basic_string@DU?$char_traits@D@std@@V?$allocator@D@2@@std@@@2@U?$equal_to@V?$basic_string@DU?$char_traits@D@std@@V?$allocator@D@2@@std@@@2@@2@V?$allocator@U?$pair@$$CBV?$basic_string@DU?$char_traits@D@std@@V?$allocator@D@2@@std@@P6AHH@Z@std@@@2@$0A@@std@@@std@@QAE?AU?$pair@V?$_List_iterator@V?$_List_val@U?$_List_simple_types@U?$pair@$$CBV?$basic_string@DU?$char_traits@D@std@@V?$allocator@D@2@@std@@P6AHH@Z@std@@@std@@@std@@@std@@_N@1@ABU?$pair@$$CBV?$basic_string@DU?$char_traits@D@std@@V?$allocator@D@2@@std@@P6AHH@Z@1@@Z 100817c0 f i SequenceProxy.obj
 0002:00032830       ??$emplace_front@ABU?$pair@$$CBV?$basic_string@DU?$char_traits@D@std@@V?$allocator@D@2@@std@@P6AHH@Z@std@@@?$list@U?$pair@$$CBV?$basic_string@DU?$char_traits@D@std@@V?$allocator@D@2@@std@@P6AHH@Z@std@@V?$allocator@U?$pair@$$CBV?$basic_string@DU?$char_traits@D@std@@V?$allocator@D@2@@std@@P6AHH@Z@std@@@2@@std@@QAE@ABU?$pair@$$CBV?$basic_string@DU?$char_traits@D@std@@V?$allocator@D@2@@std@@P6AHH@Z@1@@Z 10081830 f i SequenceProxy.obj
 0002:00032880       ??$erase@V?$_List_iterator@V?$_List_val@U?$_List_simple_types@U?$pair@$$CBV?$basic_string@DU?$char_traits@D@std@@V?$allocator@D@2@@std@@P6AHH@Z@std@@@std@@@std@@@std@@X@?$_Hash@V?$_Umap_traits@V?$basic_string@DU?$char_traits@D@std@@V?$allocator@D@2@@std@@P6AHH@ZV?$_Uhash_compare@V?$basic_string@DU?$char_traits@D@std@@V?$allocator@D@2@@std@@U?$hash@V?$basic_string@DU?$char_traits@D@std@@V?$allocator@D@2@@std@@@2@U?$equal_to@V?$basic_string@DU?$char_traits@D@std@@V?$allocator@D@2@@std@@@2@@2@V?$allocator@U?$pair@$$CBV?$basic_string@DU?$char_traits@D@std@@V?$allocator@D@2@@std@@P6AHH@Z@std@@@2@$0A@@std@@@std@@QAE?AV?$_List_iterator@V?$_List_val@U?$_List_simple_types@U?$pair@$$CBV?$basic_string@DU?$char_traits@D@std@@V?$allocator@D@2@@std@@P6AHH@Z@std@@@std@@@std@@@1@V21@@Z 10081880 f i SequenceProxy.obj
 0002:000328c0       ??$forward@AAPAU?$_List_node@U?$pair@$$CBV?$basic_string@DU?$char_traits@D@std@@V?$allocator@D@2@@std@@P6AHH@Z@std@@PAX@std@@@std@@YAAAPAU?$_List_node@U?$pair@$$CBV?$basic_string@DU?$char_traits@D@std@@V?$allocator@D@2@@std@@P6AHH@Z@std@@PAX@0@AAPAU10@@Z 100818c0 f i SequenceProxy.obj
 0002:000328e0       ??$forward@AAU?$equal_to@V?$basic_string@DU?$char_traits@D@std@@V?$allocator@D@2@@std@@@std@@@std@@YAAAU?$equal_to@V?$basic_string@DU?$char_traits@D@std@@V?$allocator@D@2@@std@@@0@AAU10@@Z 100818e0 f i SequenceProxy.obj
 0002:00032900       ??$forward@AAU?$hash@V?$basic_string@DU?$char_traits@D@std@@V?$allocator@D@2@@std@@@std@@@std@@YAAAU?$hash@V?$basic_string@DU?$char_traits@D@std@@V?$allocator@D@2@@std@@@0@AAU10@@Z 10081900 f i SequenceProxy.obj
 0002:00032920       ??$forward@AAU?$pair@$$CBV?$basic_string@DU?$char_traits@D@std@@V?$allocator@D@2@@std@@P6AHH@Z@std@@@std@@YAAAU?$pair@$$CBV?$basic_string@DU?$char_traits@D@std@@V?$allocator@D@2@@std@@P6AHH@Z@0@AAU10@@Z 10081920 f i SequenceProxy.obj
 0002:00032940       ??$forward@AAY0CA@$$CBD@std@@YAAAY0CA@$$CBDAAY0CA@$$CBD@Z 10081940 f i SequenceProxy.obj
 0002:00032960       ??$forward@AAY0CF@$$CBD@std@@YAAAY0CF@$$CBDAAY0CF@$$CBD@Z 10081960 f i SequenceProxy.obj
 0002:00032980       ??$forward@AAY0CK@$$CBD@std@@YAAAY0CK@$$CBDAAY0CK@$$CBD@Z 10081980 f i SequenceProxy.obj
 0002:000329a0       ??$forward@AAY0CN@$$CBD@std@@YAAAY0CN@$$CBDAAY0CN@$$CBD@Z 100819a0 f i SequenceProxy.obj
 0002:000329c0       ??$forward@ABU?$pair@$$CBV?$basic_string@DU?$char_traits@D@std@@V?$allocator@D@2@@std@@P6AHH@Z@std@@@std@@YAABU?$pair@$$CBV?$basic_string@DU?$char_traits@D@std@@V?$allocator@D@2@@std@@P6AHH@Z@0@ABU10@@Z 100819c0 f i SequenceProxy.obj
 0002:000329e0       ??$forward@ABV?$_List_unchecked_iterator@V?$_List_val@U?$_List_simple_types@U?$pair@$$CBV?$basic_string@DU?$char_traits@D@std@@V?$allocator@D@2@@std@@P6AHH@Z@std@@@std@@@std@@@std@@@std@@YAABV?$_List_unchecked_iterator@V?$_List_val@U?$_List_simple_types@U?$pair@$$CBV?$basic_string@DU?$char_traits@D@std@@V?$allocator@D@2@@std@@P6AHH@Z@std@@@std@@@std@@@0@ABV10@@Z 100819e0 f i SequenceProxy.obj
 0002:00032a00       ??$forward@ABV?$allocator@U?$pair@$$CBV?$basic_string@DU?$char_traits@D@std@@V?$allocator@D@2@@std@@P6AHH@Z@std@@@std@@@std@@YAABV?$allocator@U?$pair@$$CBV?$basic_string@DU?$char_traits@D@std@@V?$allocator@D@2@@std@@P6AHH@Z@std@@@0@ABV10@@Z 10081a00 f i SequenceProxy.obj
 0002:00032a20       ??$forward@ABV?$allocator@V?$_List_unchecked_iterator@V?$_List_val@U?$_List_simple_types@U?$pair@$$CBV?$basic_string@DU?$char_traits@D@std@@V?$allocator@D@2@@std@@P6AHH@Z@std@@@std@@@std@@@std@@@std@@@std@@YAABV?$allocator@V?$_List_unchecked_iterator@V?$_List_val@U?$_List_simple_types@U?$pair@$$CBV?$basic_string@DU?$char_traits@D@std@@V?$allocator@D@2@@std@@P6AHH@Z@std@@@std@@@std@@@std@@@0@ABV10@@Z 10081a20 f i SequenceProxy.obj
 0002:00032ac0       ??$forward@V?$_List_const_iterator@V?$_List_val@U?$_List_simple_types@U?$pair@$$CBV?$basic_string@DU?$char_traits@D@std@@V?$allocator@D@2@@std@@P6AHH@Z@std@@@std@@@std@@@std@@@std@@YA$$QAV?$_List_const_iterator@V?$_List_val@U?$_List_simple_types@U?$pair@$$CBV?$basic_string@DU?$char_traits@D@std@@V?$allocator@D@2@@std@@P6AHH@Z@std@@@std@@@std@@@0@AAV10@@Z 10081ac0 f i SequenceProxy.obj
 0002:00032ae0       ??$forward@V?$_List_iterator@V?$_List_val@U?$_List_simple_types@U?$pair@$$CBV?$basic_string@DU?$char_traits@D@std@@V?$allocator@D@2@@std@@P6AHH@Z@std@@@std@@@std@@@std@@@std@@YA$$QAV?$_List_iterator@V?$_List_val@U?$_List_simple_types@U?$pair@$$CBV?$basic_string@DU?$char_traits@D@std@@V?$allocator@D@2@@std@@P6AHH@Z@std@@@std@@@std@@@0@AAV10@@Z 10081ae0 f i SequenceProxy.obj
 0002:00032b00       ??$forward@V?$_List_unchecked_iterator@V?$_List_val@U?$_List_simple_types@U?$pair@$$CBV?$basic_string@DU?$char_traits@D@std@@V?$allocator@D@2@@std@@P6AHH@Z@std@@@std@@@std@@@std@@@std@@YA$$QAV?$_List_unchecked_iterator@V?$_List_val@U?$_List_simple_types@U?$pair@$$CBV?$basic_string@DU?$char_traits@D@std@@V?$allocator@D@2@@std@@P6AHH@Z@std@@@std@@@std@@@0@AAV10@@Z 10081b00 f i SequenceProxy.obj
 0002:00032b20       ??$insert@PBU?$pair@$$CBV?$basic_string@DU?$char_traits@D@std@@V?$allocator@D@2@@std@@P6AHH@Z@std@@@?$_Hash@V?$_Umap_traits@V?$basic_string@DU?$char_traits@D@std@@V?$allocator@D@2@@std@@P6AHH@ZV?$_Uhash_compare@V?$basic_string@DU?$char_traits@D@std@@V?$allocator@D@2@@std@@U?$hash@V?$basic_string@DU?$char_traits@D@std@@V?$allocator@D@2@@std@@@2@U?$equal_to@V?$basic_string@DU?$char_traits@D@std@@V?$allocator@D@2@@std@@@2@@2@V?$allocator@U?$pair@$$CBV?$basic_string@DU?$char_traits@D@std@@V?$allocator@D@2@@std@@P6AHH@Z@std@@@2@$0A@@std@@@std@@QAEXPBU?$pair@$$CBV?$basic_string@DU?$char_traits@D@std@@V?$allocator@D@2@@std@@P6AHH@Z@1@0@Z 10081b20 f i SequenceProxy.obj
 0002:00032b70       ??$move@AAV?$_List_unchecked_iterator@V?$_List_val@U?$_List_simple_types@U?$pair@$$CBV?$basic_string@DU?$char_traits@D@std@@V?$allocator@D@2@@std@@P6AHH@Z@std@@@std@@@std@@@std@@@std@@YA$$QAV?$_List_unchecked_iterator@V?$_List_val@U?$_List_simple_types@U?$pair@$$CBV?$basic_string@DU?$char_traits@D@std@@V?$allocator@D@2@@std@@P6AHH@Z@std@@@std@@@std@@@0@AAV10@@Z 10081b70 f i SequenceProxy.obj
 0002:00032b90       ??0?$Singleton@VNetvarSys@@@@IAE@XZ 10081b90 f i SequenceProxy.obj
 0002:00032bb0       ??0?$_Hash@V?$_Umap_traits@V?$basic_string@DU?$char_traits@D@std@@V?$allocator@D@2@@std@@P6AHH@ZV?$_Uhash_compare@V?$basic_string@DU?$char_traits@D@std@@V?$allocator@D@2@@std@@U?$hash@V?$basic_string@DU?$char_traits@D@std@@V?$allocator@D@2@@std@@@2@U?$equal_to@V?$basic_string@DU?$char_traits@D@std@@V?$allocator@D@2@@std@@@2@@2@V?$allocator@U?$pair@$$CBV?$basic_string@DU?$char_traits@D@std@@V?$allocator@D@2@@std@@P6AHH@Z@std@@@2@$0A@@std@@@std@@QAE@ABV?$_Uhash_compare@V?$basic_string@DU?$char_traits@D@std@@V?$allocator@D@2@@std@@U?$hash@V?$basic_string@DU?$char_traits@D@std@@V?$allocator@D@2@@std@@@2@U?$equal_to@V?$basic_string@DU?$char_traits@D@std@@V?$allocator@D@2@@std@@@2@@1@ABV?$allocator@U?$pair@$$CBV?$basic_string@DU?$char_traits@D@std@@V?$allocator@D@2@@std@@P6AHH@Z@std@@@1@@Z 10081bb0 f i SequenceProxy.obj
 0002:00032c80       ??0?$_List_const_iterator@V?$_List_val@U?$_List_simple_types@U?$pair@$$CBV?$basic_string@DU?$char_traits@D@std@@V?$allocator@D@2@@std@@P6AHH@Z@std@@@std@@@std@@@std@@QAE@PAU?$_List_node@U?$pair@$$CBV?$basic_string@DU?$char_traits@D@std@@V?$allocator@D@2@@std@@P6AHH@Z@std@@PAX@1@PBV?$_List_val@U?$_List_simple_types@U?$pair@$$CBV?$basic_string@DU?$char_traits@D@std@@V?$allocator@D@2@@std@@P6AHH@Z@std@@@std@@@1@@Z 10081c80 f i SequenceProxy.obj
 0002:00032cc0       ??0?$_List_iterator@V?$_List_val@U?$_List_simple_types@U?$pair@$$CBV?$basic_string@DU?$char_traits@D@std@@V?$allocator@D@2@@std@@P6AHH@Z@std@@@std@@@std@@@std@@QAE@PAU?$_List_node@U?$pair@$$CBV?$basic_string@DU?$char_traits@D@std@@V?$allocator@D@2@@std@@P6AHH@Z@std@@PAX@1@PBV?$_List_val@U?$_List_simple_types@U?$pair@$$CBV?$basic_string@DU?$char_traits@D@std@@V?$allocator@D@2@@std@@P6AHH@Z@std@@@std@@@1@@Z 10081cc0 f i SequenceProxy.obj
 0002:00032d00       ??0?$_List_unchecked_const_iterator@V?$_List_val@U?$_List_simple_types@U?$pair@$$CBV?$basic_string@DU?$char_traits@D@std@@V?$allocator@D@2@@std@@P6AHH@Z@std@@@std@@@std@@U_Iterator_base0@2@@std@@QAE@PAU?$_List_node@U?$pair@$$CBV?$basic_string@DU?$char_traits@D@std@@V?$allocator@D@2@@std@@P6AHH@Z@std@@PAX@1@PBV?$_List_val@U?$_List_simple_types@U?$pair@$$CBV?$basic_string@DU?$char_traits@D@std@@V?$allocator@D@2@@std@@P6AHH@Z@std@@@std@@@1@@Z 10081d00 f i SequenceProxy.obj
 0002:00032d40       ??0?$_List_unchecked_const_iterator@V?$_List_val@U?$_List_simple_types@U?$pair@$$CBV?$basic_string@DU?$char_traits@D@std@@V?$allocator@D@2@@std@@P6AHH@Z@std@@@std@@@std@@U_Iterator_base0@2@@std@@QAE@XZ 10081d40 f i SequenceProxy.obj
 0002:00032d70       ??0?$_List_unchecked_iterator@V?$_List_val@U?$_List_simple_types@U?$pair@$$CBV?$basic_string@DU?$char_traits@D@std@@V?$allocator@D@2@@std@@P6AHH@Z@std@@@std@@@std@@@std@@QAE@PAU?$_List_node@U?$pair@$$CBV?$basic_string@DU?$char_traits@D@std@@V?$allocator@D@2@@std@@P6AHH@Z@std@@PAX@1@PBV?$_List_val@U?$_List_simple_types@U?$pair@$$CBV?$basic_string@DU?$char_traits@D@std@@V?$allocator@D@2@@std@@P6AHH@Z@std@@@std@@@1@@Z 10081d70 f i SequenceProxy.obj
 0002:00032db0       ??0?$_List_unchecked_iterator@V?$_List_val@U?$_List_simple_types@U?$pair@$$CBV?$basic_string@DU?$char_traits@D@std@@V?$allocator@D@2@@std@@P6AHH@Z@std@@@std@@@std@@@std@@QAE@XZ 10081db0 f i SequenceProxy.obj
 0002:00032de0       ??0?$_List_val@U?$_List_simple_types@U?$pair@$$CBV?$basic_string@DU?$char_traits@D@std@@V?$allocator@D@2@@std@@P6AHH@Z@std@@@std@@@std@@QAE@XZ 10081de0 f i SequenceProxy.obj
 0002:00032e20       ??0?$_Uhash_compare@V?$basic_string@DU?$char_traits@D@std@@V?$allocator@D@2@@std@@U?$hash@V?$basic_string@DU?$char_traits@D@std@@V?$allocator@D@2@@std@@@2@U?$equal_to@V?$basic_string@DU?$char_traits@D@std@@V?$allocator@D@2@@std@@@2@@std@@QAE@U?$hash@V?$basic_string@DU?$char_traits@D@std@@V?$allocator@D@2@@std@@@1@U?$equal_to@V?$basic_string@DU?$char_traits@D@std@@V?$allocator@D@2@@std@@@1@@Z 10081e20 f i SequenceProxy.obj
 0002:00032e70       ??0?$_Umap_traits@V?$basic_string@DU?$char_traits@D@std@@V?$allocator@D@2@@std@@P6AHH@ZV?$_Uhash_compare@V?$basic_string@DU?$char_traits@D@std@@V?$allocator@D@2@@std@@U?$hash@V?$basic_string@DU?$char_traits@D@std@@V?$allocator@D@2@@std@@@2@U?$equal_to@V?$basic_string@DU?$char_traits@D@std@@V?$allocator@D@2@@std@@@2@@2@V?$allocator@U?$pair@$$CBV?$basic_string@DU?$char_traits@D@std@@V?$allocator@D@2@@std@@P6AHH@Z@std@@@2@$0A@@std@@QAE@ABV?$_Uhash_compare@V?$basic_string@DU?$char_traits@D@std@@V?$allocator@D@2@@std@@U?$hash@V?$basic_string@DU?$char_traits@D@std@@V?$allocator@D@2@@std@@@2@U?$equal_to@V?$basic_string@DU?$char_traits@D@std@@V?$allocator@D@2@@std@@@2@@1@@Z 10081e70 f i SequenceProxy.obj
 0002:00032ea0       ??0?$_Vector_alloc@U?$_Vec_base_types@Unetvar_table@NetvarSys@@V?$allocator@Unetvar_table@NetvarSys@@@std@@@std@@@std@@QAE@XZ 10081ea0 f i SequenceProxy.obj
 0002:00032ed0       ??0?$_Vector_val@U?$_Simple_types@Unetvar_table@NetvarSys@@@std@@@std@@QAE@XZ 10081ed0 f i SequenceProxy.obj
 0002:00032f10       ??0?$_Vector_val@U?$_Simple_types@V?$_List_unchecked_iterator@V?$_List_val@U?$_List_simple_types@U?$pair@$$CBV?$basic_string@DU?$char_traits@D@std@@V?$allocator@D@2@@std@@P6AHH@Z@std@@@std@@@std@@@std@@@std@@@std@@QAE@XZ 10081f10 f i SequenceProxy.obj
 0002:00032f50       ??0?$allocator@U?$pair@$$CBV?$basic_string@DU?$char_traits@D@std@@V?$allocator@D@2@@std@@P6AHH@Z@std@@@std@@QAE@XZ 10081f50 f i SequenceProxy.obj
 0002:00032f70       ??0?$allocator@Unetvar_table@NetvarSys@@@std@@QAE@XZ 10081f70 f i SequenceProxy.obj
 0002:00032f90       ??0?$initializer_list@U?$pair@$$CBV?$basic_string@DU?$char_traits@D@std@@V?$allocator@D@2@@std@@P6AHH@Z@std@@@std@@QAE@PBU?$pair@$$CBV?$basic_string@DU?$char_traits@D@std@@V?$allocator@D@2@@std@@P6AHH@Z@1@0@Z 10081f90 f i SequenceProxy.obj
 0002:00032fd0       ??0?$list@U?$pair@$$CBV?$basic_string@DU?$char_traits@D@std@@V?$allocator@D@2@@std@@P6AHH@Z@std@@V?$allocator@U?$pair@$$CBV?$basic_string@DU?$char_traits@D@std@@V?$allocator@D@2@@std@@P6AHH@Z@std@@@2@@std@@QAE@ABV?$allocator@U?$pair@$$CBV?$basic_string@DU?$char_traits@D@std@@V?$allocator@D@2@@std@@P6AHH@Z@std@@@1@@Z 10081fd0 f i SequenceProxy.obj
 0002:00033000       ??0?$pair@$$CBV?$basic_string@DU?$char_traits@D@std@@V?$allocator@D@2@@std@@P6AHH@Z@std@@QAE@ABU01@@Z 10082000 f i SequenceProxy.obj
 0002:00033040       ??0?$unordered_map@V?$basic_string@DU?$char_traits@D@std@@V?$allocator@D@2@@std@@P6AHH@ZU?$hash@V?$basic_string@DU?$char_traits@D@std@@V?$allocator@D@2@@std@@@2@U?$equal_to@V?$basic_string@DU?$char_traits@D@std@@V?$allocator@D@2@@std@@@2@V?$allocator@U?$pair@$$CBV?$basic_string@DU?$char_traits@D@std@@V?$allocator@D@2@@std@@P6AHH@Z@std@@@2@@std@@QAE@V?$initializer_list@U?$pair@$$CBV?$basic_string@DU?$char_traits@D@std@@V?$allocator@D@2@@std@@P6AHH@Z@std@@@1@@Z 10082040 f i SequenceProxy.obj
 0002:000330f0       ??0?$vector@Unetvar_table@NetvarSys@@V?$allocator@Unetvar_table@NetvarSys@@@std@@@std@@QAE@XZ 100820f0 f i SequenceProxy.obj
 0002:00033150       ??0?$vector@V?$_List_unchecked_iterator@V?$_List_val@U?$_List_simple_types@U?$pair@$$CBV?$basic_string@DU?$char_traits@D@std@@V?$allocator@D@2@@std@@P6AHH@Z@std@@@std@@@std@@@std@@V?$allocator@V?$_List_unchecked_iterator@V?$_List_val@U?$_List_simple_types@U?$pair@$$CBV?$basic_string@DU?$char_traits@D@std@@V?$allocator@D@2@@std@@P6AHH@Z@std@@@std@@@std@@@std@@@2@@std@@QAE@ABV?$allocator@V?$_List_unchecked_iterator@V?$_List_val@U?$_List_simple_types@U?$pair@$$CBV?$basic_string@DU?$char_traits@D@std@@V?$allocator@D@2@@std@@P6AHH@Z@std@@@std@@@std@@@std@@@1@@Z 10082150 f i SequenceProxy.obj
 0002:000331c0       ??0CBaseHandle@@QAE@ABV0@@Z 100821c0 f i SequenceProxy.obj
 0002:000331f0       ??0NetvarSys@@QAE@XZ       100821f0 f i SequenceProxy.obj
 0002:00033220       ??1?$Singleton@VNetvarSys@@@@IAE@XZ 10082220 f i SequenceProxy.obj
 0002:00033240       ??1?$_Hash@V?$_Umap_traits@V?$basic_string@DU?$char_traits@D@std@@V?$allocator@D@2@@std@@P6AHH@ZV?$_Uhash_compare@V?$basic_string@DU?$char_traits@D@std@@V?$allocator@D@2@@std@@U?$hash@V?$basic_string@DU?$char_traits@D@std@@V?$allocator@D@2@@std@@@2@U?$equal_to@V?$basic_string@DU?$char_traits@D@std@@V?$allocator@D@2@@std@@@2@@2@V?$allocator@U?$pair@$$CBV?$basic_string@DU?$char_traits@D@std@@V?$allocator@D@2@@std@@P6AHH@Z@std@@@2@$0A@@std@@@std@@QAE@XZ 10082240 f i SequenceProxy.obj
 0002:00033280       ??1?$_List_alloc@U?$_List_base_types@U?$pair@$$CBV?$basic_string@DU?$char_traits@D@std@@V?$allocator@D@2@@std@@P6AHH@Z@std@@V?$allocator@U?$pair@$$CBV?$basic_string@DU?$char_traits@D@std@@V?$allocator@D@2@@std@@P6AHH@Z@std@@@2@@std@@@std@@QAE@XZ 10082280 f i SequenceProxy.obj
 0002:000332f0       ??1?$_List_buy@U?$pair@$$CBV?$basic_string@DU?$char_traits@D@std@@V?$allocator@D@2@@std@@P6AHH@Z@std@@V?$allocator@U?$pair@$$CBV?$basic_string@DU?$char_traits@D@std@@V?$allocator@D@2@@std@@P6AHH@Z@std@@@2@@std@@QAE@XZ 100822f0 f i SequenceProxy.obj
 0002:00033320       ??1?$list@U?$pair@$$CBV?$basic_string@DU?$char_traits@D@std@@V?$allocator@D@2@@std@@P6AHH@Z@std@@V?$allocator@U?$pair@$$CBV?$basic_string@DU?$char_traits@D@std@@V?$allocator@D@2@@std@@P6AHH@Z@std@@@2@@std@@QAE@XZ 10082320 f i SequenceProxy.obj
 0002:00033380       ??1?$pair@$$CBV?$basic_string@DU?$char_traits@D@std@@V?$allocator@D@2@@std@@P6AHH@Z@std@@QAE@XZ 10082380 f i SequenceProxy.obj
 0002:000333b0       ??1?$unordered_map@V?$basic_string@DU?$char_traits@D@std@@V?$allocator@D@2@@std@@P6AHH@ZU?$hash@V?$basic_string@DU?$char_traits@D@std@@V?$allocator@D@2@@std@@@2@U?$equal_to@V?$basic_string@DU?$char_traits@D@std@@V?$allocator@D@2@@std@@@2@V?$allocator@U?$pair@$$CBV?$basic_string@DU?$char_traits@D@std@@V?$allocator@D@2@@std@@P6AHH@Z@std@@@2@@std@@QAE@XZ 100823b0 f i SequenceProxy.obj
 0002:000333e0       ??1?$vector@PAVRecvProp@@V?$allocator@PAVRecvProp@@@std@@@std@@QAE@XZ 100823e0 f i SequenceProxy.obj
 0002:00033440       ??1?$vector@Unetvar_table@NetvarSys@@V?$allocator@Unetvar_table@NetvarSys@@@std@@@std@@QAE@XZ 10082440 f i SequenceProxy.obj
 0002:000334a0       ??1?$vector@V?$_List_unchecked_iterator@V?$_List_val@U?$_List_simple_types@U?$pair@$$CBV?$basic_string@DU?$char_traits@D@std@@V?$allocator@D@2@@std@@P6AHH@Z@std@@@std@@@std@@@std@@V?$allocator@V?$_List_unchecked_iterator@V?$_List_val@U?$_List_simple_types@U?$pair@$$CBV?$basic_string@DU?$char_traits@D@std@@V?$allocator@D@2@@std@@P6AHH@Z@std@@@std@@@std@@@std@@@2@@std@@QAE@XZ 100824a0 f i SequenceProxy.obj
 0002:00033500       ??1NetvarSys@@QAE@XZ       10082500 f i SequenceProxy.obj
 0002:00033530       ??1netvar_table@NetvarSys@@QAE@XZ 10082530 f i SequenceProxy.obj
 0002:00033570       ??8?$_List_const_iterator@V?$_List_val@U?$_List_simple_types@U?$pair@$$CBV?$basic_string@DU?$char_traits@D@std@@V?$allocator@D@2@@std@@P6AHH@Z@std@@@std@@@std@@@std@@QBE_NABV01@@Z 10082570 f i SequenceProxy.obj
 0002:000335c0       ??8?$_List_unchecked_const_iterator@V?$_List_val@U?$_List_simple_types@U?$pair@$$CBV?$basic_string@DU?$char_traits@D@std@@V?$allocator@D@2@@std@@P6AHH@Z@std@@@std@@@std@@U_Iterator_base0@2@@std@@QBE_NABV01@@Z 100825c0 f i SequenceProxy.obj
 0002:00033610       ??9?$_List_const_iterator@V?$_List_val@U?$_List_simple_types@U?$pair@$$CBV?$basic_string@DU?$char_traits@D@std@@V?$allocator@D@2@@std@@P6AHH@Z@std@@@std@@@std@@@std@@QBE_NABV01@@Z 10082610 f i SequenceProxy.obj
 0002:00033660       ??9?$_List_unchecked_const_iterator@V?$_List_val@U?$_List_simple_types@U?$pair@$$CBV?$basic_string@DU?$char_traits@D@std@@V?$allocator@D@2@@std@@P6AHH@Z@std@@@std@@@std@@U_Iterator_base0@2@@std@@QBE_NABV01@@Z 10082660 f i SequenceProxy.obj
 0002:000336b0       ??A?$vector@V?$_List_unchecked_iterator@V?$_List_val@U?$_List_simple_types@U?$pair@$$CBV?$basic_string@DU?$char_traits@D@std@@V?$allocator@D@2@@std@@P6AHH@Z@std@@@std@@@std@@@std@@V?$allocator@V?$_List_unchecked_iterator@V?$_List_val@U?$_List_simple_types@U?$pair@$$CBV?$basic_string@DU?$char_traits@D@std@@V?$allocator@D@2@@std@@P6AHH@Z@std@@@std@@@std@@@std@@@2@@std@@QAEAAV?$_List_unchecked_iterator@V?$_List_val@U?$_List_simple_types@U?$pair@$$CBV?$basic_string@DU?$char_traits@D@std@@V?$allocator@D@2@@std@@P6AHH@Z@std@@@std@@@std@@@1@I@Z 100826b0 f i SequenceProxy.obj
 0002:000336e0       ??A?$vector@V?$_List_unchecked_iterator@V?$_List_val@U?$_List_simple_types@U?$pair@$$CBV?$basic_string@DU?$char_traits@D@std@@V?$allocator@D@2@@std@@P6AHH@Z@std@@@std@@@std@@@std@@V?$allocator@V?$_List_unchecked_iterator@V?$_List_val@U?$_List_simple_types@U?$pair@$$CBV?$basic_string@DU?$char_traits@D@std@@V?$allocator@D@2@@std@@P6AHH@Z@std@@@std@@@std@@@std@@@2@@std@@QBEABV?$_List_unchecked_iterator@V?$_List_val@U?$_List_simple_types@U?$pair@$$CBV?$basic_string@DU?$char_traits@D@std@@V?$allocator@D@2@@std@@P6AHH@Z@std@@@std@@@std@@@1@I@Z 100826e0 f i SequenceProxy.obj
 0002:00033790       ??B?$CHandle@VC_BasePlayer@@@@QAEPAVC_BasePlayer@@XZ 10082790 f i SequenceProxy.obj
 0002:000337c0       ??BC_LocalPlayer@@QBEPAVC_BasePlayer@@XZ 100827c0 f i SequenceProxy.obj
 0002:000337e0       ??BC_LocalPlayer@@QBE_NXZ  100827e0 f i SequenceProxy.obj
 0002:00033820       ??C?$_List_const_iterator@V?$_List_val@U?$_List_simple_types@U?$pair@$$CBV?$basic_string@DU?$char_traits@D@std@@V?$allocator@D@2@@std@@P6AHH@Z@std@@@std@@@std@@@std@@QBEPBU?$pair@$$CBV?$basic_string@DU?$char_traits@D@std@@V?$allocator@D@2@@std@@P6AHH@Z@1@XZ 10082820 f i SequenceProxy.obj
 0002:00033850       ??CC_LocalPlayer@@QAEPAVC_BasePlayer@@XZ 10082850 f i SequenceProxy.obj
 0002:00033870       ??D?$_List_const_iterator@V?$_List_val@U?$_List_simple_types@U?$pair@$$CBV?$basic_string@DU?$char_traits@D@std@@V?$allocator@D@2@@std@@P6AHH@Z@std@@@std@@@std@@@std@@QBEABU?$pair@$$CBV?$basic_string@DU?$char_traits@D@std@@V?$allocator@D@2@@std@@P6AHH@Z@1@XZ 10082870 f i SequenceProxy.obj
 0002:000338a0       ??D?$_List_iterator@V?$_List_val@U?$_List_simple_types@U?$pair@$$CBV?$basic_string@DU?$char_traits@D@std@@V?$allocator@D@2@@std@@P6AHH@Z@std@@@std@@@std@@@std@@QBEAAU?$pair@$$CBV?$basic_string@DU?$char_traits@D@std@@V?$allocator@D@2@@std@@P6AHH@Z@1@XZ 100828a0 f i SequenceProxy.obj
 0002:000338d0       ??D?$_List_unchecked_const_iterator@V?$_List_val@U?$_List_simple_types@U?$pair@$$CBV?$basic_string@DU?$char_traits@D@std@@V?$allocator@D@2@@std@@P6AHH@Z@std@@@std@@@std@@U_Iterator_base0@2@@std@@QBEABU?$pair@$$CBV?$basic_string@DU?$char_traits@D@std@@V?$allocator@D@2@@std@@P6AHH@Z@1@XZ 100828d0 f i SequenceProxy.obj
 0002:00033900       ??D?$_List_unchecked_iterator@V?$_List_val@U?$_List_simple_types@U?$pair@$$CBV?$basic_string@DU?$char_traits@D@std@@V?$allocator@D@2@@std@@P6AHH@Z@std@@@std@@@std@@@std@@QBEAAU?$pair@$$CBV?$basic_string@DU?$char_traits@D@std@@V?$allocator@D@2@@std@@P6AHH@Z@1@XZ 10082900 f i SequenceProxy.obj
 0002:00033930       ??E?$_List_const_iterator@V?$_List_val@U?$_List_simple_types@U?$pair@$$CBV?$basic_string@DU?$char_traits@D@std@@V?$allocator@D@2@@std@@P6AHH@Z@std@@@std@@@std@@@std@@QAE?AV01@H@Z 10082930 f i SequenceProxy.obj
 0002:000339a0       ??E?$_List_const_iterator@V?$_List_val@U?$_List_simple_types@U?$pair@$$CBV?$basic_string@DU?$char_traits@D@std@@V?$allocator@D@2@@std@@P6AHH@Z@std@@@std@@@std@@@std@@QAEAAV01@XZ 100829a0 f i SequenceProxy.obj
 0002:000339d0       ??E?$_List_unchecked_const_iterator@V?$_List_val@U?$_List_simple_types@U?$pair@$$CBV?$basic_string@DU?$char_traits@D@std@@V?$allocator@D@2@@std@@P6AHH@Z@std@@@std@@@std@@U_Iterator_base0@2@@std@@QAEAAV01@XZ 100829d0 f i SequenceProxy.obj
 0002:00033a00       ??E?$_List_unchecked_iterator@V?$_List_val@U?$_List_simple_types@U?$pair@$$CBV?$basic_string@DU?$char_traits@D@std@@V?$allocator@D@2@@std@@P6AHH@Z@std@@@std@@@std@@@std@@QAEAAV01@XZ 10082a00 f i SequenceProxy.obj
 0002:00033a30       ??F?$_List_unchecked_const_iterator@V?$_List_val@U?$_List_simple_types@U?$pair@$$CBV?$basic_string@DU?$char_traits@D@std@@V?$allocator@D@2@@std@@P6AHH@Z@std@@@std@@@std@@U_Iterator_base0@2@@std@@QAEAAV01@XZ 10082a30 f i SequenceProxy.obj
 0002:00033a60       ??F?$_List_unchecked_iterator@V?$_List_val@U?$_List_simple_types@U?$pair@$$CBV?$basic_string@DU?$char_traits@D@std@@V?$allocator@D@2@@std@@P6AHH@Z@std@@@std@@@std@@@std@@QAEAAV01@XZ 10082a60 f i SequenceProxy.obj
 0002:00033d00       ??R?$_Uhash_compare@V?$basic_string@DU?$char_traits@D@std@@V?$allocator@D@2@@std@@U?$hash@V?$basic_string@DU?$char_traits@D@std@@V?$allocator@D@2@@std@@@2@U?$equal_to@V?$basic_string@DU?$char_traits@D@std@@V?$allocator@D@2@@std@@@2@@std@@QBEIABV?$basic_string@DU?$char_traits@D@std@@V?$allocator@D@2@@1@@Z 10082d00 f i SequenceProxy.obj
 0002:00033d40       ??R?$_Uhash_compare@V?$basic_string@DU?$char_traits@D@std@@V?$allocator@D@2@@std@@U?$hash@V?$basic_string@DU?$char_traits@D@std@@V?$allocator@D@2@@std@@@2@U?$equal_to@V?$basic_string@DU?$char_traits@D@std@@V?$allocator@D@2@@std@@@2@@std@@QBE_NABV?$basic_string@DU?$char_traits@D@std@@V?$allocator@D@2@@1@0@Z 10082d40 f i SequenceProxy.obj
 0002:00033da0       ??R?$equal_to@V?$basic_string@DU?$char_traits@D@std@@V?$allocator@D@2@@std@@@std@@QBE_NABV?$basic_string@DU?$char_traits@D@std@@V?$allocator@D@2@@1@0@Z 10082da0 f i SequenceProxy.obj
 0002:00033dd0       ??R?$hash@V?$basic_string@DU?$char_traits@D@std@@V?$allocator@D@2@@std@@@std@@QBEIABV?$basic_string@DU?$char_traits@D@std@@V?$allocator@D@2@@1@@Z 10082dd0 f i SequenceProxy.obj
 0002:00033e10       ??_G?$pair@$$CBV?$basic_string@DU?$char_traits@D@std@@V?$allocator@D@2@@std@@P6AHH@Z@std@@QAEPAXI@Z 10082e10 f i SequenceProxy.obj
 0002:00033e60       ??_Gnetvar_table@NetvarSys@@QAEPAXI@Z 10082e60 f i SequenceProxy.obj
 0002:00033eb0       ?Get@?$CHandle@VC_BasePlayer@@@@QBEPAVC_BasePlayer@@XZ 10082eb0 f i SequenceProxy.obj
 0002:00033ee0       ?Get@?$Singleton@VNetvarSys@@@@SAAAVNetvarSys@@XZ 10082ee0 f i SequenceProxy.obj
 0002:00033fd0       ?Get@CBaseHandle@@QBEPAVIHandleEntity@@XZ 10082fd0 f i SequenceProxy.obj
 0002:00034010       ?GetOriginalFunction@RecvPropHook@@QBEP6AXPBVCRecvProxyData@@PAX1@ZXZ 10083010 f i SequenceProxy.obj
 0002:00034030       ?IsValid@CBaseHandle@@QBE_NXZ 10083030 f i SequenceProxy.obj
 0002:00034070       ?RandomSequence@@YAHHH@Z   10083070 f i SequenceProxy.obj
 0002:000340a0       ?_Begin@?$_Hash@V?$_Umap_traits@V?$basic_string@DU?$char_traits@D@std@@V?$allocator@D@2@@std@@P6AHH@ZV?$_Uhash_compare@V?$basic_string@DU?$char_traits@D@std@@V?$allocator@D@2@@std@@U?$hash@V?$basic_string@DU?$char_traits@D@std@@V?$allocator@D@2@@std@@@2@U?$equal_to@V?$basic_string@DU?$char_traits@D@std@@V?$allocator@D@2@@std@@@2@@2@V?$allocator@U?$pair@$$CBV?$basic_string@DU?$char_traits@D@std@@V?$allocator@D@2@@std@@P6AHH@Z@std@@@2@$0A@@std@@@std@@IAE?AV?$_List_unchecked_iterator@V?$_List_val@U?$_List_simple_types@U?$pair@$$CBV?$basic_string@DU?$char_traits@D@std@@V?$allocator@D@2@@std@@P6AHH@Z@std@@@std@@@std@@@2@I@Z 100830a0 f i SequenceProxy.obj
 0002:000340e0       ?_Begin@?$_Hash@V?$_Umap_traits@V?$basic_string@DU?$char_traits@D@std@@V?$allocator@D@2@@std@@P6AHH@ZV?$_Uhash_compare@V?$basic_string@DU?$char_traits@D@std@@V?$allocator@D@2@@std@@U?$hash@V?$basic_string@DU?$char_traits@D@std@@V?$allocator@D@2@@std@@@2@U?$equal_to@V?$basic_string@DU?$char_traits@D@std@@V?$allocator@D@2@@std@@@2@@2@V?$allocator@U?$pair@$$CBV?$basic_string@DU?$char_traits@D@std@@V?$allocator@D@2@@std@@P6AHH@Z@std@@@2@$0A@@std@@@std@@IBE?AV?$_List_unchecked_const_iterator@V?$_List_val@U?$_List_simple_types@U?$pair@$$CBV?$basic_string@DU?$char_traits@D@std@@V?$allocator@D@2@@std@@P6AHH@Z@std@@@std@@@std@@U_Iterator_base0@2@@2@I@Z 100830e0 f i SequenceProxy.obj
 0002:00034120       ?_Buy@?$vector@V?$_List_unchecked_iterator@V?$_List_val@U?$_List_simple_types@U?$pair@$$CBV?$basic_string@DU?$char_traits@D@std@@V?$allocator@D@2@@std@@P6AHH@Z@std@@@std@@@std@@@std@@V?$allocator@V?$_List_unchecked_iterator@V?$_List_val@U?$_List_simple_types@U?$pair@$$CBV?$basic_string@DU?$char_traits@D@std@@V?$allocator@D@2@@std@@P6AHH@Z@std@@@std@@@std@@@std@@@2@@std@@AAE_NI@Z 10083120 f i SequenceProxy.obj
 0002:00034200       ?_Buyheadnode@?$_List_alloc@U?$_List_base_types@U?$pair@$$CBV?$basic_string@DU?$char_traits@D@std@@V?$allocator@D@2@@std@@P6AHH@Z@std@@V?$allocator@U?$pair@$$CBV?$basic_string@DU?$char_traits@D@std@@V?$allocator@D@2@@std@@P6AHH@Z@std@@@2@@std@@@std@@QAEPAU?$_List_node@U?$pair@$$CBV?$basic_string@DU?$char_traits@D@std@@V?$allocator@D@2@@std@@P6AHH@Z@std@@PAX@2@XZ 10083200 f i SequenceProxy.obj
 0002:00034230       ?_Buynode0@?$_List_alloc@U?$_List_base_types@U?$pair@$$CBV?$basic_string@DU?$char_traits@D@std@@V?$allocator@D@2@@std@@P6AHH@Z@std@@V?$allocator@U?$pair@$$CBV?$basic_string@DU?$char_traits@D@std@@V?$allocator@D@2@@std@@P6AHH@Z@std@@@2@@std@@@std@@QAEPAU?$_List_node@U?$pair@$$CBV?$basic_string@DU?$char_traits@D@std@@V?$allocator@D@2@@std@@P6AHH@Z@std@@PAX@2@PAU32@0@Z 10083230 f i SequenceProxy.obj
 0002:00034360       ?_Calculate_growth@?$vector@V?$_List_unchecked_iterator@V?$_List_val@U?$_List_simple_types@U?$pair@$$CBV?$basic_string@DU?$char_traits@D@std@@V?$allocator@D@2@@std@@P6AHH@Z@std@@@std@@@std@@@std@@V?$allocator@V?$_List_unchecked_iterator@V?$_List_val@U?$_List_simple_types@U?$pair@$$CBV?$basic_string@DU?$char_traits@D@std@@V?$allocator@D@2@@std@@P6AHH@Z@std@@@std@@@std@@@std@@@2@@std@@ABEII@Z 10083360 f i SequenceProxy.obj
 0002:000343d0       ?_Change_array@?$vector@V?$_List_unchecked_iterator@V?$_List_val@U?$_List_simple_types@U?$pair@$$CBV?$basic_string@DU?$char_traits@D@std@@V?$allocator@D@2@@std@@P6AHH@Z@std@@@std@@@std@@@std@@V?$allocator@V?$_List_unchecked_iterator@V?$_List_val@U?$_List_simple_types@U?$pair@$$CBV?$basic_string@DU?$char_traits@D@std@@V?$allocator@D@2@@std@@P6AHH@Z@std@@@std@@@std@@@std@@@2@@std@@AAEXQAV?$_List_unchecked_iterator@V?$_List_val@U?$_List_simple_types@U?$pair@$$CBV?$basic_string@DU?$char_traits@D@std@@V?$allocator@D@2@@std@@P6AHH@Z@std@@@std@@@std@@@2@II@Z 100833d0 f i SequenceProxy.obj
 0002:000344a0       ?_Check_size@?$_Hash@V?$_Umap_traits@V?$basic_string@DU?$char_traits@D@std@@V?$allocator@D@2@@std@@P6AHH@ZV?$_Uhash_compare@V?$basic_string@DU?$char_traits@D@std@@V?$allocator@D@2@@std@@U?$hash@V?$basic_string@DU?$char_traits@D@std@@V?$allocator@D@2@@std@@@2@U?$equal_to@V?$basic_string@DU?$char_traits@D@std@@V?$allocator@D@2@@std@@@2@@2@V?$allocator@U?$pair@$$CBV?$basic_string@DU?$char_traits@D@std@@V?$allocator@D@2@@std@@P6AHH@Z@std@@@2@$0A@@std@@@std@@IAEXXZ 100834a0 f i SequenceProxy.obj
 0002:00034560       ?_Destroy@?$vector@PAVRecvProp@@V?$allocator@PAVRecvProp@@@std@@@std@@AAEXPAPAVRecvProp@@0@Z 10083560 f i SequenceProxy.obj
 0002:000345a0       ?_Destroy@?$vector@Unetvar_table@NetvarSys@@V?$allocator@Unetvar_table@NetvarSys@@@std@@@std@@AAEXPAUnetvar_table@NetvarSys@@0@Z 100835a0 f i SequenceProxy.obj
 0002:000345e0       ?_Destroy@?$vector@V?$_List_unchecked_iterator@V?$_List_val@U?$_List_simple_types@U?$pair@$$CBV?$basic_string@DU?$char_traits@D@std@@V?$allocator@D@2@@std@@P6AHH@Z@std@@@std@@@std@@@std@@V?$allocator@V?$_List_unchecked_iterator@V?$_List_val@U?$_List_simple_types@U?$pair@$$CBV?$basic_string@DU?$char_traits@D@std@@V?$allocator@D@2@@std@@P6AHH@Z@std@@@std@@@std@@@std@@@2@@std@@AAEXPAV?$_List_unchecked_iterator@V?$_List_val@U?$_List_simple_types@U?$pair@$$CBV?$basic_string@DU?$char_traits@D@std@@V?$allocator@D@2@@std@@P6AHH@Z@std@@@std@@@std@@@2@0@Z 100835e0 f i SequenceProxy.obj
 0002:00034620       ?_Destroy_if_node@?$_Hash@V?$_Umap_traits@V?$basic_string@DU?$char_traits@D@std@@V?$allocator@D@2@@std@@P6AHH@ZV?$_Uhash_compare@V?$basic_string@DU?$char_traits@D@std@@V?$allocator@D@2@@std@@U?$hash@V?$basic_string@DU?$char_traits@D@std@@V?$allocator@D@2@@std@@@2@U?$equal_to@V?$basic_string@DU?$char_traits@D@std@@V?$allocator@D@2@@std@@@2@@2@V?$allocator@U?$pair@$$CBV?$basic_string@DU?$char_traits@D@std@@V?$allocator@D@2@@std@@P6AHH@Z@std@@@2@$0A@@std@@@std@@IAEXV?$_List_unchecked_iterator@V?$_List_val@U?$_List_simple_types@U?$pair@$$CBV?$basic_string@DU?$char_traits@D@std@@V?$allocator@D@2@@std@@P6AHH@Z@std@@@std@@@std@@@2@@Z 10083620 f i SequenceProxy.obj
 0002:00034680       ?_End@?$_Hash@V?$_Umap_traits@V?$basic_string@DU?$char_traits@D@std@@V?$allocator@D@2@@std@@P6AHH@ZV?$_Uhash_compare@V?$basic_string@DU?$char_traits@D@std@@V?$allocator@D@2@@std@@U?$hash@V?$basic_string@DU?$char_traits@D@std@@V?$allocator@D@2@@std@@@2@U?$equal_to@V?$basic_string@DU?$char_traits@D@std@@V?$allocator@D@2@@std@@@2@@2@V?$allocator@U?$pair@$$CBV?$basic_string@DU?$char_traits@D@std@@V?$allocator@D@2@@std@@P6AHH@Z@std@@@2@$0A@@std@@@std@@IAE?AV?$_List_unchecked_iterator@V?$_List_val@U?$_List_simple_types@U?$pair@$$CBV?$basic_string@DU?$char_traits@D@std@@V?$allocator@D@2@@std@@P6AHH@Z@std@@@std@@@std@@@2@I@Z 10083680 f i SequenceProxy.obj
 0002:00034740       ?_End@?$_Hash@V?$_Umap_traits@V?$basic_string@DU?$char_traits@D@std@@V?$allocator@D@2@@std@@P6AHH@ZV?$_Uhash_compare@V?$basic_string@DU?$char_traits@D@std@@V?$allocator@D@2@@std@@U?$hash@V?$basic_string@DU?$char_traits@D@std@@V?$allocator@D@2@@std@@@2@U?$equal_to@V?$basic_string@DU?$char_traits@D@std@@V?$allocator@D@2@@std@@@2@@2@V?$allocator@U?$pair@$$CBV?$basic_string@DU?$char_traits@D@std@@V?$allocator@D@2@@std@@P6AHH@Z@std@@@2@$0A@@std@@@std@@IBE?AV?$_List_unchecked_const_iterator@V?$_List_val@U?$_List_simple_types@U?$pair@$$CBV?$basic_string@DU?$char_traits@D@std@@V?$allocator@D@2@@std@@P6AHH@Z@std@@@std@@@std@@U_Iterator_base0@2@@2@I@Z 10083740 f i SequenceProxy.obj
 0002:00034800       ?_Equal@?$basic_string@DU?$char_traits@D@std@@V?$allocator@D@2@@std@@QBE_NABV12@@Z 10083800 f i SequenceProxy.obj
 0002:000348a0       ?_Erase_bucket@?$_Hash@V?$_Umap_traits@V?$basic_string@DU?$char_traits@D@std@@V?$allocator@D@2@@std@@P6AHH@ZV?$_Uhash_compare@V?$basic_string@DU?$char_traits@D@std@@V?$allocator@D@2@@std@@U?$hash@V?$basic_string@DU?$char_traits@D@std@@V?$allocator@D@2@@std@@@2@U?$equal_to@V?$basic_string@DU?$char_traits@D@std@@V?$allocator@D@2@@std@@@2@@2@V?$allocator@U?$pair@$$CBV?$basic_string@DU?$char_traits@D@std@@V?$allocator@D@2@@std@@P6AHH@Z@std@@@2@$0A@@std@@@std@@IAEXV?$_List_iterator@V?$_List_val@U?$_List_simple_types@U?$pair@$$CBV?$basic_string@DU?$char_traits@D@std@@V?$allocator@D@2@@std@@P6AHH@Z@std@@@std@@@std@@@2@I@Z 100838a0 f i SequenceProxy.obj
 0002:000349f0       ?_Freeheadnode@?$_List_alloc@U?$_List_base_types@U?$pair@$$CBV?$basic_string@DU?$char_traits@D@std@@V?$allocator@D@2@@std@@P6AHH@Z@std@@V?$allocator@U?$pair@$$CBV?$basic_string@DU?$char_traits@D@std@@V?$allocator@D@2@@std@@P6AHH@Z@std@@@2@@std@@@std@@QAEXPAU?$_List_node@U?$pair@$$CBV?$basic_string@DU?$char_traits@D@std@@V?$allocator@D@2@@std@@P6AHH@Z@std@@PAX@2@@Z 100839f0 f i SequenceProxy.obj
 0002:00034a30       ?_Freenode@?$_List_buy@U?$pair@$$CBV?$basic_string@DU?$char_traits@D@std@@V?$allocator@D@2@@std@@P6AHH@Z@std@@V?$allocator@U?$pair@$$CBV?$basic_string@DU?$char_traits@D@std@@V?$allocator@D@2@@std@@P6AHH@Z@std@@@2@@std@@QAEXPAU?$_List_node@U?$pair@$$CBV?$basic_string@DU?$char_traits@D@std@@V?$allocator@D@2@@std@@P6AHH@Z@std@@PAX@2@@Z 10083a30 f i SequenceProxy.obj
 0002:00034a90       ?_Get_data@?$_List_alloc@U?$_List_base_types@U?$pair@$$CBV?$basic_string@DU?$char_traits@D@std@@V?$allocator@D@2@@std@@P6AHH@Z@std@@V?$allocator@U?$pair@$$CBV?$basic_string@DU?$char_traits@D@std@@V?$allocator@D@2@@std@@P6AHH@Z@std@@@2@@std@@@std@@QAEAAV?$_List_val@U?$_List_simple_types@U?$pair@$$CBV?$basic_string@DU?$char_traits@D@std@@V?$allocator@D@2@@std@@P6AHH@Z@std@@@std@@@2@XZ 10083a90 f i SequenceProxy.obj
 0002:00034ac0       ?_Get_data@?$_List_alloc@U?$_List_base_types@U?$pair@$$CBV?$basic_string@DU?$char_traits@D@std@@V?$allocator@D@2@@std@@P6AHH@Z@std@@V?$allocator@U?$pair@$$CBV?$basic_string@DU?$char_traits@D@std@@V?$allocator@D@2@@std@@P6AHH@Z@std@@@2@@std@@@std@@QBEABV?$_List_val@U?$_List_simple_types@U?$pair@$$CBV?$basic_string@DU?$char_traits@D@std@@V?$allocator@D@2@@std@@P6AHH@Z@std@@@std@@@2@XZ 10083ac0 f i SequenceProxy.obj
 0002:00034af0       ?_Get_data@?$_Vector_alloc@U?$_Vec_base_types@PAVRecvProp@@V?$allocator@PAVRecvProp@@@std@@@std@@@std@@QAEAAV?$_Vector_val@U?$_Simple_types@PAVRecvProp@@@std@@@2@XZ 10083af0 f i SequenceProxy.obj
 0002:00034b20       ?_Get_data@?$_Vector_alloc@U?$_Vec_base_types@PAVRecvProp@@V?$allocator@PAVRecvProp@@@std@@@std@@@std@@QBEABV?$_Vector_val@U?$_Simple_types@PAVRecvProp@@@std@@@2@XZ 10083b20 f i SequenceProxy.obj
 0002:00034b50       ?_Get_data@?$_Vector_alloc@U?$_Vec_base_types@Unetvar_table@NetvarSys@@V?$allocator@Unetvar_table@NetvarSys@@@std@@@std@@@std@@QAEAAV?$_Vector_val@U?$_Simple_types@Unetvar_table@NetvarSys@@@std@@@2@XZ 10083b50 f i SequenceProxy.obj
 0002:00034b80       ?_Get_data@?$_Vector_alloc@U?$_Vec_base_types@Unetvar_table@NetvarSys@@V?$allocator@Unetvar_table@NetvarSys@@@std@@@std@@@std@@QBEABV?$_Vector_val@U?$_Simple_types@Unetvar_table@NetvarSys@@@std@@@2@XZ 10083b80 f i SequenceProxy.obj
 0002:00034bb0       ?_Get_data@?$_Vector_alloc@U?$_Vec_base_types@V?$_List_unchecked_iterator@V?$_List_val@U?$_List_simple_types@U?$pair@$$CBV?$basic_string@DU?$char_traits@D@std@@V?$allocator@D@2@@std@@P6AHH@Z@std@@@std@@@std@@@std@@V?$allocator@V?$_List_unchecked_iterator@V?$_List_val@U?$_List_simple_types@U?$pair@$$CBV?$basic_string@DU?$char_traits@D@std@@V?$allocator@D@2@@std@@P6AHH@Z@std@@@std@@@std@@@std@@@2@@std@@@std@@QAEAAV?$_Vector_val@U?$_Simple_types@V?$_List_unchecked_iterator@V?$_List_val@U?$_List_simple_types@U?$pair@$$CBV?$basic_string@DU?$char_traits@D@std@@V?$allocator@D@2@@std@@P6AHH@Z@std@@@std@@@std@@@std@@@std@@@2@XZ 10083bb0 f i SequenceProxy.obj
 0002:00034be0       ?_Get_data@?$_Vector_alloc@U?$_Vec_base_types@V?$_List_unchecked_iterator@V?$_List_val@U?$_List_simple_types@U?$pair@$$CBV?$basic_string@DU?$char_traits@D@std@@V?$allocator@D@2@@std@@P6AHH@Z@std@@@std@@@std@@@std@@V?$allocator@V?$_List_unchecked_iterator@V?$_List_val@U?$_List_simple_types@U?$pair@$$CBV?$basic_string@DU?$char_traits@D@std@@V?$allocator@D@2@@std@@P6AHH@Z@std@@@std@@@std@@@std@@@2@@std@@@std@@QBEABV?$_Vector_val@U?$_Simple_types@V?$_List_unchecked_iterator@V?$_List_val@U?$_List_simple_types@U?$pair@$$CBV?$basic_string@DU?$char_traits@D@std@@V?$allocator@D@2@@std@@P6AHH@Z@std@@@std@@@std@@@std@@@std@@@2@XZ 10083be0 f i SequenceProxy.obj
 0002:00034c10       ?_Get_first@?$_Compressed_pair@U?$equal_to@V?$basic_string@DU?$char_traits@D@std@@V?$allocator@D@2@@std@@@std@@M$00@std@@QBEABU?$equal_to@V?$basic_string@DU?$char_traits@D@std@@V?$allocator@D@2@@std@@@2@XZ 10083c10 f i SequenceProxy.obj
 0002:00034c30       ?_Get_first@?$_Compressed_pair@U?$hash@V?$basic_string@DU?$char_traits@D@std@@V?$allocator@D@2@@std@@@std@@V?$_Compressed_pair@U?$equal_to@V?$basic_string@DU?$char_traits@D@std@@V?$allocator@D@2@@std@@@std@@M$00@2@$00@std@@QBEABU?$hash@V?$basic_string@DU?$char_traits@D@std@@V?$allocator@D@2@@std@@@2@XZ 10083c30 f i SequenceProxy.obj
 0002:00034c50       ?_Get_first@?$_Compressed_pair@V?$allocator@PAVRecvProp@@@std@@V?$_Vector_val@U?$_Simple_types@PAVRecvProp@@@std@@@2@$00@std@@QAEAAV?$allocator@PAVRecvProp@@@2@XZ 10083c50 f i SequenceProxy.obj
 0002:00034c70       ?_Get_first@?$_Compressed_pair@V?$allocator@U?$_List_node@U?$pair@$$CBV?$basic_string@DU?$char_traits@D@std@@V?$allocator@D@2@@std@@P6AHH@Z@std@@PAX@std@@@std@@V?$_List_val@U?$_List_simple_types@U?$pair@$$CBV?$basic_string@DU?$char_traits@D@std@@V?$allocator@D@2@@std@@P6AHH@Z@std@@@std@@@2@$00@std@@QAEAAV?$allocator@U?$_List_node@U?$pair@$$CBV?$basic_string@DU?$char_traits@D@std@@V?$allocator@D@2@@std@@P6AHH@Z@std@@PAX@std@@@2@XZ 10083c70 f i SequenceProxy.obj
 0002:00034c90       ?_Get_first@?$_Compressed_pair@V?$allocator@U?$_List_node@U?$pair@$$CBV?$basic_string@DU?$char_traits@D@std@@V?$allocator@D@2@@std@@P6AHH@Z@std@@PAX@std@@@std@@V?$_List_val@U?$_List_simple_types@U?$pair@$$CBV?$basic_string@DU?$char_traits@D@std@@V?$allocator@D@2@@std@@P6AHH@Z@std@@@std@@@2@$00@std@@QBEABV?$allocator@U?$_List_node@U?$pair@$$CBV?$basic_string@DU?$char_traits@D@std@@V?$allocator@D@2@@std@@P6AHH@Z@std@@PAX@std@@@2@XZ 10083c90 f i SequenceProxy.obj
 0002:00034cb0       ?_Get_first@?$_Compressed_pair@V?$allocator@Unetvar_table@NetvarSys@@@std@@V?$_Vector_val@U?$_Simple_types@Unetvar_table@NetvarSys@@@std@@@2@$00@std@@QAEAAV?$allocator@Unetvar_table@NetvarSys@@@2@XZ 10083cb0 f i SequenceProxy.obj
 0002:00034cd0       ?_Get_first@?$_Compressed_pair@V?$allocator@V?$_List_unchecked_iterator@V?$_List_val@U?$_List_simple_types@U?$pair@$$CBV?$basic_string@DU?$char_traits@D@std@@V?$allocator@D@2@@std@@P6AHH@Z@std@@@std@@@std@@@std@@@std@@V?$_Vector_val@U?$_Simple_types@V?$_List_unchecked_iterator@V?$_List_val@U?$_List_simple_types@U?$pair@$$CBV?$basic_string@DU?$char_traits@D@std@@V?$allocator@D@2@@std@@P6AHH@Z@std@@@std@@@std@@@std@@@std@@@2@$00@std@@QAEAAV?$allocator@V?$_List_unchecked_iterator@V?$_List_val@U?$_List_simple_types@U?$pair@$$CBV?$basic_string@DU?$char_traits@D@std@@V?$allocator@D@2@@std@@P6AHH@Z@std@@@std@@@std@@@std@@@2@XZ 10083cd0 f i SequenceProxy.obj
 0002:00034cf0       ?_Get_first@?$_Compressed_pair@V?$allocator@V?$_List_unchecked_iterator@V?$_List_val@U?$_List_simple_types@U?$pair@$$CBV?$basic_string@DU?$char_traits@D@std@@V?$allocator@D@2@@std@@P6AHH@Z@std@@@std@@@std@@@std@@@std@@V?$_Vector_val@U?$_Simple_types@V?$_List_unchecked_iterator@V?$_List_val@U?$_List_simple_types@U?$pair@$$CBV?$basic_string@DU?$char_traits@D@std@@V?$allocator@D@2@@std@@P6AHH@Z@std@@@std@@@std@@@std@@@std@@@2@$00@std@@QBEABV?$allocator@V?$_List_unchecked_iterator@V?$_List_val@U?$_List_simple_types@U?$pair@$$CBV?$basic_string@DU?$char_traits@D@std@@V?$allocator@D@2@@std@@P6AHH@Z@std@@@std@@@std@@@std@@@2@XZ 10083cf0 f i SequenceProxy.obj
 0002:00034d10       ?_Get_max_bucket_size@?$_Uhash_compare@V?$basic_string@DU?$char_traits@D@std@@V?$allocator@D@2@@std@@U?$hash@V?$basic_string@DU?$char_traits@D@std@@V?$allocator@D@2@@std@@@2@U?$equal_to@V?$basic_string@DU?$char_traits@D@std@@V?$allocator@D@2@@std@@@2@@std@@QAEAAMXZ 10083d10 f i SequenceProxy.obj
 0002:00034d40       ?_Get_max_bucket_size@?$_Uhash_compare@V?$basic_string@DU?$char_traits@D@std@@V?$allocator@D@2@@std@@U?$hash@V?$basic_string@DU?$char_traits@D@std@@V?$allocator@D@2@@std@@@2@U?$equal_to@V?$basic_string@DU?$char_traits@D@std@@V?$allocator@D@2@@std@@@2@@std@@QBEABMXZ 10083d40 f i SequenceProxy.obj
 0002:00034d70       ?_Get_second@?$_Compressed_pair@U?$equal_to@V?$basic_string@DU?$char_traits@D@std@@V?$allocator@D@2@@std@@@std@@M$00@std@@QAEAAMXZ 10083d70 f i SequenceProxy.obj
 0002:00034d90       ?_Get_second@?$_Compressed_pair@U?$equal_to@V?$basic_string@DU?$char_traits@D@std@@V?$allocator@D@2@@std@@@std@@M$00@std@@QBEABMXZ 10083d90 f i SequenceProxy.obj
 0002:00034db0       ?_Get_second@?$_Compressed_pair@U?$hash@V?$basic_string@DU?$char_traits@D@std@@V?$allocator@D@2@@std@@@std@@V?$_Compressed_pair@U?$equal_to@V?$basic_string@DU?$char_traits@D@std@@V?$allocator@D@2@@std@@@std@@M$00@2@$00@std@@QAEAAV?$_Compressed_pair@U?$equal_to@V?$basic_string@DU?$char_traits@D@std@@V?$allocator@D@2@@std@@@std@@M$00@2@XZ 10083db0 f i SequenceProxy.obj
 0002:00034dd0       ?_Get_second@?$_Compressed_pair@U?$hash@V?$basic_string@DU?$char_traits@D@std@@V?$allocator@D@2@@std@@@std@@V?$_Compressed_pair@U?$equal_to@V?$basic_string@DU?$char_traits@D@std@@V?$allocator@D@2@@std@@@std@@M$00@2@$00@std@@QBEABV?$_Compressed_pair@U?$equal_to@V?$basic_string@DU?$char_traits@D@std@@V?$allocator@D@2@@std@@@std@@M$00@2@XZ 10083dd0 f i SequenceProxy.obj
 0002:00034df0       ?_Get_second@?$_Compressed_pair@V?$allocator@PAVRecvProp@@@std@@V?$_Vector_val@U?$_Simple_types@PAVRecvProp@@@std@@@2@$00@std@@QAEAAV?$_Vector_val@U?$_Simple_types@PAVRecvProp@@@std@@@2@XZ 10083df0 f i SequenceProxy.obj
 0002:00034e10       ?_Get_second@?$_Compressed_pair@V?$allocator@PAVRecvProp@@@std@@V?$_Vector_val@U?$_Simple_types@PAVRecvProp@@@std@@@2@$00@std@@QBEABV?$_Vector_val@U?$_Simple_types@PAVRecvProp@@@std@@@2@XZ 10083e10 f i SequenceProxy.obj
 0002:00034e30       ?_Get_second@?$_Compressed_pair@V?$allocator@U?$_List_node@U?$pair@$$CBV?$basic_string@DU?$char_traits@D@std@@V?$allocator@D@2@@std@@P6AHH@Z@std@@PAX@std@@@std@@V?$_List_val@U?$_List_simple_types@U?$pair@$$CBV?$basic_string@DU?$char_traits@D@std@@V?$allocator@D@2@@std@@P6AHH@Z@std@@@std@@@2@$00@std@@QAEAAV?$_List_val@U?$_List_simple_types@U?$pair@$$CBV?$basic_string@DU?$char_traits@D@std@@V?$allocator@D@2@@std@@P6AHH@Z@std@@@std@@@2@XZ 10083e30 f i SequenceProxy.obj
 0002:00034e50       ?_Get_second@?$_Compressed_pair@V?$allocator@U?$_List_node@U?$pair@$$CBV?$basic_string@DU?$char_traits@D@std@@V?$allocator@D@2@@std@@P6AHH@Z@std@@PAX@std@@@std@@V?$_List_val@U?$_List_simple_types@U?$pair@$$CBV?$basic_string@DU?$char_traits@D@std@@V?$allocator@D@2@@std@@P6AHH@Z@std@@@std@@@2@$00@std@@QBEABV?$_List_val@U?$_List_simple_types@U?$pair@$$CBV?$basic_string@DU?$char_traits@D@std@@V?$allocator@D@2@@std@@P6AHH@Z@std@@@std@@@2@XZ 10083e50 f i SequenceProxy.obj
 0002:00034e70       ?_Get_second@?$_Compressed_pair@V?$allocator@Unetvar_table@NetvarSys@@@std@@V?$_Vector_val@U?$_Simple_types@Unetvar_table@NetvarSys@@@std@@@2@$00@std@@QAEAAV?$_Vector_val@U?$_Simple_types@Unetvar_table@NetvarSys@@@std@@@2@XZ 10083e70 f i SequenceProxy.obj
 0002:00034e90       ?_Get_second@?$_Compressed_pair@V?$allocator@Unetvar_table@NetvarSys@@@std@@V?$_Vector_val@U?$_Simple_types@Unetvar_table@NetvarSys@@@std@@@2@$00@std@@QBEABV?$_Vector_val@U?$_Simple_types@Unetvar_table@NetvarSys@@@std@@@2@XZ 10083e90 f i SequenceProxy.obj
 0002:00034eb0       ?_Get_second@?$_Compressed_pair@V?$allocator@V?$_List_unchecked_iterator@V?$_List_val@U?$_List_simple_types@U?$pair@$$CBV?$basic_string@DU?$char_traits@D@std@@V?$allocator@D@2@@std@@P6AHH@Z@std@@@std@@@std@@@std@@@std@@V?$_Vector_val@U?$_Simple_types@V?$_List_unchecked_iterator@V?$_List_val@U?$_List_simple_types@U?$pair@$$CBV?$basic_string@DU?$char_traits@D@std@@V?$allocator@D@2@@std@@P6AHH@Z@std@@@std@@@std@@@std@@@std@@@2@$00@std@@QAEAAV?$_Vector_val@U?$_Simple_types@V?$_List_unchecked_iterator@V?$_List_val@U?$_List_simple_types@U?$pair@$$CBV?$basic_string@DU?$char_traits@D@std@@V?$allocator@D@2@@std@@P6AHH@Z@std@@@std@@@std@@@std@@@std@@@2@XZ 10083eb0 f i SequenceProxy.obj
 0002:00034ed0       ?_Get_second@?$_Compressed_pair@V?$allocator@V?$_List_unchecked_iterator@V?$_List_val@U?$_List_simple_types@U?$pair@$$CBV?$basic_string@DU?$char_traits@D@std@@V?$allocator@D@2@@std@@P6AHH@Z@std@@@std@@@std@@@std@@@std@@V?$_Vector_val@U?$_Simple_types@V?$_List_unchecked_iterator@V?$_List_val@U?$_List_simple_types@U?$pair@$$CBV?$basic_string@DU?$char_traits@D@std@@V?$allocator@D@2@@std@@P6AHH@Z@std@@@std@@@std@@@std@@@std@@@2@$00@std@@QBEABV?$_Vector_val@U?$_Simple_types@V?$_List_unchecked_iterator@V?$_List_val@U?$_List_simple_types@U?$pair@$$CBV?$basic_string@DU?$char_traits@D@std@@V?$allocator@D@2@@std@@P6AHH@Z@std@@@std@@@std@@@std@@@std@@@2@XZ 10083ed0 f i SequenceProxy.obj
 0002:00034ef0       ?_Getal@?$_List_alloc@U?$_List_base_types@U?$pair@$$CBV?$basic_string@DU?$char_traits@D@std@@V?$allocator@D@2@@std@@P6AHH@Z@std@@V?$allocator@U?$pair@$$CBV?$basic_string@DU?$char_traits@D@std@@V?$allocator@D@2@@std@@P6AHH@Z@std@@@2@@std@@@std@@QAEAAV?$allocator@U?$_List_node@U?$pair@$$CBV?$basic_string@DU?$char_traits@D@std@@V?$allocator@D@2@@std@@P6AHH@Z@std@@PAX@std@@@2@XZ 10083ef0 f i SequenceProxy.obj
 0002:00034f20       ?_Getal@?$_List_alloc@U?$_List_base_types@U?$pair@$$CBV?$basic_string@DU?$char_traits@D@std@@V?$allocator@D@2@@std@@P6AHH@Z@std@@V?$allocator@U?$pair@$$CBV?$basic_string@DU?$char_traits@D@std@@V?$allocator@D@2@@std@@P6AHH@Z@std@@@2@@std@@@std@@QBEABV?$allocator@U?$_List_node@U?$pair@$$CBV?$basic_string@DU?$char_traits@D@std@@V?$allocator@D@2@@std@@P6AHH@Z@std@@PAX@std@@@2@XZ 10083f20 f i SequenceProxy.obj
 0002:00034f50       ?_Getal@?$_Vector_alloc@U?$_Vec_base_types@PAVRecvProp@@V?$allocator@PAVRecvProp@@@std@@@std@@@std@@QAEAAV?$allocator@PAVRecvProp@@@2@XZ 10083f50 f i SequenceProxy.obj
 0002:00034f80       ?_Getal@?$_Vector_alloc@U?$_Vec_base_types@Unetvar_table@NetvarSys@@V?$allocator@Unetvar_table@NetvarSys@@@std@@@std@@@std@@QAEAAV?$allocator@Unetvar_table@NetvarSys@@@2@XZ 10083f80 f i SequenceProxy.obj
 0002:00034fb0       ?_Getal@?$_Vector_alloc@U?$_Vec_base_types@V?$_List_unchecked_iterator@V?$_List_val@U?$_List_simple_types@U?$pair@$$CBV?$basic_string@DU?$char_traits@D@std@@V?$allocator@D@2@@std@@P6AHH@Z@std@@@std@@@std@@@std@@V?$allocator@V?$_List_unchecked_iterator@V?$_List_val@U?$_List_simple_types@U?$pair@$$CBV?$basic_string@DU?$char_traits@D@std@@V?$allocator@D@2@@std@@P6AHH@Z@std@@@std@@@std@@@std@@@2@@std@@@std@@QAEAAV?$allocator@V?$_List_unchecked_iterator@V?$_List_val@U?$_List_simple_types@U?$pair@$$CBV?$basic_string@DU?$char_traits@D@std@@V?$allocator@D@2@@std@@P6AHH@Z@std@@@std@@@std@@@std@@@2@XZ 10083fb0 f i SequenceProxy.obj
 0002:00034fe0       ?_Getal@?$_Vector_alloc@U?$_Vec_base_types@V?$_List_unchecked_iterator@V?$_List_val@U?$_List_simple_types@U?$pair@$$CBV?$basic_string@DU?$char_traits@D@std@@V?$allocator@D@2@@std@@P6AHH@Z@std@@@std@@@std@@@std@@V?$allocator@V?$_List_unchecked_iterator@V?$_List_val@U?$_List_simple_types@U?$pair@$$CBV?$basic_string@DU?$char_traits@D@std@@V?$allocator@D@2@@std@@P6AHH@Z@std@@@std@@@std@@@std@@@2@@std@@@std@@QBEABV?$allocator@V?$_List_unchecked_iterator@V?$_List_val@U?$_List_simple_types@U?$pair@$$CBV?$basic_string@DU?$char_traits@D@std@@V?$allocator@D@2@@std@@P6AHH@Z@std@@@std@@@std@@@std@@@2@XZ 10083fe0 f i SequenceProxy.obj
 0002:00035010       ?_Getcont@_Iterator_base0@std@@QBEPBU_Container_base0@2@XZ 10084010 f i SequenceProxy.obj
 0002:00035030       ?_Gethash@?$_Uhash_compare@V?$basic_string@DU?$char_traits@D@std@@V?$allocator@D@2@@std@@U?$hash@V?$basic_string@DU?$char_traits@D@std@@V?$allocator@D@2@@std@@@2@U?$equal_to@V?$basic_string@DU?$char_traits@D@std@@V?$allocator@D@2@@std@@@2@@std@@QBEABU?$hash@V?$basic_string@DU?$char_traits@D@std@@V?$allocator@D@2@@std@@@2@XZ 10084030 f i SequenceProxy.obj
 0002:00035060       ?_Getkeyeq@?$_Uhash_compare@V?$basic_string@DU?$char_traits@D@std@@V?$allocator@D@2@@std@@U?$hash@V?$basic_string@DU?$char_traits@D@std@@V?$allocator@D@2@@std@@@2@U?$equal_to@V?$basic_string@DU?$char_traits@D@std@@V?$allocator@D@2@@std@@@2@@std@@QBEABU?$equal_to@V?$basic_string@DU?$char_traits@D@std@@V?$allocator@D@2@@std@@@2@XZ 10084060 f i SequenceProxy.obj
 0002:00035090       ?_Hash_bytes@std@@YAIPBEI@Z 10084090 f i SequenceProxy.obj
 0002:00035110       ?_Hashval@?$_Hash@V?$_Umap_traits@V?$basic_string@DU?$char_traits@D@std@@V?$allocator@D@2@@std@@P6AHH@ZV?$_Uhash_compare@V?$basic_string@DU?$char_traits@D@std@@V?$allocator@D@2@@std@@U?$hash@V?$basic_string@DU?$char_traits@D@std@@V?$allocator@D@2@@std@@@2@U?$equal_to@V?$basic_string@DU?$char_traits@D@std@@V?$allocator@D@2@@std@@@2@@2@V?$allocator@U?$pair@$$CBV?$basic_string@DU?$char_traits@D@std@@V?$allocator@D@2@@std@@P6AHH@Z@std@@@2@$0A@@std@@@std@@IBEIABV?$basic_string@DU?$char_traits@D@std@@V?$allocator@D@2@@2@@Z 10084110 f i SequenceProxy.obj
 0002:00035140       ?_Incsize@?$list@U?$pair@$$CBV?$basic_string@DU?$char_traits@D@std@@V?$allocator@D@2@@std@@P6AHH@Z@std@@V?$allocator@U?$pair@$$CBV?$basic_string@DU?$char_traits@D@std@@V?$allocator@D@2@@std@@P6AHH@Z@std@@@2@@std@@QAEXI@Z 10084140 f i SequenceProxy.obj
 0002:000351b0       ?_Init@?$_Hash@V?$_Umap_traits@V?$basic_string@DU?$char_traits@D@std@@V?$allocator@D@2@@std@@P6AHH@ZV?$_Uhash_compare@V?$basic_string@DU?$char_traits@D@std@@V?$allocator@D@2@@std@@U?$hash@V?$basic_string@DU?$char_traits@D@std@@V?$allocator@D@2@@std@@@2@U?$equal_to@V?$basic_string@DU?$char_traits@D@std@@V?$allocator@D@2@@std@@@2@@2@V?$allocator@U?$pair@$$CBV?$basic_string@DU?$char_traits@D@std@@V?$allocator@D@2@@std@@P6AHH@Z@std@@@2@$0A@@std@@@std@@IAEXI@Z 100841b0 f i SequenceProxy.obj
 0002:00035220       ?_Insert_bucket@?$_Hash@V?$_Umap_traits@V?$basic_string@DU?$char_traits@D@std@@V?$allocator@D@2@@std@@P6AHH@ZV?$_Uhash_compare@V?$basic_string@DU?$char_traits@D@std@@V?$allocator@D@2@@std@@U?$hash@V?$basic_string@DU?$char_traits@D@std@@V?$allocator@D@2@@std@@@2@U?$equal_to@V?$basic_string@DU?$char_traits@D@std@@V?$allocator@D@2@@std@@@2@@2@V?$allocator@U?$pair@$$CBV?$basic_string@DU?$char_traits@D@std@@V?$allocator@D@2@@std@@P6AHH@Z@std@@@2@$0A@@std@@@std@@IAEXV?$_List_unchecked_iterator@V?$_List_val@U?$_List_simple_types@U?$pair@$$CBV?$basic_string@DU?$char_traits@D@std@@V?$allocator@D@2@@std@@P6AHH@Z@std@@@std@@@std@@@2@0I@Z 10084220 f i SequenceProxy.obj
 0002:00035320       ?_Make_iter@?$_Hash@V?$_Umap_traits@V?$basic_string@DU?$char_traits@D@std@@V?$allocator@D@2@@std@@P6AHH@ZV?$_Uhash_compare@V?$basic_string@DU?$char_traits@D@std@@V?$allocator@D@2@@std@@U?$hash@V?$basic_string@DU?$char_traits@D@std@@V?$allocator@D@2@@std@@@2@U?$equal_to@V?$basic_string@DU?$char_traits@D@std@@V?$allocator@D@2@@std@@@2@@2@V?$allocator@U?$pair@$$CBV?$basic_string@DU?$char_traits@D@std@@V?$allocator@D@2@@std@@P6AHH@Z@std@@@2@$0A@@std@@@std@@QBE?AV?$_List_iterator@V?$_List_val@U?$_List_simple_types@U?$pair@$$CBV?$basic_string@DU?$char_traits@D@std@@V?$allocator@D@2@@std@@P6AHH@Z@std@@@std@@@std@@@2@V?$_List_const_iterator@V?$_List_val@U?$_List_simple_types@U?$pair@$$CBV?$basic_string@DU?$char_traits@D@std@@V?$allocator@D@2@@std@@P6AHH@Z@std@@@std@@@std@@@2@@Z 10084320 f i SequenceProxy.obj
 0002:00035360       ?_Make_iter@?$_Hash@V?$_Umap_traits@V?$basic_string@DU?$char_traits@D@std@@V?$allocator@D@2@@std@@P6AHH@ZV?$_Uhash_compare@V?$basic_string@DU?$char_traits@D@std@@V?$allocator@D@2@@std@@U?$hash@V?$basic_string@DU?$char_traits@D@std@@V?$allocator@D@2@@std@@@2@U?$equal_to@V?$basic_string@DU?$char_traits@D@std@@V?$allocator@D@2@@std@@@2@@2@V?$allocator@U?$pair@$$CBV?$basic_string@DU?$char_traits@D@std@@V?$allocator@D@2@@std@@P6AHH@Z@std@@@2@$0A@@std@@@std@@QBE?AV?$_List_iterator@V?$_List_val@U?$_List_simple_types@U?$pair@$$CBV?$basic_string@DU?$char_traits@D@std@@V?$allocator@D@2@@std@@P6AHH@Z@std@@@std@@@std@@@2@V?$_List_unchecked_const_iterator@V?$_List_val@U?$_List_simple_types@U?$pair@$$CBV?$basic_string@DU?$char_traits@D@std@@V?$allocator@D@2@@std@@P6AHH@Z@std@@@std@@@std@@U_Iterator_base0@2@@2@@Z 10084360 f i SequenceProxy.obj
 0002:000353a0       ?_Make_iter@?$list@U?$pair@$$CBV?$basic_string@DU?$char_traits@D@std@@V?$allocator@D@2@@std@@P6AHH@Z@std@@V?$allocator@U?$pair@$$CBV?$basic_string@DU?$char_traits@D@std@@V?$allocator@D@2@@std@@P6AHH@Z@std@@@2@@std@@QBE?AV?$_List_iterator@V?$_List_val@U?$_List_simple_types@U?$pair@$$CBV?$basic_string@DU?$char_traits@D@std@@V?$allocator@D@2@@std@@P6AHH@Z@std@@@std@@@std@@@2@V?$_List_const_iterator@V?$_List_val@U?$_List_simple_types@U?$pair@$$CBV?$basic_string@DU?$char_traits@D@std@@V?$allocator@D@2@@std@@P6AHH@Z@std@@@std@@@std@@@2@@Z 100843a0 f i SequenceProxy.obj
 0002:00035420       ?_Make_iter@?$list@U?$pair@$$CBV?$basic_string@DU?$char_traits@D@std@@V?$allocator@D@2@@std@@P6AHH@Z@std@@V?$allocator@U?$pair@$$CBV?$basic_string@DU?$char_traits@D@std@@V?$allocator@D@2@@std@@P6AHH@Z@std@@@2@@std@@QBE?AV?$_List_iterator@V?$_List_val@U?$_List_simple_types@U?$pair@$$CBV?$basic_string@DU?$char_traits@D@std@@V?$allocator@D@2@@std@@P6AHH@Z@std@@@std@@@std@@@2@V?$_List_unchecked_const_iterator@V?$_List_val@U?$_List_simple_types@U?$pair@$$CBV?$basic_string@DU?$char_traits@D@std@@V?$allocator@D@2@@std@@P6AHH@Z@std@@@std@@@std@@U_Iterator_base0@2@@2@@Z 10084420 f i SequenceProxy.obj
 0002:00035470       ?_Max_bucket_size@?$_Hash@V?$_Umap_traits@V?$basic_string@DU?$char_traits@D@std@@V?$allocator@D@2@@std@@P6AHH@ZV?$_Uhash_compare@V?$basic_string@DU?$char_traits@D@std@@V?$allocator@D@2@@std@@U?$hash@V?$basic_string@DU?$char_traits@D@std@@V?$allocator@D@2@@std@@@2@U?$equal_to@V?$basic_string@DU?$char_traits@D@std@@V?$allocator@D@2@@std@@@2@@2@V?$allocator@U?$pair@$$CBV?$basic_string@DU?$char_traits@D@std@@V?$allocator@D@2@@std@@P6AHH@Z@std@@@2@$0A@@std@@@std@@IAEAAMXZ 10084470 f i SequenceProxy.obj
 0002:000354a0       ?_Max_bucket_size@?$_Hash@V?$_Umap_traits@V?$basic_string@DU?$char_traits@D@std@@V?$allocator@D@2@@std@@P6AHH@ZV?$_Uhash_compare@V?$basic_string@DU?$char_traits@D@std@@V?$allocator@D@2@@std@@U?$hash@V?$basic_string@DU?$char_traits@D@std@@V?$allocator@D@2@@std@@@2@U?$equal_to@V?$basic_string@DU?$char_traits@D@std@@V?$allocator@D@2@@std@@@2@@2@V?$allocator@U?$pair@$$CBV?$basic_string@DU?$char_traits@D@std@@V?$allocator@D@2@@std@@P6AHH@Z@std@@@2@$0A@@std@@@std@@IBEABMXZ 100844a0 f i SequenceProxy.obj
 0002:000354d0       ?_Myend@?$_Vector_alloc@U?$_Vec_base_types@PAVRecvProp@@V?$allocator@PAVRecvProp@@@std@@@std@@@std@@QAEAAPAPAVRecvProp@@XZ 100844d0 f i SequenceProxy.obj
 0002:00035500       ?_Myend@?$_Vector_alloc@U?$_Vec_base_types@PAVRecvProp@@V?$allocator@PAVRecvProp@@@std@@@std@@@std@@QBEABQAPAVRecvProp@@XZ 10084500 f i SequenceProxy.obj
 0002:00035530       ?_Myend@?$_Vector_alloc@U?$_Vec_base_types@Unetvar_table@NetvarSys@@V?$allocator@Unetvar_table@NetvarSys@@@std@@@std@@@std@@QAEAAPAUnetvar_table@NetvarSys@@XZ 10084530 f i SequenceProxy.obj
 0002:00035560       ?_Myend@?$_Vector_alloc@U?$_Vec_base_types@Unetvar_table@NetvarSys@@V?$allocator@Unetvar_table@NetvarSys@@@std@@@std@@@std@@QBEABQAUnetvar_table@NetvarSys@@XZ 10084560 f i SequenceProxy.obj
 0002:00035590       ?_Myend@?$_Vector_alloc@U?$_Vec_base_types@V?$_List_unchecked_iterator@V?$_List_val@U?$_List_simple_types@U?$pair@$$CBV?$basic_string@DU?$char_traits@D@std@@V?$allocator@D@2@@std@@P6AHH@Z@std@@@std@@@std@@@std@@V?$allocator@V?$_List_unchecked_iterator@V?$_List_val@U?$_List_simple_types@U?$pair@$$CBV?$basic_string@DU?$char_traits@D@std@@V?$allocator@D@2@@std@@P6AHH@Z@std@@@std@@@std@@@std@@@2@@std@@@std@@QAEAAPAV?$_List_unchecked_iterator@V?$_List_val@U?$_List_simple_types@U?$pair@$$CBV?$basic_string@DU?$char_traits@D@std@@V?$allocator@D@2@@std@@P6AHH@Z@std@@@std@@@std@@@2@XZ 10084590 f i SequenceProxy.obj
 0002:000355c0       ?_Myend@?$_Vector_alloc@U?$_Vec_base_types@V?$_List_unchecked_iterator@V?$_List_val@U?$_List_simple_types@U?$pair@$$CBV?$basic_string@DU?$char_traits@D@std@@V?$allocator@D@2@@std@@P6AHH@Z@std@@@std@@@std@@@std@@V?$allocator@V?$_List_unchecked_iterator@V?$_List_val@U?$_List_simple_types@U?$pair@$$CBV?$basic_string@DU?$char_traits@D@std@@V?$allocator@D@2@@std@@P6AHH@Z@std@@@std@@@std@@@std@@@2@@std@@@std@@QBEABQAV?$_List_unchecked_iterator@V?$_List_val@U?$_List_simple_types@U?$pair@$$CBV?$basic_string@DU?$char_traits@D@std@@V?$allocator@D@2@@std@@P6AHH@Z@std@@@std@@@std@@@2@XZ 100845c0 f i SequenceProxy.obj
 0002:000355f0       ?_Myfirst@?$_Vector_alloc@U?$_Vec_base_types@PAVRecvProp@@V?$allocator@PAVRecvProp@@@std@@@std@@@std@@QAEAAPAPAVRecvProp@@XZ 100845f0 f i SequenceProxy.obj
 0002:00035620       ?_Myfirst@?$_Vector_alloc@U?$_Vec_base_types@PAVRecvProp@@V?$allocator@PAVRecvProp@@@std@@@std@@@std@@QBEABQAPAVRecvProp@@XZ 10084620 f i SequenceProxy.obj
 0002:00035650       ?_Myfirst@?$_Vector_alloc@U?$_Vec_base_types@Unetvar_table@NetvarSys@@V?$allocator@Unetvar_table@NetvarSys@@@std@@@std@@@std@@QAEAAPAUnetvar_table@NetvarSys@@XZ 10084650 f i SequenceProxy.obj
 0002:00035680       ?_Myfirst@?$_Vector_alloc@U?$_Vec_base_types@Unetvar_table@NetvarSys@@V?$allocator@Unetvar_table@NetvarSys@@@std@@@std@@@std@@QBEABQAUnetvar_table@NetvarSys@@XZ 10084680 f i SequenceProxy.obj
 0002:000356b0       ?_Myfirst@?$_Vector_alloc@U?$_Vec_base_types@V?$_List_unchecked_iterator@V?$_List_val@U?$_List_simple_types@U?$pair@$$CBV?$basic_string@DU?$char_traits@D@std@@V?$allocator@D@2@@std@@P6AHH@Z@std@@@std@@@std@@@std@@V?$allocator@V?$_List_unchecked_iterator@V?$_List_val@U?$_List_simple_types@U?$pair@$$CBV?$basic_string@DU?$char_traits@D@std@@V?$allocator@D@2@@std@@P6AHH@Z@std@@@std@@@std@@@std@@@2@@std@@@std@@QAEAAPAV?$_List_unchecked_iterator@V?$_List_val@U?$_List_simple_types@U?$pair@$$CBV?$basic_string@DU?$char_traits@D@std@@V?$allocator@D@2@@std@@P6AHH@Z@std@@@std@@@std@@@2@XZ 100846b0 f i SequenceProxy.obj
 0002:000356e0       ?_Myfirst@?$_Vector_alloc@U?$_Vec_base_types@V?$_List_unchecked_iterator@V?$_List_val@U?$_List_simple_types@U?$pair@$$CBV?$basic_string@DU?$char_traits@D@std@@V?$allocator@D@2@@std@@P6AHH@Z@std@@@std@@@std@@@std@@V?$allocator@V?$_List_unchecked_iterator@V?$_List_val@U?$_List_simple_types@U?$pair@$$CBV?$basic_string@DU?$char_traits@D@std@@V?$allocator@D@2@@std@@P6AHH@Z@std@@@std@@@std@@@std@@@2@@std@@@std@@QBEABQAV?$_List_unchecked_iterator@V?$_List_val@U?$_List_simple_types@U?$pair@$$CBV?$basic_string@DU?$char_traits@D@std@@V?$allocator@D@2@@std@@P6AHH@Z@std@@@std@@@std@@@2@XZ 100846e0 f i SequenceProxy.obj
 0002:00035710       ?_Myhead@?$_List_alloc@U?$_List_base_types@U?$pair@$$CBV?$basic_string@DU?$char_traits@D@std@@V?$allocator@D@2@@std@@P6AHH@Z@std@@V?$allocator@U?$pair@$$CBV?$basic_string@DU?$char_traits@D@std@@V?$allocator@D@2@@std@@P6AHH@Z@std@@@2@@std@@@std@@QAEAAPAU?$_List_node@U?$pair@$$CBV?$basic_string@DU?$char_traits@D@std@@V?$allocator@D@2@@std@@P6AHH@Z@std@@PAX@2@XZ 10084710 f i SequenceProxy.obj
 0002:00035740       ?_Myhead@?$_List_alloc@U?$_List_base_types@U?$pair@$$CBV?$basic_string@DU?$char_traits@D@std@@V?$allocator@D@2@@std@@P6AHH@Z@std@@V?$allocator@U?$pair@$$CBV?$basic_string@DU?$char_traits@D@std@@V?$allocator@D@2@@std@@P6AHH@Z@std@@@2@@std@@@std@@QBEABQAU?$_List_node@U?$pair@$$CBV?$basic_string@DU?$char_traits@D@std@@V?$allocator@D@2@@std@@P6AHH@Z@std@@PAX@2@XZ 10084740 f i SequenceProxy.obj
 0002:00035770       ?_Mylast@?$_Vector_alloc@U?$_Vec_base_types@PAVRecvProp@@V?$allocator@PAVRecvProp@@@std@@@std@@@std@@QAEAAPAPAVRecvProp@@XZ 10084770 f i SequenceProxy.obj
 0002:000357a0       ?_Mylast@?$_Vector_alloc@U?$_Vec_base_types@Unetvar_table@NetvarSys@@V?$allocator@Unetvar_table@NetvarSys@@@std@@@std@@@std@@QAEAAPAUnetvar_table@NetvarSys@@XZ 100847a0 f i SequenceProxy.obj
 0002:000357d0       ?_Mylast@?$_Vector_alloc@U?$_Vec_base_types@V?$_List_unchecked_iterator@V?$_List_val@U?$_List_simple_types@U?$pair@$$CBV?$basic_string@DU?$char_traits@D@std@@V?$allocator@D@2@@std@@P6AHH@Z@std@@@std@@@std@@@std@@V?$allocator@V?$_List_unchecked_iterator@V?$_List_val@U?$_List_simple_types@U?$pair@$$CBV?$basic_string@DU?$char_traits@D@std@@V?$allocator@D@2@@std@@P6AHH@Z@std@@@std@@@std@@@std@@@2@@std@@@std@@QAEAAPAV?$_List_unchecked_iterator@V?$_List_val@U?$_List_simple_types@U?$pair@$$CBV?$basic_string@DU?$char_traits@D@std@@V?$allocator@D@2@@std@@P6AHH@Z@std@@@std@@@std@@@2@XZ 100847d0 f i SequenceProxy.obj
 0002:00035800       ?_Mylast@?$_Vector_alloc@U?$_Vec_base_types@V?$_List_unchecked_iterator@V?$_List_val@U?$_List_simple_types@U?$pair@$$CBV?$basic_string@DU?$char_traits@D@std@@V?$allocator@D@2@@std@@P6AHH@Z@std@@@std@@@std@@@std@@V?$allocator@V?$_List_unchecked_iterator@V?$_List_val@U?$_List_simple_types@U?$pair@$$CBV?$basic_string@DU?$char_traits@D@std@@V?$allocator@D@2@@std@@P6AHH@Z@std@@@std@@@std@@@std@@@2@@std@@@std@@QBEABQAV?$_List_unchecked_iterator@V?$_List_val@U?$_List_simple_types@U?$pair@$$CBV?$basic_string@DU?$char_traits@D@std@@V?$allocator@D@2@@std@@P6AHH@Z@std@@@std@@@std@@@2@XZ 10084800 f i SequenceProxy.obj
 0002:00035830       ?_Mysize@?$_List_alloc@U?$_List_base_types@U?$pair@$$CBV?$basic_string@DU?$char_traits@D@std@@V?$allocator@D@2@@std@@P6AHH@Z@std@@V?$allocator@U?$pair@$$CBV?$basic_string@DU?$char_traits@D@std@@V?$allocator@D@2@@std@@P6AHH@Z@std@@@2@@std@@@std@@QAEAAIXZ 10084830 f i SequenceProxy.obj
 0002:00035860       ?_Mysize@?$_List_alloc@U?$_List_base_types@U?$pair@$$CBV?$basic_string@DU?$char_traits@D@std@@V?$allocator@D@2@@std@@P6AHH@Z@std@@V?$allocator@U?$pair@$$CBV?$basic_string@DU?$char_traits@D@std@@V?$allocator@D@2@@std@@P6AHH@Z@std@@@2@@std@@@std@@QBEABIXZ 10084860 f i SequenceProxy.obj
 0002:00035890       ?_Orphan_all@?$_Vector_alloc@U?$_Vec_base_types@PAVRecvProp@@V?$allocator@PAVRecvProp@@@std@@@std@@@std@@QAEXXZ 10084890 f i SequenceProxy.obj
 0002:000358c0       ?_Orphan_all@?$_Vector_alloc@U?$_Vec_base_types@Unetvar_table@NetvarSys@@V?$allocator@Unetvar_table@NetvarSys@@@std@@@std@@@std@@QAEXXZ 100848c0 f i SequenceProxy.obj
 0002:000358f0       ?_Orphan_all@?$_Vector_alloc@U?$_Vec_base_types@V?$_List_unchecked_iterator@V?$_List_val@U?$_List_simple_types@U?$pair@$$CBV?$basic_string@DU?$char_traits@D@std@@V?$allocator@D@2@@std@@P6AHH@Z@std@@@std@@@std@@@std@@V?$allocator@V?$_List_unchecked_iterator@V?$_List_val@U?$_List_simple_types@U?$pair@$$CBV?$basic_string@DU?$char_traits@D@std@@V?$allocator@D@2@@std@@P6AHH@Z@std@@@std@@@std@@@std@@@2@@std@@@std@@QAEXXZ 100848f0 f i SequenceProxy.obj
 0002:00035920       ?_Reallocate_exactly@?$vector@V?$_List_unchecked_iterator@V?$_List_val@U?$_List_simple_types@U?$pair@$$CBV?$basic_string@DU?$char_traits@D@std@@V?$allocator@D@2@@std@@P6AHH@Z@std@@@std@@@std@@@std@@V?$allocator@V?$_List_unchecked_iterator@V?$_List_val@U?$_List_simple_types@U?$pair@$$CBV?$basic_string@DU?$char_traits@D@std@@V?$allocator@D@2@@std@@P6AHH@Z@std@@@std@@@std@@@std@@@2@@std@@AAEXI@Z 10084920 f i SequenceProxy.obj
 0002:00035a30       ?_Reinsert@?$_Hash@V?$_Umap_traits@V?$basic_string@DU?$char_traits@D@std@@V?$allocator@D@2@@std@@P6AHH@ZV?$_Uhash_compare@V?$basic_string@DU?$char_traits@D@std@@V?$allocator@D@2@@std@@U?$hash@V?$basic_string@DU?$char_traits@D@std@@V?$allocator@D@2@@std@@@2@U?$equal_to@V?$basic_string@DU?$char_traits@D@std@@V?$allocator@D@2@@std@@@2@@2@V?$allocator@U?$pair@$$CBV?$basic_string@DU?$char_traits@D@std@@V?$allocator@D@2@@std@@P6AHH@Z@std@@@2@$0A@@std@@@std@@IAEXXZ 10084a30 f i SequenceProxy.obj
 0002:00035b10       ?_Tidy@?$list@U?$pair@$$CBV?$basic_string@DU?$char_traits@D@std@@V?$allocator@D@2@@std@@P6AHH@Z@std@@V?$allocator@U?$pair@$$CBV?$basic_string@DU?$char_traits@D@std@@V?$allocator@D@2@@std@@P6AHH@Z@std@@@2@@std@@QAEXXZ 10084b10 f i SequenceProxy.obj
 0002:00035b40       ?_Tidy@?$vector@PAVRecvProp@@V?$allocator@PAVRecvProp@@@std@@@std@@AAEXXZ 10084b40 f i SequenceProxy.obj
 0002:00035c00       ?_Tidy@?$vector@Unetvar_table@NetvarSys@@V?$allocator@Unetvar_table@NetvarSys@@@std@@@std@@AAEXXZ 10084c00 f i SequenceProxy.obj
 0002:00035cc0       ?_Tidy@?$vector@V?$_List_unchecked_iterator@V?$_List_val@U?$_List_simple_types@U?$pair@$$CBV?$basic_string@DU?$char_traits@D@std@@V?$allocator@D@2@@std@@P6AHH@Z@std@@@std@@@std@@@std@@V?$allocator@V?$_List_unchecked_iterator@V?$_List_val@U?$_List_simple_types@U?$pair@$$CBV?$basic_string@DU?$char_traits@D@std@@V?$allocator@D@2@@std@@P6AHH@Z@std@@@std@@@std@@@std@@@2@@std@@AAEXXZ 10084cc0 f i SequenceProxy.obj
 0002:00035d80       ?_Ufill@?$vector@V?$_List_unchecked_iterator@V?$_List_val@U?$_List_simple_types@U?$pair@$$CBV?$basic_string@DU?$char_traits@D@std@@V?$allocator@D@2@@std@@P6AHH@Z@std@@@std@@@std@@@std@@V?$allocator@V?$_List_unchecked_iterator@V?$_List_val@U?$_List_simple_types@U?$pair@$$CBV?$basic_string@DU?$char_traits@D@std@@V?$allocator@D@2@@std@@P6AHH@Z@std@@@std@@@std@@@std@@@2@@std@@AAEPAV?$_List_unchecked_iterator@V?$_List_val@U?$_List_simple_types@U?$pair@$$CBV?$basic_string@DU?$char_traits@D@std@@V?$allocator@D@2@@std@@P6AHH@Z@std@@@std@@@std@@@2@PAV32@IABV32@@Z 10084d80 f i SequenceProxy.obj
 0002:00035dc0       ?_Umove_if_noexcept1@?$vector@V?$_List_unchecked_iterator@V?$_List_val@U?$_List_simple_types@U?$pair@$$CBV?$basic_string@DU?$char_traits@D@std@@V?$allocator@D@2@@std@@P6AHH@Z@std@@@std@@@std@@@std@@V?$allocator@V?$_List_unchecked_iterator@V?$_List_val@U?$_List_simple_types@U?$pair@$$CBV?$basic_string@DU?$char_traits@D@std@@V?$allocator@D@2@@std@@P6AHH@Z@std@@@std@@@std@@@std@@@2@@std@@AAEXPAV?$_List_unchecked_iterator@V?$_List_val@U?$_List_simple_types@U?$pair@$$CBV?$basic_string@DU?$char_traits@D@std@@V?$allocator@D@2@@std@@P6AHH@Z@std@@@std@@@std@@@2@00U?$integral_constant@_N$00@2@@Z 10084dc0 f i SequenceProxy.obj
 0002:00035e00       ?_Umove_if_noexcept@?$vector@V?$_List_unchecked_iterator@V?$_List_val@U?$_List_simple_types@U?$pair@$$CBV?$basic_string@DU?$char_traits@D@std@@V?$allocator@D@2@@std@@P6AHH@Z@std@@@std@@@std@@@std@@V?$allocator@V?$_List_unchecked_iterator@V?$_List_val@U?$_List_simple_types@U?$pair@$$CBV?$basic_string@DU?$char_traits@D@std@@V?$allocator@D@2@@std@@P6AHH@Z@std@@@std@@@std@@@std@@@2@@std@@AAEXPAV?$_List_unchecked_iterator@V?$_List_val@U?$_List_simple_types@U?$pair@$$CBV?$basic_string@DU?$char_traits@D@std@@V?$allocator@D@2@@std@@P6AHH@Z@std@@@std@@@std@@@2@00@Z 10084e00 f i SequenceProxy.obj
 0002:00035e40       ?_Unchecked_begin@?$_Hash@V?$_Umap_traits@V?$basic_string@DU?$char_traits@D@std@@V?$allocator@D@2@@std@@P6AHH@ZV?$_Uhash_compare@V?$basic_string@DU?$char_traits@D@std@@V?$allocator@D@2@@std@@U?$hash@V?$basic_string@DU?$char_traits@D@std@@V?$allocator@D@2@@std@@@2@U?$equal_to@V?$basic_string@DU?$char_traits@D@std@@V?$allocator@D@2@@std@@@2@@2@V?$allocator@U?$pair@$$CBV?$basic_string@DU?$char_traits@D@std@@V?$allocator@D@2@@std@@P6AHH@Z@std@@@2@$0A@@std@@@std@@QAE?AV?$_List_unchecked_iterator@V?$_List_val@U?$_List_simple_types@U?$pair@$$CBV?$basic_string@DU?$char_traits@D@std@@V?$allocator@D@2@@std@@P6AHH@Z@std@@@std@@@std@@@2@XZ 10084e40 f i SequenceProxy.obj
 0002:00035e70       ?_Unchecked_begin@?$list@U?$pair@$$CBV?$basic_string@DU?$char_traits@D@std@@V?$allocator@D@2@@std@@P6AHH@Z@std@@V?$allocator@U?$pair@$$CBV?$basic_string@DU?$char_traits@D@std@@V?$allocator@D@2@@std@@P6AHH@Z@std@@@2@@std@@QAE?AV?$_List_unchecked_iterator@V?$_List_val@U?$_List_simple_types@U?$pair@$$CBV?$basic_string@DU?$char_traits@D@std@@V?$allocator@D@2@@std@@P6AHH@Z@std@@@std@@@std@@@2@XZ 10084e70 f i SequenceProxy.obj
 0002:00035eb0       ?_Unchecked_end@?$_Hash@V?$_Umap_traits@V?$basic_string@DU?$char_traits@D@std@@V?$allocator@D@2@@std@@P6AHH@ZV?$_Uhash_compare@V?$basic_string@DU?$char_traits@D@std@@V?$allocator@D@2@@std@@U?$hash@V?$basic_string@DU?$char_traits@D@std@@V?$allocator@D@2@@std@@@2@U?$equal_to@V?$basic_string@DU?$char_traits@D@std@@V?$allocator@D@2@@std@@@2@@2@V?$allocator@U?$pair@$$CBV?$basic_string@DU?$char_traits@D@std@@V?$allocator@D@2@@std@@P6AHH@Z@std@@@2@$0A@@std@@@std@@QAE?AV?$_List_unchecked_iterator@V?$_List_val@U?$_List_simple_types@U?$pair@$$CBV?$basic_string@DU?$char_traits@D@std@@V?$allocator@D@2@@std@@P6AHH@Z@std@@@std@@@std@@@2@XZ 10084eb0 f i SequenceProxy.obj
 0002:00035ee0       ?_Unchecked_end@?$_Hash@V?$_Umap_traits@V?$basic_string@DU?$char_traits@D@std@@V?$allocator@D@2@@std@@P6AHH@ZV?$_Uhash_compare@V?$basic_string@DU?$char_traits@D@std@@V?$allocator@D@2@@std@@U?$hash@V?$basic_string@DU?$char_traits@D@std@@V?$allocator@D@2@@std@@@2@U?$equal_to@V?$basic_string@DU?$char_traits@D@std@@V?$allocator@D@2@@std@@@2@@2@V?$allocator@U?$pair@$$CBV?$basic_string@DU?$char_traits@D@std@@V?$allocator@D@2@@std@@P6AHH@Z@std@@@2@$0A@@std@@@std@@QBE?AV?$_List_unchecked_const_iterator@V?$_List_val@U?$_List_simple_types@U?$pair@$$CBV?$basic_string@DU?$char_traits@D@std@@V?$allocator@D@2@@std@@P6AHH@Z@std@@@std@@@std@@U_Iterator_base0@2@@2@XZ 10084ee0 f i SequenceProxy.obj
 0002:00035f10       ?_Unchecked_end@?$list@U?$pair@$$CBV?$basic_string@DU?$char_traits@D@std@@V?$allocator@D@2@@std@@P6AHH@Z@std@@V?$allocator@U?$pair@$$CBV?$basic_string@DU?$char_traits@D@std@@V?$allocator@D@2@@std@@P6AHH@Z@std@@@2@@std@@QAE?AV?$_List_unchecked_iterator@V?$_List_val@U?$_List_simple_types@U?$pair@$$CBV?$basic_string@DU?$char_traits@D@std@@V?$allocator@D@2@@std@@P6AHH@Z@std@@@std@@@std@@@2@XZ 10084f10 f i SequenceProxy.obj
 0002:00035f50       ?_Unchecked_end@?$list@U?$pair@$$CBV?$basic_string@DU?$char_traits@D@std@@V?$allocator@D@2@@std@@P6AHH@Z@std@@V?$allocator@U?$pair@$$CBV?$basic_string@DU?$char_traits@D@std@@V?$allocator@D@2@@std@@P6AHH@Z@std@@@2@@std@@QBE?AV?$_List_unchecked_const_iterator@V?$_List_val@U?$_List_simple_types@U?$pair@$$CBV?$basic_string@DU?$char_traits@D@std@@V?$allocator@D@2@@std@@P6AHH@Z@std@@@std@@@std@@U_Iterator_base0@2@@2@XZ 10084f50 f i SequenceProxy.obj
 0002:00035f90       ?_Unchecked_splice@?$list@U?$pair@$$CBV?$basic_string@DU?$char_traits@D@std@@V?$allocator@D@2@@std@@P6AHH@Z@std@@V?$allocator@U?$pair@$$CBV?$basic_string@DU?$char_traits@D@std@@V?$allocator@D@2@@std@@P6AHH@Z@std@@@2@@std@@QAEXV?$_List_unchecked_const_iterator@V?$_List_val@U?$_List_simple_types@U?$pair@$$CBV?$basic_string@DU?$char_traits@D@std@@V?$allocator@D@2@@std@@P6AHH@Z@std@@@std@@@std@@U_Iterator_base0@2@@2@00@Z 10084f90 f i SequenceProxy.obj
 0002:00036010       ?_Unlinknode@?$list@U?$pair@$$CBV?$basic_string@DU?$char_traits@D@std@@V?$allocator@D@2@@std@@P6AHH@Z@std@@V?$allocator@U?$pair@$$CBV?$basic_string@DU?$char_traits@D@std@@V?$allocator@D@2@@std@@P6AHH@Z@std@@@2@@std@@QAEPAU?$_List_node@U?$pair@$$CBV?$basic_string@DU?$char_traits@D@std@@V?$allocator@D@2@@std@@P6AHH@Z@std@@PAX@2@V?$_List_const_iterator@V?$_List_val@U?$_List_simple_types@U?$pair@$$CBV?$basic_string@DU?$char_traits@D@std@@V?$allocator@D@2@@std@@P6AHH@Z@std@@@std@@@std@@@2@@Z 10085010 f i SequenceProxy.obj
 0002:00036080       ?_Vec_hi@?$_Hash@V?$_Umap_traits@V?$basic_string@DU?$char_traits@D@std@@V?$allocator@D@2@@std@@P6AHH@ZV?$_Uhash_compare@V?$basic_string@DU?$char_traits@D@std@@V?$allocator@D@2@@std@@U?$hash@V?$basic_string@DU?$char_traits@D@std@@V?$allocator@D@2@@std@@@2@U?$equal_to@V?$basic_string@DU?$char_traits@D@std@@V?$allocator@D@2@@std@@@2@@2@V?$allocator@U?$pair@$$CBV?$basic_string@DU?$char_traits@D@std@@V?$allocator@D@2@@std@@P6AHH@Z@std@@@2@$0A@@std@@@std@@IAEAAV?$_List_unchecked_iterator@V?$_List_val@U?$_List_simple_types@U?$pair@$$CBV?$basic_string@DU?$char_traits@D@std@@V?$allocator@D@2@@std@@P6AHH@Z@std@@@std@@@std@@@2@I@Z 10085080 f i SequenceProxy.obj
 0002:000360c0       ?_Vec_hi@?$_Hash@V?$_Umap_traits@V?$basic_string@DU?$char_traits@D@std@@V?$allocator@D@2@@std@@P6AHH@ZV?$_Uhash_compare@V?$basic_string@DU?$char_traits@D@std@@V?$allocator@D@2@@std@@U?$hash@V?$basic_string@DU?$char_traits@D@std@@V?$allocator@D@2@@std@@@2@U?$equal_to@V?$basic_string@DU?$char_traits@D@std@@V?$allocator@D@2@@std@@@2@@2@V?$allocator@U?$pair@$$CBV?$basic_string@DU?$char_traits@D@std@@V?$allocator@D@2@@std@@P6AHH@Z@std@@@2@$0A@@std@@@std@@IBEAAV?$_List_unchecked_const_iterator@V?$_List_val@U?$_List_simple_types@U?$pair@$$CBV?$basic_string@DU?$char_traits@D@std@@V?$allocator@D@2@@std@@P6AHH@Z@std@@@std@@@std@@U_Iterator_base0@2@@2@I@Z 100850c0 f i SequenceProxy.obj
 0002:00036100       ?_Vec_lo@?$_Hash@V?$_Umap_traits@V?$basic_string@DU?$char_traits@D@std@@V?$allocator@D@2@@std@@P6AHH@ZV?$_Uhash_compare@V?$basic_string@DU?$char_traits@D@std@@V?$allocator@D@2@@std@@U?$hash@V?$basic_string@DU?$char_traits@D@std@@V?$allocator@D@2@@std@@@2@U?$equal_to@V?$basic_string@DU?$char_traits@D@std@@V?$allocator@D@2@@std@@@2@@2@V?$allocator@U?$pair@$$CBV?$basic_string@DU?$char_traits@D@std@@V?$allocator@D@2@@std@@P6AHH@Z@std@@@2@$0A@@std@@@std@@IAEAAV?$_List_unchecked_iterator@V?$_List_val@U?$_List_simple_types@U?$pair@$$CBV?$basic_string@DU?$char_traits@D@std@@V?$allocator@D@2@@std@@P6AHH@Z@std@@@std@@@std@@@2@I@Z 10085100 f i SequenceProxy.obj
 0002:00036130       ?_Vec_lo@?$_Hash@V?$_Umap_traits@V?$basic_string@DU?$char_traits@D@std@@V?$allocator@D@2@@std@@P6AHH@ZV?$_Uhash_compare@V?$basic_string@DU?$char_traits@D@std@@V?$allocator@D@2@@std@@U?$hash@V?$basic_string@DU?$char_traits@D@std@@V?$allocator@D@2@@std@@@2@U?$equal_to@V?$basic_string@DU?$char_traits@D@std@@V?$allocator@D@2@@std@@@2@@2@V?$allocator@U?$pair@$$CBV?$basic_string@DU?$char_traits@D@std@@V?$allocator@D@2@@std@@P6AHH@Z@std@@@2@$0A@@std@@@std@@IBEAAV?$_List_unchecked_const_iterator@V?$_List_val@U?$_List_simple_types@U?$pair@$$CBV?$basic_string@DU?$char_traits@D@std@@V?$allocator@D@2@@std@@P6AHH@Z@std@@@std@@@std@@U_Iterator_base0@2@@2@I@Z 10085130 f i SequenceProxy.obj
 0002:00036160       ?_Xlength@?$vector@V?$_List_unchecked_iterator@V?$_List_val@U?$_List_simple_types@U?$pair@$$CBV?$basic_string@DU?$char_traits@D@std@@V?$allocator@D@2@@std@@P6AHH@Z@std@@@std@@@std@@@std@@V?$allocator@V?$_List_unchecked_iterator@V?$_List_val@U?$_List_simple_types@U?$pair@$$CBV?$basic_string@DU?$char_traits@D@std@@V?$allocator@D@2@@std@@P6AHH@Z@std@@@std@@@std@@@std@@@2@@std@@CAXXZ 10085160 f i SequenceProxy.obj
 0002:00036180       ?__autoclassinit2@?$_List_const_iterator@V?$_List_val@U?$_List_simple_types@U?$pair@$$CBV?$basic_string@DU?$char_traits@D@std@@V?$allocator@D@2@@std@@P6AHH@Z@std@@@std@@@std@@@std@@QAEXI@Z 10085180 f i SequenceProxy.obj
 0002:000361b0       ?__autoclassinit2@?$_List_unchecked_const_iterator@V?$_List_val@U?$_List_simple_types@U?$pair@$$CBV?$basic_string@DU?$char_traits@D@std@@V?$allocator@D@2@@std@@P6AHH@Z@std@@@std@@@std@@U_Iterator_base0@2@@std@@QAEXI@Z 100851b0 f i SequenceProxy.obj
 0002:000361e0       ?__autoclassinit2@?$_List_unchecked_iterator@V?$_List_val@U?$_List_simple_types@U?$pair@$$CBV?$basic_string@DU?$char_traits@D@std@@V?$allocator@D@2@@std@@P6AHH@Z@std@@@std@@@std@@@std@@QAEXI@Z 100851e0 f i SequenceProxy.obj
 0002:00036210       ?__autoclassinit2@?$unordered_map@V?$basic_string@DU?$char_traits@D@std@@V?$allocator@D@2@@std@@P6AHH@ZU?$hash@V?$basic_string@DU?$char_traits@D@std@@V?$allocator@D@2@@std@@@2@U?$equal_to@V?$basic_string@DU?$char_traits@D@std@@V?$allocator@D@2@@std@@@2@V?$allocator@U?$pair@$$CBV?$basic_string@DU?$char_traits@D@std@@V?$allocator@D@2@@std@@P6AHH@Z@std@@@2@@std@@QAEXI@Z 10085210 f i SequenceProxy.obj
 0002:00036240       ?__autoclassinit2@NetvarSys@@QAEXI@Z 10085240 f i SequenceProxy.obj
 0002:00036270       ?allocate@?$allocator@U?$_List_node@U?$pair@$$CBV?$basic_string@DU?$char_traits@D@std@@V?$allocator@D@2@@std@@P6AHH@Z@std@@PAX@std@@@std@@QAEPAU?$_List_node@U?$pair@$$CBV?$basic_string@DU?$char_traits@D@std@@V?$allocator@D@2@@std@@P6AHH@Z@std@@PAX@2@I@Z 10085270 f i SequenceProxy.obj
 0002:000362b0       ?allocate@?$allocator@V?$_List_unchecked_iterator@V?$_List_val@U?$_List_simple_types@U?$pair@$$CBV?$basic_string@DU?$char_traits@D@std@@V?$allocator@D@2@@std@@P6AHH@Z@std@@@std@@@std@@@std@@@std@@QAEPAV?$_List_unchecked_iterator@V?$_List_val@U?$_List_simple_types@U?$pair@$$CBV?$basic_string@DU?$char_traits@D@std@@V?$allocator@D@2@@std@@P6AHH@Z@std@@@std@@@std@@@2@I@Z 100852b0 f i SequenceProxy.obj
 0002:000362f0       ?assign@?$vector@V?$_List_unchecked_iterator@V?$_List_val@U?$_List_simple_types@U?$pair@$$CBV?$basic_string@DU?$char_traits@D@std@@V?$allocator@D@2@@std@@P6AHH@Z@std@@@std@@@std@@@std@@V?$allocator@V?$_List_unchecked_iterator@V?$_List_val@U?$_List_simple_types@U?$pair@$$CBV?$basic_string@DU?$char_traits@D@std@@V?$allocator@D@2@@std@@P6AHH@Z@std@@@std@@@std@@@std@@@2@@std@@QAEXIABV?$_List_unchecked_iterator@V?$_List_val@U?$_List_simple_types@U?$pair@$$CBV?$basic_string@DU?$char_traits@D@std@@V?$allocator@D@2@@std@@P6AHH@Z@std@@@std@@@std@@@2@@Z 100852f0 f i SequenceProxy.obj
 0002:000364e0       ?at@?$unordered_map@V?$basic_string@DU?$char_traits@D@std@@V?$allocator@D@2@@std@@P6AHH@ZU?$hash@V?$basic_string@DU?$char_traits@D@std@@V?$allocator@D@2@@std@@@2@U?$equal_to@V?$basic_string@DU?$char_traits@D@std@@V?$allocator@D@2@@std@@@2@V?$allocator@U?$pair@$$CBV?$basic_string@DU?$char_traits@D@std@@V?$allocator@D@2@@std@@P6AHH@Z@std@@@2@@std@@QBEABQ6AHH@ZABV?$basic_string@DU?$char_traits@D@std@@V?$allocator@D@2@@2@@Z 100854e0 f i SequenceProxy.obj
 0002:00036580       ?begin@?$initializer_list@U?$pair@$$CBV?$basic_string@DU?$char_traits@D@std@@V?$allocator@D@2@@std@@P6AHH@Z@std@@@std@@QBEPBU?$pair@$$CBV?$basic_string@DU?$char_traits@D@std@@V?$allocator@D@2@@std@@P6AHH@Z@2@XZ 10085580 f i SequenceProxy.obj
 0002:000365a0       ?begin@?$list@U?$pair@$$CBV?$basic_string@DU?$char_traits@D@std@@V?$allocator@D@2@@std@@P6AHH@Z@std@@V?$allocator@U?$pair@$$CBV?$basic_string@DU?$char_traits@D@std@@V?$allocator@D@2@@std@@P6AHH@Z@std@@@2@@std@@QAE?AV?$_List_iterator@V?$_List_val@U?$_List_simple_types@U?$pair@$$CBV?$basic_string@DU?$char_traits@D@std@@V?$allocator@D@2@@std@@P6AHH@Z@std@@@std@@@std@@@2@XZ 100855a0 f i SequenceProxy.obj
 0002:00036630       ?bucket_count@?$_Hash@V?$_Umap_traits@V?$basic_string@DU?$char_traits@D@std@@V?$allocator@D@2@@std@@P6AHH@ZV?$_Uhash_compare@V?$basic_string@DU?$char_traits@D@std@@V?$allocator@D@2@@std@@U?$hash@V?$basic_string@DU?$char_traits@D@std@@V?$allocator@D@2@@std@@@2@U?$equal_to@V?$basic_string@DU?$char_traits@D@std@@V?$allocator@D@2@@std@@@2@@2@V?$allocator@U?$pair@$$CBV?$basic_string@DU?$char_traits@D@std@@V?$allocator@D@2@@std@@P6AHH@Z@std@@@2@$0A@@std@@@std@@QBEIXZ 10085630 f i SequenceProxy.obj
 0002:00036650       ?capacity@?$vector@PAVRecvProp@@V?$allocator@PAVRecvProp@@@std@@@std@@QBEIXZ 10085650 f i SequenceProxy.obj
 0002:00036690       ?capacity@?$vector@Unetvar_table@NetvarSys@@V?$allocator@Unetvar_table@NetvarSys@@@std@@@std@@QBEIXZ 10085690 f i SequenceProxy.obj
 0002:000366d0       ?capacity@?$vector@V?$_List_unchecked_iterator@V?$_List_val@U?$_List_simple_types@U?$pair@$$CBV?$basic_string@DU?$char_traits@D@std@@V?$allocator@D@2@@std@@P6AHH@Z@std@@@std@@@std@@@std@@V?$allocator@V?$_List_unchecked_iterator@V?$_List_val@U?$_List_simple_types@U?$pair@$$CBV?$basic_string@DU?$char_traits@D@std@@V?$allocator@D@2@@std@@P6AHH@Z@std@@@std@@@std@@@std@@@2@@std@@QBEIXZ 100856d0 f i SequenceProxy.obj
 0002:00036710       ?clear@?$list@U?$pair@$$CBV?$basic_string@DU?$char_traits@D@std@@V?$allocator@D@2@@std@@P6AHH@Z@std@@V?$allocator@U?$pair@$$CBV?$basic_string@DU?$char_traits@D@std@@V?$allocator@D@2@@std@@P6AHH@Z@std@@@2@@std@@QAEXXZ 10085710 f i SequenceProxy.obj
 0002:00036800       ?count@?$_Hash@V?$_Umap_traits@V?$basic_string@DU?$char_traits@D@std@@V?$allocator@D@2@@std@@P6AHH@ZV?$_Uhash_compare@V?$basic_string@DU?$char_traits@D@std@@V?$allocator@D@2@@std@@U?$hash@V?$basic_string@DU?$char_traits@D@std@@V?$allocator@D@2@@std@@@2@U?$equal_to@V?$basic_string@DU?$char_traits@D@std@@V?$allocator@D@2@@std@@@2@@2@V?$allocator@U?$pair@$$CBV?$basic_string@DU?$char_traits@D@std@@V?$allocator@D@2@@std@@P6AHH@Z@std@@@2@$0A@@std@@@std@@QBEIABV?$basic_string@DU?$char_traits@D@std@@V?$allocator@D@2@@2@@Z 10085800 f i SequenceProxy.obj
 0002:00036860       ?deallocate@?$_Default_allocator_traits@V?$allocator@U?$_List_node@U?$pair@$$CBV?$basic_string@DU?$char_traits@D@std@@V?$allocator@D@2@@std@@P6AHH@Z@std@@PAX@std@@@std@@@std@@SAXAAV?$allocator@U?$_List_node@U?$pair@$$CBV?$basic_string@DU?$char_traits@D@std@@V?$allocator@D@2@@std@@P6AHH@Z@std@@PAX@std@@@2@QAU?$_List_node@U?$pair@$$CBV?$basic_string@DU?$char_traits@D@std@@V?$allocator@D@2@@std@@P6AHH@Z@std@@PAX@2@I@Z 10085860 f i SequenceProxy.obj
 0002:00036890       ?deallocate@?$allocator@PAVRecvProp@@@std@@QAEXQAPAVRecvProp@@I@Z 10085890 f i SequenceProxy.obj
 0002:000368d0       ?deallocate@?$allocator@U?$_List_node@U?$pair@$$CBV?$basic_string@DU?$char_traits@D@std@@V?$allocator@D@2@@std@@P6AHH@Z@std@@PAX@std@@@std@@QAEXQAU?$_List_node@U?$pair@$$CBV?$basic_string@DU?$char_traits@D@std@@V?$allocator@D@2@@std@@P6AHH@Z@std@@PAX@2@I@Z 100858d0 f i SequenceProxy.obj
 0002:00036900       ?deallocate@?$allocator@Unetvar_table@NetvarSys@@@std@@QAEXQAUnetvar_table@NetvarSys@@I@Z 10085900 f i SequenceProxy.obj
 0002:00036930       ?deallocate@?$allocator@V?$_List_unchecked_iterator@V?$_List_val@U?$_List_simple_types@U?$pair@$$CBV?$basic_string@DU?$char_traits@D@std@@V?$allocator@D@2@@std@@P6AHH@Z@std@@@std@@@std@@@std@@@std@@QAEXQAV?$_List_unchecked_iterator@V?$_List_val@U?$_List_simple_types@U?$pair@$$CBV?$basic_string@DU?$char_traits@D@std@@V?$allocator@D@2@@std@@P6AHH@Z@std@@@std@@@std@@@2@I@Z 10085930 f i SequenceProxy.obj
 0002:00036970       ?end@?$_Hash@V?$_Umap_traits@V?$basic_string@DU?$char_traits@D@std@@V?$allocator@D@2@@std@@P6AHH@ZV?$_Uhash_compare@V?$basic_string@DU?$char_traits@D@std@@V?$allocator@D@2@@std@@U?$hash@V?$basic_string@DU?$char_traits@D@std@@V?$allocator@D@2@@std@@@2@U?$equal_to@V?$basic_string@DU?$char_traits@D@std@@V?$allocator@D@2@@std@@@2@@2@V?$allocator@U?$pair@$$CBV?$basic_string@DU?$char_traits@D@std@@V?$allocator@D@2@@std@@P6AHH@Z@std@@@2@$0A@@std@@@std@@QBE?AV?$_List_const_iterator@V?$_List_val@U?$_List_simple_types@U?$pair@$$CBV?$basic_string@DU?$char_traits@D@std@@V?$allocator@D@2@@std@@P6AHH@Z@std@@@std@@@std@@@2@XZ 10085970 f i SequenceProxy.obj
 0002:000369a0       ?end@?$initializer_list@U?$pair@$$CBV?$basic_string@DU?$char_traits@D@std@@V?$allocator@D@2@@std@@P6AHH@Z@std@@@std@@QBEPBU?$pair@$$CBV?$basic_string@DU?$char_traits@D@std@@V?$allocator@D@2@@std@@P6AHH@Z@2@XZ 100859a0 f i SequenceProxy.obj
 0002:000369c0       ?end@?$list@U?$pair@$$CBV?$basic_string@DU?$char_traits@D@std@@V?$allocator@D@2@@std@@P6AHH@Z@std@@V?$allocator@U?$pair@$$CBV?$basic_string@DU?$char_traits@D@std@@V?$allocator@D@2@@std@@P6AHH@Z@std@@@2@@std@@QBE?AV?$_List_const_iterator@V?$_List_val@U?$_List_simple_types@U?$pair@$$CBV?$basic_string@DU?$char_traits@D@std@@V?$allocator@D@2@@std@@P6AHH@Z@std@@@std@@@std@@@2@XZ 100859c0 f i SequenceProxy.obj
 0002:00036a40       ?equal_range@?$_Hash@V?$_Umap_traits@V?$basic_string@DU?$char_traits@D@std@@V?$allocator@D@2@@std@@P6AHH@ZV?$_Uhash_compare@V?$basic_string@DU?$char_traits@D@std@@V?$allocator@D@2@@std@@U?$hash@V?$basic_string@DU?$char_traits@D@std@@V?$allocator@D@2@@std@@@2@U?$equal_to@V?$basic_string@DU?$char_traits@D@std@@V?$allocator@D@2@@std@@@2@@2@V?$allocator@U?$pair@$$CBV?$basic_string@DU?$char_traits@D@std@@V?$allocator@D@2@@std@@P6AHH@Z@std@@@2@$0A@@std@@@std@@QBE?AU?$pair@V?$_List_const_iterator@V?$_List_val@U?$_List_simple_types@U?$pair@$$CBV?$basic_string@DU?$char_traits@D@std@@V?$allocator@D@2@@std@@P6AHH@Z@std@@@std@@@std@@@std@@V12@@2@ABV?$basic_string@DU?$char_traits@D@std@@V?$allocator@D@2@@2@@Z 10085a40 f i SequenceProxy.obj
 0002:00036c20       ?erase@?$_Hash@V?$_Umap_traits@V?$basic_string@DU?$char_traits@D@std@@V?$allocator@D@2@@std@@P6AHH@ZV?$_Uhash_compare@V?$basic_string@DU?$char_traits@D@std@@V?$allocator@D@2@@std@@U?$hash@V?$basic_string@DU?$char_traits@D@std@@V?$allocator@D@2@@std@@@2@U?$equal_to@V?$basic_string@DU?$char_traits@D@std@@V?$allocator@D@2@@std@@@2@@2@V?$allocator@U?$pair@$$CBV?$basic_string@DU?$char_traits@D@std@@V?$allocator@D@2@@std@@P6AHH@Z@std@@@2@$0A@@std@@@std@@QAE?AV?$_List_iterator@V?$_List_val@U?$_List_simple_types@U?$pair@$$CBV?$basic_string@DU?$char_traits@D@std@@V?$allocator@D@2@@std@@P6AHH@Z@std@@@std@@@std@@@2@V?$_List_const_iterator@V?$_List_val@U?$_List_simple_types@U?$pair@$$CBV?$basic_string@DU?$char_traits@D@std@@V?$allocator@D@2@@std@@P6AHH@Z@std@@@std@@@std@@@2@@Z 10085c20 f i SequenceProxy.obj
 0002:00036ca0       ?erase@?$list@U?$pair@$$CBV?$basic_string@DU?$char_traits@D@std@@V?$allocator@D@2@@std@@P6AHH@Z@std@@V?$allocator@U?$pair@$$CBV?$basic_string@DU?$char_traits@D@std@@V?$allocator@D@2@@std@@P6AHH@Z@std@@@2@@std@@QAE?AV?$_List_iterator@V?$_List_val@U?$_List_simple_types@U?$pair@$$CBV?$basic_string@DU?$char_traits@D@std@@V?$allocator@D@2@@std@@P6AHH@Z@std@@@std@@@std@@@2@V?$_List_const_iterator@V?$_List_val@U?$_List_simple_types@U?$pair@$$CBV?$basic_string@DU?$char_traits@D@std@@V?$allocator@D@2@@std@@P6AHH@Z@std@@@std@@@std@@@2@@Z 10085ca0 f i SequenceProxy.obj
 0002:00036d10       ?front@?$list@U?$pair@$$CBV?$basic_string@DU?$char_traits@D@std@@V?$allocator@D@2@@std@@P6AHH@Z@std@@V?$allocator@U?$pair@$$CBV?$basic_string@DU?$char_traits@D@std@@V?$allocator@D@2@@std@@P6AHH@Z@std@@@2@@std@@QAEAAU?$pair@$$CBV?$basic_string@DU?$char_traits@D@std@@V?$allocator@D@2@@std@@P6AHH@Z@2@XZ 10085d10 f i SequenceProxy.obj
 0002:00036d40       ?hkSequenceProxyFn@Hooks@@YAXPBVCRecvProxyData@@PAX1@Z 10085d40 f   SequenceProxy.obj
 0002:00037010       ?insert@?$_Hash@V?$_Umap_traits@V?$basic_string@DU?$char_traits@D@std@@V?$allocator@D@2@@std@@P6AHH@ZV?$_Uhash_compare@V?$basic_string@DU?$char_traits@D@std@@V?$allocator@D@2@@std@@U?$hash@V?$basic_string@DU?$char_traits@D@std@@V?$allocator@D@2@@std@@@2@U?$equal_to@V?$basic_string@DU?$char_traits@D@std@@V?$allocator@D@2@@std@@@2@@2@V?$allocator@U?$pair@$$CBV?$basic_string@DU?$char_traits@D@std@@V?$allocator@D@2@@std@@P6AHH@Z@std@@@2@$0A@@std@@@std@@QAEXV?$initializer_list@U?$pair@$$CBV?$basic_string@DU?$char_traits@D@std@@V?$allocator@D@2@@std@@P6AHH@Z@std@@@2@@Z 10086010 f i SequenceProxy.obj
 0002:00037050       ?load_factor@?$_Hash@V?$_Umap_traits@V?$basic_string@DU?$char_traits@D@std@@V?$allocator@D@2@@std@@P6AHH@ZV?$_Uhash_compare@V?$basic_string@DU?$char_traits@D@std@@V?$allocator@D@2@@std@@U?$hash@V?$basic_string@DU?$char_traits@D@std@@V?$allocator@D@2@@std@@@2@U?$equal_to@V?$basic_string@DU?$char_traits@D@std@@V?$allocator@D@2@@std@@@2@@2@V?$allocator@U?$pair@$$CBV?$basic_string@DU?$char_traits@D@std@@V?$allocator@D@2@@std@@P6AHH@Z@std@@@2@$0A@@std@@@std@@QBEMXZ 10086050 f i SequenceProxy.obj
 0002:000370f0       ?lower_bound@?$_Hash@V?$_Umap_traits@V?$basic_string@DU?$char_traits@D@std@@V?$allocator@D@2@@std@@P6AHH@ZV?$_Uhash_compare@V?$basic_string@DU?$char_traits@D@std@@V?$allocator@D@2@@std@@U?$hash@V?$basic_string@DU?$char_traits@D@std@@V?$allocator@D@2@@std@@@2@U?$equal_to@V?$basic_string@DU?$char_traits@D@std@@V?$allocator@D@2@@std@@@2@@2@V?$allocator@U?$pair@$$CBV?$basic_string@DU?$char_traits@D@std@@V?$allocator@D@2@@std@@P6AHH@Z@std@@@2@$0A@@std@@@std@@QBE?AV?$_List_const_iterator@V?$_List_val@U?$_List_simple_types@U?$pair@$$CBV?$basic_string@DU?$char_traits@D@std@@V?$allocator@D@2@@std@@P6AHH@Z@std@@@std@@@std@@@2@ABV?$basic_string@DU?$char_traits@D@std@@V?$allocator@D@2@@2@@Z 100860f0 f i SequenceProxy.obj
 0002:00037260       ?m_hOwner@C_BaseViewModel@@QBEAAV?$CHandle@VC_BasePlayer@@@@XZ 10086260 f i SequenceProxy.obj
 0002:00037390       ?m_nModelIndex@C_BaseViewModel@@QBEAAHXZ 10086390 f i SequenceProxy.obj
 0002:000374c0       ?max_load_factor@?$_Hash@V?$_Umap_traits@V?$basic_string@DU?$char_traits@D@std@@V?$allocator@D@2@@std@@P6AHH@ZV?$_Uhash_compare@V?$basic_string@DU?$char_traits@D@std@@V?$allocator@D@2@@std@@U?$hash@V?$basic_string@DU?$char_traits@D@std@@V?$allocator@D@2@@std@@@2@U?$equal_to@V?$basic_string@DU?$char_traits@D@std@@V?$allocator@D@2@@std@@@2@@2@V?$allocator@U?$pair@$$CBV?$basic_string@DU?$char_traits@D@std@@V?$allocator@D@2@@std@@P6AHH@Z@std@@@2@$0A@@std@@@std@@QBEMXZ 100864c0 f i SequenceProxy.obj
 0002:000374f0       ?max_size@?$_Default_allocator_traits@V?$allocator@U?$_List_node@U?$pair@$$CBV?$basic_string@DU?$char_traits@D@std@@V?$allocator@D@2@@std@@P6AHH@Z@std@@PAX@std@@@std@@@std@@SAIABV?$allocator@U?$_List_node@U?$pair@$$CBV?$basic_string@DU?$char_traits@D@std@@V?$allocator@D@2@@std@@P6AHH@Z@std@@PAX@std@@@2@@Z 100864f0 f i SequenceProxy.obj
 0002:00037510       ?max_size@?$_Default_allocator_traits@V?$allocator@V?$_List_unchecked_iterator@V?$_List_val@U?$_List_simple_types@U?$pair@$$CBV?$basic_string@DU?$char_traits@D@std@@V?$allocator@D@2@@std@@P6AHH@Z@std@@@std@@@std@@@std@@@std@@@std@@SAIABV?$allocator@V?$_List_unchecked_iterator@V?$_List_val@U?$_List_simple_types@U?$pair@$$CBV?$basic_string@DU?$char_traits@D@std@@V?$allocator@D@2@@std@@P6AHH@Z@std@@@std@@@std@@@std@@@2@@Z 10086510 f i SequenceProxy.obj
 0002:00037530       ?max_size@?$list@U?$pair@$$CBV?$basic_string@DU?$char_traits@D@std@@V?$allocator@D@2@@std@@P6AHH@Z@std@@V?$allocator@U?$pair@$$CBV?$basic_string@DU?$char_traits@D@std@@V?$allocator@D@2@@std@@P6AHH@Z@std@@@2@@std@@QBEIXZ 10086530 f i SequenceProxy.obj
 0002:00037560       ?max_size@?$vector@V?$_List_unchecked_iterator@V?$_List_val@U?$_List_simple_types@U?$pair@$$CBV?$basic_string@DU?$char_traits@D@std@@V?$allocator@D@2@@std@@P6AHH@Z@std@@@std@@@std@@@std@@V?$allocator@V?$_List_unchecked_iterator@V?$_List_val@U?$_List_simple_types@U?$pair@$$CBV?$basic_string@DU?$char_traits@D@std@@V?$allocator@D@2@@std@@P6AHH@Z@std@@@std@@@std@@@std@@@2@@std@@QBEIXZ 10086560 f i SequenceProxy.obj
 0002:000375c0       ?pointer_to@?$pointer_traits@PBU?$pair@$$CBV?$basic_string@DU?$char_traits@D@std@@V?$allocator@D@2@@std@@P6AHH@Z@std@@@std@@SAPBU?$pair@$$CBV?$basic_string@DU?$char_traits@D@std@@V?$allocator@D@2@@std@@P6AHH@Z@2@ABU32@@Z 100865c0 f i SequenceProxy.obj
 0002:000375f0       ?reserve@?$vector@V?$_List_unchecked_iterator@V?$_List_val@U?$_List_simple_types@U?$pair@$$CBV?$basic_string@DU?$char_traits@D@std@@V?$allocator@D@2@@std@@P6AHH@Z@std@@@std@@@std@@@std@@V?$allocator@V?$_List_unchecked_iterator@V?$_List_val@U?$_List_simple_types@U?$pair@$$CBV?$basic_string@DU?$char_traits@D@std@@V?$allocator@D@2@@std@@P6AHH@Z@std@@@std@@@std@@@std@@@2@@std@@QAEXI@Z 100865f0 f i SequenceProxy.obj
 0002:00037640       ?size@?$_Hash@V?$_Umap_traits@V?$basic_string@DU?$char_traits@D@std@@V?$allocator@D@2@@std@@P6AHH@ZV?$_Uhash_compare@V?$basic_string@DU?$char_traits@D@std@@V?$allocator@D@2@@std@@U?$hash@V?$basic_string@DU?$char_traits@D@std@@V?$allocator@D@2@@std@@@2@U?$equal_to@V?$basic_string@DU?$char_traits@D@std@@V?$allocator@D@2@@std@@@2@@2@V?$allocator@U?$pair@$$CBV?$basic_string@DU?$char_traits@D@std@@V?$allocator@D@2@@std@@P6AHH@Z@std@@@2@$0A@@std@@@std@@QBEIXZ 10086640 f i SequenceProxy.obj
 0002:00037670       ?size@?$list@U?$pair@$$CBV?$basic_string@DU?$char_traits@D@std@@V?$allocator@D@2@@std@@P6AHH@Z@std@@V?$allocator@U?$pair@$$CBV?$basic_string@DU?$char_traits@D@std@@V?$allocator@D@2@@std@@P6AHH@Z@std@@@2@@std@@QBEIXZ 10086670 f i SequenceProxy.obj
 0002:000376a0       ?size@?$vector@V?$_List_unchecked_iterator@V?$_List_val@U?$_List_simple_types@U?$pair@$$CBV?$basic_string@DU?$char_traits@D@std@@V?$allocator@D@2@@std@@P6AHH@Z@std@@@std@@@std@@@std@@V?$allocator@V?$_List_unchecked_iterator@V?$_List_val@U?$_List_simple_types@U?$pair@$$CBV?$basic_string@DU?$char_traits@D@std@@V?$allocator@D@2@@std@@P6AHH@Z@std@@@std@@@std@@@std@@@2@@std@@QBEIXZ 100866a0 f i SequenceProxy.obj
 0002:000376e0       ??$?0$$QAH$$Z$$V@?$pair@$$CBHUWeaponItemCfg_t@@@std@@QAE@Upiecewise_construct_t@1@V?$tuple@$$QAH@1@V?$tuple@$$V@1@@Z 100866e0 f i Skinchanger.obj
 0002:00037720       ??$?0$$V@?$_Compressed_pair@V?$allocator@I@std@@V?$_Deque_val@U?$_Deque_simple_types@I@std@@@2@$00@std@@QAE@U_Zero_then_variadic_args_t@1@@Z 10086720 f i Skinchanger.obj
 0002:00037760       ??$?0$$V@?$_Compressed_pair@V?$allocator@U?$_Tree_node@U?$pair@$$CBV?$basic_string@DU?$char_traits@D@std@@V?$allocator@D@2@@std@@V12@@std@@PAX@std@@@std@@V?$_Tree_val@U?$_Tree_simple_types@U?$pair@$$CBV?$basic_string@DU?$char_traits@D@std@@V?$allocator@D@2@@std@@V12@@std@@@std@@@2@$00@std@@QAE@U_Zero_then_variadic_args_t@1@@Z 10086760 f i Skinchanger.obj
 0002:000377a0       ??$?0$$V@?$_Compressed_pair@V?$allocator@VIterator@JSONInputArchive@cereal@@@std@@V?$_Vector_val@U?$_Simple_types@VIterator@JSONInputArchive@cereal@@@std@@@2@$00@std@@QAE@U_Zero_then_variadic_args_t@1@@Z 100867a0 f i Skinchanger.obj
 0002:000377e0       ??$?0$$V@?$_Compressed_pair@V?$allocator@W4NodeType@JSONOutputArchive@cereal@@@std@@V?$_Deque_val@U?$_Deque_simple_types@W4NodeType@JSONOutputArchive@cereal@@@std@@@2@$00@std@@QAE@U_Zero_then_variadic_args_t@1@@Z 100867e0 f i Skinchanger.obj
 0002:00037820       ??$?0AAU?$equal_to@I@std@@M@?$_Compressed_pair@U?$equal_to@I@std@@M$00@std@@QAE@U_One_then_variadic_args_t@1@AAU?$equal_to@I@1@$$QAM@Z 10086820 f i Skinchanger.obj
 0002:00037870       ??$?0AAU?$equal_to@PBD@std@@M@?$_Compressed_pair@U?$equal_to@PBD@std@@M$00@std@@QAE@U_One_then_variadic_args_t@1@AAU?$equal_to@PBD@1@$$QAM@Z 10086870 f i Skinchanger.obj
 0002:000378c0       ??$?0AAU?$equal_to@PBX@std@@M@?$_Compressed_pair@U?$equal_to@PBX@std@@M$00@std@@QAE@U_One_then_variadic_args_t@1@AAU?$equal_to@PBX@1@$$QAM@Z 100868c0 f i Skinchanger.obj
 0002:00037910       ??$?0AAU?$equal_to@Ubase_class_id@detail@traits@cereal@@@std@@M@?$_Compressed_pair@U?$equal_to@Ubase_class_id@detail@traits@cereal@@@std@@M$00@std@@QAE@U_One_then_variadic_args_t@1@AAU?$equal_to@Ubase_class_id@detail@traits@cereal@@@1@$$QAM@Z 10086910 f i Skinchanger.obj
 0002:00037960       ??$?0AAU?$equal_to@_K@std@@M@?$_Compressed_pair@U?$equal_to@_K@std@@M$00@std@@QAE@U_One_then_variadic_args_t@1@AAU?$equal_to@_K@1@$$QAM@Z 10086960 f i Skinchanger.obj
 0002:000379b0       ??$?0AAU?$hash@I@std@@U_One_then_variadic_args_t@1@AAU?$equal_to@I@1@M@?$_Compressed_pair@U?$hash@I@std@@V?$_Compressed_pair@U?$equal_to@I@std@@M$00@2@$00@std@@QAE@U_One_then_variadic_args_t@1@AAU?$hash@I@1@$$QAU21@AAU?$equal_to@I@1@$$QAM@Z 100869b0 f i Skinchanger.obj
 0002:00037a20       ??$?0AAU?$hash@PBD@std@@U_One_then_variadic_args_t@1@AAU?$equal_to@PBD@1@M@?$_Compressed_pair@U?$hash@PBD@std@@V?$_Compressed_pair@U?$equal_to@PBD@std@@M$00@2@$00@std@@QAE@U_One_then_variadic_args_t@1@AAU?$hash@PBD@1@$$QAU21@AAU?$equal_to@PBD@1@$$QAM@Z 10086a20 f i Skinchanger.obj
 0002:00037a90       ??$?0AAU?$hash@PBX@std@@U_One_then_variadic_args_t@1@AAU?$equal_to@PBX@1@M@?$_Compressed_pair@U?$hash@PBX@std@@V?$_Compressed_pair@U?$equal_to@PBX@std@@M$00@2@$00@std@@QAE@U_One_then_variadic_args_t@1@AAU?$hash@PBX@1@$$QAU21@AAU?$equal_to@PBX@1@$$QAM@Z 10086a90 f i Skinchanger.obj
 0002:00037b00       ??$?0AAU?$hash@_K@std@@U_One_then_variadic_args_t@1@AAU?$equal_to@_K@1@M@?$_Compressed_pair@U?$hash@_K@std@@V?$_Compressed_pair@U?$equal_to@_K@std@@M$00@2@$00@std@@QAE@U_One_then_variadic_args_t@1@AAU?$hash@_K@1@$$QAU21@AAU?$equal_to@_K@1@$$QAM@Z 10086b00 f i Skinchanger.obj
 0002:00037b70       ??$?0AAUbase_class_id_hash@detail@traits@cereal@@U_One_then_variadic_args_t@std@@AAU?$equal_to@Ubase_class_id@detail@traits@cereal@@@5@M@?$_Compressed_pair@Ubase_class_id_hash@detail@traits@cereal@@V?$_Compressed_pair@U?$equal_to@Ubase_class_id@detail@traits@cereal@@@std@@M$00@std@@$00@std@@QAE@U_One_then_variadic_args_t@1@AAUbase_class_id_hash@detail@traits@cereal@@$$QAU21@AAU?$equal_to@Ubase_class_id@detail@traits@cereal@@@1@$$QAM@Z 10086b70 f i Skinchanger.obj
 0002:00037be0       ??$?0AAV?$_List_iterator@V?$_List_val@U?$_List_simple_types@U?$pair@$$CBHUWeaponItemCfg_t@@@std@@@std@@@std@@@std@@_N$0A@@?$pair@V?$_List_iterator@V?$_List_val@U?$_List_simple_types@U?$pair@$$CBHUWeaponItemCfg_t@@@std@@@std@@@std@@@std@@_N@std@@QAE@AAV?$_List_iterator@V?$_List_val@U?$_List_simple_types@U?$pair@$$CBHUWeaponItemCfg_t@@@std@@@std@@@std@@@1@$$QA_N@Z 10086be0 f i Skinchanger.obj
 0002:00037c30       ??$?0ABH$$Z$$V@?$pair@$$CBHUWeaponItemCfg_t@@@std@@QAE@Upiecewise_construct_t@1@V?$tuple@ABH@1@V?$tuple@$$V@1@@Z 10086c30 f i Skinchanger.obj
 0002:00037c70       ??$?0ABH$0A@@?$tuple@ABH@std@@QAE@ABH@Z 10086c70 f i Skinchanger.obj
 0002:00037cb0       ??$?0ABH@?$_Tuple_val@ABH@std@@QAE@ABH@Z 10086cb0 f i Skinchanger.obj
 0002:00037cf0       ??$?0ABU?$less@V?$basic_string@DU?$char_traits@D@std@@V?$allocator@D@2@@std@@@std@@U_Zero_then_variadic_args_t@1@@?$_Compressed_pair@U?$less@V?$basic_string@DU?$char_traits@D@std@@V?$allocator@D@2@@std@@@std@@V?$_Compressed_pair@V?$allocator@U?$_Tree_node@U?$pair@$$CBV?$basic_string@DU?$char_traits@D@std@@V?$allocator@D@2@@std@@V12@@std@@PAX@std@@@std@@V?$_Tree_val@U?$_Tree_simple_types@U?$pair@$$CBV?$basic_string@DU?$char_traits@D@std@@V?$allocator@D@2@@std@@V12@@std@@@std@@@2@$00@2@$00@std@@QAE@U_One_then_variadic_args_t@1@ABU?$less@V?$basic_string@DU?$char_traits@D@std@@V?$allocator@D@2@@std@@@1@$$QAU_Zero_then_variadic_args_t@1@@Z 10086cf0 f i Skinchanger.obj
 0002:00037d40       ??$?0ABV?$allocator@U?$pair@$$CBII@std@@@std@@$$V@?$_Compressed_pair@V?$allocator@U?$_List_node@U?$pair@$$CBII@std@@PAX@std@@@std@@V?$_List_val@U?$_List_simple_types@U?$pair@$$CBII@std@@@std@@@2@$00@std@@QAE@U_One_then_variadic_args_t@1@ABV?$allocator@U?$pair@$$CBII@std@@@1@@Z 10086d40 f i Skinchanger.obj
 0002:00037d90       ??$?0ABV?$allocator@U?$pair@$$CBII@std@@@std@@X@?$_List_alloc@U?$_List_base_types@U?$pair@$$CBII@std@@V?$allocator@U?$pair@$$CBII@std@@@2@@std@@@std@@QAE@ABV?$allocator@U?$pair@$$CBII@std@@@1@@Z 10086d90 f i Skinchanger.obj
 0002:00037df0       ??$?0ABV?$allocator@U?$pair@$$CBII@std@@@std@@X@?$_List_buy@U?$pair@$$CBII@std@@V?$allocator@U?$pair@$$CBII@std@@@2@@std@@QAE@ABV?$allocator@U?$pair@$$CBII@std@@@1@@Z 10086df0 f i Skinchanger.obj
 0002:00037e30       ??$?0ABV?$allocator@U?$pair@$$CBIV?$basic_string@DU?$char_traits@D@std@@V?$allocator@D@2@@std@@@std@@@std@@$$V@?$_Compressed_pair@V?$allocator@U?$_List_node@U?$pair@$$CBIV?$basic_string@DU?$char_traits@D@std@@V?$allocator@D@2@@std@@@std@@PAX@std@@@std@@V?$_List_val@U?$_List_simple_types@U?$pair@$$CBIV?$basic_string@DU?$char_traits@D@std@@V?$allocator@D@2@@std@@@std@@@std@@@2@$00@std@@QAE@U_One_then_variadic_args_t@1@ABV?$allocator@U?$pair@$$CBIV?$basic_string@DU?$char_traits@D@std@@V?$allocator@D@2@@std@@@std@@@1@@Z 10086e30 f i Skinchanger.obj
 0002:00037e80       ??$?0ABV?$allocator@U?$pair@$$CBIV?$basic_string@DU?$char_traits@D@std@@V?$allocator@D@2@@std@@@std@@@std@@X@?$_List_alloc@U?$_List_base_types@U?$pair@$$CBIV?$basic_string@DU?$char_traits@D@std@@V?$allocator@D@2@@std@@@std@@V?$allocator@U?$pair@$$CBIV?$basic_string@DU?$char_traits@D@std@@V?$allocator@D@2@@std@@@std@@@2@@std@@@std@@QAE@ABV?$allocator@U?$pair@$$CBIV?$basic_string@DU?$char_traits@D@std@@V?$allocator@D@2@@std@@@std@@@1@@Z 10086e80 f i Skinchanger.obj
 0002:00037ee0       ??$?0ABV?$allocator@U?$pair@$$CBIV?$basic_string@DU?$char_traits@D@std@@V?$allocator@D@2@@std@@@std@@@std@@X@?$_List_buy@U?$pair@$$CBIV?$basic_string@DU?$char_traits@D@std@@V?$allocator@D@2@@std@@@std@@V?$allocator@U?$pair@$$CBIV?$basic_string@DU?$char_traits@D@std@@V?$allocator@D@2@@std@@@std@@@2@@std@@QAE@ABV?$allocator@U?$pair@$$CBIV?$basic_string@DU?$char_traits@D@std@@V?$allocator@D@2@@std@@@std@@@1@@Z 10086ee0 f i Skinchanger.obj
 0002:00037f20       ??$?0ABV?$allocator@U?$pair@$$CBIV?$shared_ptr@X@std@@@std@@@std@@$$V@?$_Compressed_pair@V?$allocator@U?$_List_node@U?$pair@$$CBIV?$shared_ptr@X@std@@@std@@PAX@std@@@std@@V?$_List_val@U?$_List_simple_types@U?$pair@$$CBIV?$shared_ptr@X@std@@@std@@@std@@@2@$00@std@@QAE@U_One_then_variadic_args_t@1@ABV?$allocator@U?$pair@$$CBIV?$shared_ptr@X@std@@@std@@@1@@Z 10086f20 f i Skinchanger.obj
 0002:00037f70       ??$?0ABV?$allocator@U?$pair@$$CBIV?$shared_ptr@X@std@@@std@@@std@@X@?$_List_alloc@U?$_List_base_types@U?$pair@$$CBIV?$shared_ptr@X@std@@@std@@V?$allocator@U?$pair@$$CBIV?$shared_ptr@X@std@@@std@@@2@@std@@@std@@QAE@ABV?$allocator@U?$pair@$$CBIV?$shared_ptr@X@std@@@std@@@1@@Z 10086f70 f i Skinchanger.obj
 0002:00037fd0       ??$?0ABV?$allocator@U?$pair@$$CBIV?$shared_ptr@X@std@@@std@@@std@@X@?$_List_buy@U?$pair@$$CBIV?$shared_ptr@X@std@@@std@@V?$allocator@U?$pair@$$CBIV?$shared_ptr@X@std@@@std@@@2@@std@@QAE@ABV?$allocator@U?$pair@$$CBIV?$shared_ptr@X@std@@@std@@@1@@Z 10086fd0 f i Skinchanger.obj
 0002:00038010       ??$?0ABV?$allocator@U?$pair@QBDI@std@@@std@@$$V@?$_Compressed_pair@V?$allocator@U?$_List_node@U?$pair@QBDI@std@@PAX@std@@@std@@V?$_List_val@U?$_List_simple_types@U?$pair@QBDI@std@@@std@@@2@$00@std@@QAE@U_One_then_variadic_args_t@1@ABV?$allocator@U?$pair@QBDI@std@@@1@@Z 10087010 f i Skinchanger.obj
 0002:00038060       ??$?0ABV?$allocator@U?$pair@QBDI@std@@@std@@X@?$_List_alloc@U?$_List_base_types@U?$pair@QBDI@std@@V?$allocator@U?$pair@QBDI@std@@@2@@std@@@std@@QAE@ABV?$allocator@U?$pair@QBDI@std@@@1@@Z 10087060 f i Skinchanger.obj
 0002:000380c0       ??$?0ABV?$allocator@U?$pair@QBDI@std@@@std@@X@?$_List_buy@U?$pair@QBDI@std@@V?$allocator@U?$pair@QBDI@std@@@2@@std@@QAE@ABV?$allocator@U?$pair@QBDI@std@@@1@@Z 100870c0 f i Skinchanger.obj
 0002:00038100       ??$?0ABV?$allocator@U?$pair@QBXI@std@@@std@@$$V@?$_Compressed_pair@V?$allocator@U?$_List_node@U?$pair@QBXI@std@@PAX@std@@@std@@V?$_List_val@U?$_List_simple_types@U?$pair@QBXI@std@@@std@@@2@$00@std@@QAE@U_One_then_variadic_args_t@1@ABV?$allocator@U?$pair@QBXI@std@@@1@@Z 10087100 f i Skinchanger.obj
 0002:00038150       ??$?0ABV?$allocator@U?$pair@QBXI@std@@@std@@X@?$_List_alloc@U?$_List_base_types@U?$pair@QBXI@std@@V?$allocator@U?$pair@QBXI@std@@@2@@std@@@std@@QAE@ABV?$allocator@U?$pair@QBXI@std@@@1@@Z 10087150 f i Skinchanger.obj
 0002:000381b0       ??$?0ABV?$allocator@U?$pair@QBXI@std@@@std@@X@?$_List_buy@U?$pair@QBXI@std@@V?$allocator@U?$pair@QBXI@std@@@2@@std@@QAE@ABV?$allocator@U?$pair@QBXI@std@@@1@@Z 100871b0 f i Skinchanger.obj
 0002:000381f0       ??$?0ABV?$allocator@Ubase_class_id@detail@traits@cereal@@@std@@$$V@?$_Compressed_pair@V?$allocator@U?$_List_node@Ubase_class_id@detail@traits@cereal@@PAX@std@@@std@@V?$_List_val@U?$_List_simple_types@Ubase_class_id@detail@traits@cereal@@@std@@@2@$00@std@@QAE@U_One_then_variadic_args_t@1@ABV?$allocator@Ubase_class_id@detail@traits@cereal@@@1@@Z 100871f0 f i Skinchanger.obj
 0002:00038240       ??$?0ABV?$allocator@Ubase_class_id@detail@traits@cereal@@@std@@X@?$_List_alloc@U?$_List_base_types@Ubase_class_id@detail@traits@cereal@@V?$allocator@Ubase_class_id@detail@traits@cereal@@@std@@@std@@@std@@QAE@ABV?$allocator@Ubase_class_id@detail@traits@cereal@@@1@@Z 10087240 f i Skinchanger.obj
 0002:000382a0       ??$?0ABV?$allocator@Ubase_class_id@detail@traits@cereal@@@std@@X@?$_List_buy@Ubase_class_id@detail@traits@cereal@@V?$allocator@Ubase_class_id@detail@traits@cereal@@@std@@@std@@QAE@ABV?$allocator@Ubase_class_id@detail@traits@cereal@@@1@@Z 100872a0 f i Skinchanger.obj
 0002:000382e0       ??$?0ABV?$allocator@V?$_List_unchecked_const_iterator@V?$_List_val@U?$_List_simple_types@Ubase_class_id@detail@traits@cereal@@@std@@@std@@U_Iterator_base0@2@@std@@@std@@$$V@?$_Compressed_pair@V?$allocator@V?$_List_unchecked_const_iterator@V?$_List_val@U?$_List_simple_types@Ubase_class_id@detail@traits@cereal@@@std@@@std@@U_Iterator_base0@2@@std@@@std@@V?$_Vector_val@U?$_Simple_types@V?$_List_unchecked_const_iterator@V?$_List_val@U?$_List_simple_types@Ubase_class_id@detail@traits@cereal@@@std@@@std@@U_Iterator_base0@2@@std@@@std@@@2@$00@std@@QAE@U_One_then_variadic_args_t@1@ABV?$allocator@V?$_List_unchecked_const_iterator@V?$_List_val@U?$_List_simple_types@Ubase_class_id@detail@traits@cereal@@@std@@@std@@U_Iterator_base0@2@@std@@@1@@Z 100872e0 f i Skinchanger.obj
 0002:00038320       ??$?0ABV?$allocator@V?$_List_unchecked_const_iterator@V?$_List_val@U?$_List_simple_types@Ubase_class_id@detail@traits@cereal@@@std@@@std@@U_Iterator_base0@2@@std@@@std@@X@?$_Vector_alloc@U?$_Vec_base_types@V?$_List_unchecked_const_iterator@V?$_List_val@U?$_List_simple_types@Ubase_class_id@detail@traits@cereal@@@std@@@std@@U_Iterator_base0@2@@std@@V?$allocator@V?$_List_unchecked_const_iterator@V?$_List_val@U?$_List_simple_types@Ubase_class_id@detail@traits@cereal@@@std@@@std@@U_Iterator_base0@2@@std@@@2@@std@@@std@@QAE@ABV?$allocator@V?$_List_unchecked_const_iterator@V?$_List_val@U?$_List_simple_types@Ubase_class_id@detail@traits@cereal@@@std@@@std@@U_Iterator_base0@2@@std@@@1@@Z 10087320 f i Skinchanger.obj
 0002:00038360       ??$?0ABV?$allocator@V?$_List_unchecked_const_iterator@V?$_List_val@U?$_List_simple_types@_K@std@@@std@@U_Iterator_base0@2@@std@@@std@@$$V@?$_Compressed_pair@V?$allocator@V?$_List_unchecked_const_iterator@V?$_List_val@U?$_List_simple_types@_K@std@@@std@@U_Iterator_base0@2@@std@@@std@@V?$_Vector_val@U?$_Simple_types@V?$_List_unchecked_const_iterator@V?$_List_val@U?$_List_simple_types@_K@std@@@std@@U_Iterator_base0@2@@std@@@std@@@2@$00@std@@QAE@U_One_then_variadic_args_t@1@ABV?$allocator@V?$_List_unchecked_const_iterator@V?$_List_val@U?$_List_simple_types@_K@std@@@std@@U_Iterator_base0@2@@std@@@1@@Z 10087360 f i Skinchanger.obj
 0002:000383a0       ??$?0ABV?$allocator@V?$_List_unchecked_const_iterator@V?$_List_val@U?$_List_simple_types@_K@std@@@std@@U_Iterator_base0@2@@std@@@std@@X@?$_Vector_alloc@U?$_Vec_base_types@V?$_List_unchecked_const_iterator@V?$_List_val@U?$_List_simple_types@_K@std@@@std@@U_Iterator_base0@2@@std@@V?$allocator@V?$_List_unchecked_const_iterator@V?$_List_val@U?$_List_simple_types@_K@std@@@std@@U_Iterator_base0@2@@std@@@2@@std@@@std@@QAE@ABV?$allocator@V?$_List_unchecked_const_iterator@V?$_List_val@U?$_List_simple_types@_K@std@@@std@@U_Iterator_base0@2@@std@@@1@@Z 100873a0 f i Skinchanger.obj
 0002:000383e0       ??$?0ABV?$allocator@V?$_List_unchecked_iterator@V?$_List_val@U?$_List_simple_types@U?$pair@$$CBII@std@@@std@@@std@@@std@@@std@@$$V@?$_Compressed_pair@V?$allocator@V?$_List_unchecked_iterator@V?$_List_val@U?$_List_simple_types@U?$pair@$$CBII@std@@@std@@@std@@@std@@@std@@V?$_Vector_val@U?$_Simple_types@V?$_List_unchecked_iterator@V?$_List_val@U?$_List_simple_types@U?$pair@$$CBII@std@@@std@@@std@@@std@@@std@@@2@$00@std@@QAE@U_One_then_variadic_args_t@1@ABV?$allocator@V?$_List_unchecked_iterator@V?$_List_val@U?$_List_simple_types@U?$pair@$$CBII@std@@@std@@@std@@@std@@@1@@Z 100873e0 f i Skinchanger.obj
 0002:00038420       ??$?0ABV?$allocator@V?$_List_unchecked_iterator@V?$_List_val@U?$_List_simple_types@U?$pair@$$CBII@std@@@std@@@std@@@std@@@std@@X@?$_Vector_alloc@U?$_Vec_base_types@V?$_List_unchecked_iterator@V?$_List_val@U?$_List_simple_types@U?$pair@$$CBII@std@@@std@@@std@@@std@@V?$allocator@V?$_List_unchecked_iterator@V?$_List_val@U?$_List_simple_types@U?$pair@$$CBII@std@@@std@@@std@@@std@@@2@@std@@@std@@QAE@ABV?$allocator@V?$_List_unchecked_iterator@V?$_List_val@U?$_List_simple_types@U?$pair@$$CBII@std@@@std@@@std@@@std@@@1@@Z 10087420 f i Skinchanger.obj
 0002:00038460       ??$?0ABV?$allocator@V?$_List_unchecked_iterator@V?$_List_val@U?$_List_simple_types@U?$pair@$$CBIV?$basic_string@DU?$char_traits@D@std@@V?$allocator@D@2@@std@@@std@@@std@@@std@@@std@@@std@@$$V@?$_Compressed_pair@V?$allocator@V?$_List_unchecked_iterator@V?$_List_val@U?$_List_simple_types@U?$pair@$$CBIV?$basic_string@DU?$char_traits@D@std@@V?$allocator@D@2@@std@@@std@@@std@@@std@@@std@@@std@@V?$_Vector_val@U?$_Simple_types@V?$_List_unchecked_iterator@V?$_List_val@U?$_List_simple_types@U?$pair@$$CBIV?$basic_string@DU?$char_traits@D@std@@V?$allocator@D@2@@std@@@std@@@std@@@std@@@std@@@std@@@2@$00@std@@QAE@U_One_then_variadic_args_t@1@ABV?$allocator@V?$_List_unchecked_iterator@V?$_List_val@U?$_List_simple_types@U?$pair@$$CBIV?$basic_string@DU?$char_traits@D@std@@V?$allocator@D@2@@std@@@std@@@std@@@std@@@std@@@1@@Z 10087460 f i Skinchanger.obj
 0002:000384a0       ??$?0ABV?$allocator@V?$_List_unchecked_iterator@V?$_List_val@U?$_List_simple_types@U?$pair@$$CBIV?$basic_string@DU?$char_traits@D@std@@V?$allocator@D@2@@std@@@std@@@std@@@std@@@std@@@std@@X@?$_Vector_alloc@U?$_Vec_base_types@V?$_List_unchecked_iterator@V?$_List_val@U?$_List_simple_types@U?$pair@$$CBIV?$basic_string@DU?$char_traits@D@std@@V?$allocator@D@2@@std@@@std@@@std@@@std@@@std@@V?$allocator@V?$_List_unchecked_iterator@V?$_List_val@U?$_List_simple_types@U?$pair@$$CBIV?$basic_string@DU?$char_traits@D@std@@V?$allocator@D@2@@std@@@std@@@std@@@std@@@std@@@2@@std@@@std@@QAE@ABV?$allocator@V?$_List_unchecked_iterator@V?$_List_val@U?$_List_simple_types@U?$pair@$$CBIV?$basic_string@DU?$char_traits@D@std@@V?$allocator@D@2@@std@@@std@@@std@@@std@@@std@@@1@@Z 100874a0 f i Skinchanger.obj
 0002:000384e0       ??$?0ABV?$allocator@V?$_List_unchecked_iterator@V?$_List_val@U?$_List_simple_types@U?$pair@$$CBIV?$shared_ptr@X@std@@@std@@@std@@@std@@@std@@@std@@$$V@?$_Compressed_pair@V?$allocator@V?$_List_unchecked_iterator@V?$_List_val@U?$_List_simple_types@U?$pair@$$CBIV?$shared_ptr@X@std@@@std@@@std@@@std@@@std@@@std@@V?$_Vector_val@U?$_Simple_types@V?$_List_unchecked_iterator@V?$_List_val@U?$_List_simple_types@U?$pair@$$CBIV?$shared_ptr@X@std@@@std@@@std@@@std@@@std@@@std@@@2@$00@std@@QAE@U_One_then_variadic_args_t@1@ABV?$allocator@V?$_List_unchecked_iterator@V?$_List_val@U?$_List_simple_types@U?$pair@$$CBIV?$shared_ptr@X@std@@@std@@@std@@@std@@@std@@@1@@Z 100874e0 f i Skinchanger.obj
 0002:00038520       ??$?0ABV?$allocator@V?$_List_unchecked_iterator@V?$_List_val@U?$_List_simple_types@U?$pair@$$CBIV?$shared_ptr@X@std@@@std@@@std@@@std@@@std@@@std@@X@?$_Vector_alloc@U?$_Vec_base_types@V?$_List_unchecked_iterator@V?$_List_val@U?$_List_simple_types@U?$pair@$$CBIV?$shared_ptr@X@std@@@std@@@std@@@std@@@std@@V?$allocator@V?$_List_unchecked_iterator@V?$_List_val@U?$_List_simple_types@U?$pair@$$CBIV?$shared_ptr@X@std@@@std@@@std@@@std@@@std@@@2@@std@@@std@@QAE@ABV?$allocator@V?$_List_unchecked_iterator@V?$_List_val@U?$_List_simple_types@U?$pair@$$CBIV?$shared_ptr@X@std@@@std@@@std@@@std@@@std@@@1@@Z 10087520 f i Skinchanger.obj
 0002:00038560       ??$?0ABV?$allocator@V?$_List_unchecked_iterator@V?$_List_val@U?$_List_simple_types@U?$pair@QBDI@std@@@std@@@std@@@std@@@std@@$$V@?$_Compressed_pair@V?$allocator@V?$_List_unchecked_iterator@V?$_List_val@U?$_List_simple_types@U?$pair@QBDI@std@@@std@@@std@@@std@@@std@@V?$_Vector_val@U?$_Simple_types@V?$_List_unchecked_iterator@V?$_List_val@U?$_List_simple_types@U?$pair@QBDI@std@@@std@@@std@@@std@@@std@@@2@$00@std@@QAE@U_One_then_variadic_args_t@1@ABV?$allocator@V?$_List_unchecked_iterator@V?$_List_val@U?$_List_simple_types@U?$pair@QBDI@std@@@std@@@std@@@std@@@1@@Z 10087560 f i Skinchanger.obj
 0002:000385a0       ??$?0ABV?$allocator@V?$_List_unchecked_iterator@V?$_List_val@U?$_List_simple_types@U?$pair@QBDI@std@@@std@@@std@@@std@@@std@@X@?$_Vector_alloc@U?$_Vec_base_types@V?$_List_unchecked_iterator@V?$_List_val@U?$_List_simple_types@U?$pair@QBDI@std@@@std@@@std@@@std@@V?$allocator@V?$_List_unchecked_iterator@V?$_List_val@U?$_List_simple_types@U?$pair@QBDI@std@@@std@@@std@@@std@@@2@@std@@@std@@QAE@ABV?$allocator@V?$_List_unchecked_iterator@V?$_List_val@U?$_List_simple_types@U?$pair@QBDI@std@@@std@@@std@@@std@@@1@@Z 100875a0 f i Skinchanger.obj
 0002:000385e0       ??$?0ABV?$allocator@V?$_List_unchecked_iterator@V?$_List_val@U?$_List_simple_types@U?$pair@QBXI@std@@@std@@@std@@@std@@@std@@$$V@?$_Compressed_pair@V?$allocator@V?$_List_unchecked_iterator@V?$_List_val@U?$_List_simple_types@U?$pair@QBXI@std@@@std@@@std@@@std@@@std@@V?$_Vector_val@U?$_Simple_types@V?$_List_unchecked_iterator@V?$_List_val@U?$_List_simple_types@U?$pair@QBXI@std@@@std@@@std@@@std@@@std@@@2@$00@std@@QAE@U_One_then_variadic_args_t@1@ABV?$allocator@V?$_List_unchecked_iterator@V?$_List_val@U?$_List_simple_types@U?$pair@QBXI@std@@@std@@@std@@@std@@@1@@Z 100875e0 f i Skinchanger.obj
 0002:00038620       ??$?0ABV?$allocator@V?$_List_unchecked_iterator@V?$_List_val@U?$_List_simple_types@U?$pair@QBXI@std@@@std@@@std@@@std@@@std@@X@?$_Vector_alloc@U?$_Vec_base_types@V?$_List_unchecked_iterator@V?$_List_val@U?$_List_simple_types@U?$pair@QBXI@std@@@std@@@std@@@std@@V?$allocator@V?$_List_unchecked_iterator@V?$_List_val@U?$_List_simple_types@U?$pair@QBXI@std@@@std@@@std@@@std@@@2@@std@@@std@@QAE@ABV?$allocator@V?$_List_unchecked_iterator@V?$_List_val@U?$_List_simple_types@U?$pair@QBXI@std@@@std@@@std@@@std@@@1@@Z 10087620 f i Skinchanger.obj
 0002:00038660       ??$?0ABV?$allocator@_K@std@@$$V@?$_Compressed_pair@V?$allocator@U?$_List_node@_KPAX@std@@@std@@V?$_List_val@U?$_List_simple_types@_K@std@@@2@$00@std@@QAE@U_One_then_variadic_args_t@1@ABV?$allocator@_K@1@@Z 10087660 f i Skinchanger.obj
 0002:000386b0       ??$?0ABV?$allocator@_K@std@@X@?$_List_alloc@U?$_List_base_types@_KV?$allocator@_K@std@@@std@@@std@@QAE@ABV?$allocator@_K@1@@Z 100876b0 f i Skinchanger.obj
 0002:00038710       ??$?0ABV?$allocator@_K@std@@X@?$_List_buy@_KV?$allocator@_K@std@@@std@@QAE@ABV?$allocator@_K@1@@Z 10087710 f i Skinchanger.obj
 0002:00038750       ??$?0H$$V$0A@@?$tuple@$$QAH@std@@QAE@$$QAH@Z 10087750 f i Skinchanger.obj
 0002:000387a0       ??$?0H@?$_Tuple_val@$$QAH@std@@QAE@$$QAH@Z 100877a0 f i Skinchanger.obj
 0002:000387e0       ??$?0HUWeaponItemCfg_t@@$0A@@?$pair@$$CBHUWeaponItemCfg_t@@@std@@QAE@$$QAH$$QAUWeaponItemCfg_t@@@Z 100877e0 f i Skinchanger.obj
 0002:00038840       ??$?0I@?$allocator@PAI@std@@QAE@ABV?$allocator@I@1@@Z 10087840 f i Skinchanger.obj
 0002:00038860       ??$?0I@?$allocator@U_Container_proxy@std@@@std@@QAE@ABV?$allocator@I@1@@Z 10087860 f i Skinchanger.obj
 0002:00038880       ??$?0U?$pair@$$CBII@std@@@?$allocator@U?$_List_node@U?$pair@$$CBII@std@@PAX@std@@@std@@QAE@ABV?$allocator@U?$pair@$$CBII@std@@@1@@Z 10087880 f i Skinchanger.obj
 0002:000388a0       ??$?0U?$pair@$$CBII@std@@@?$allocator@V?$_List_unchecked_iterator@V?$_List_val@U?$_List_simple_types@U?$pair@$$CBII@std@@@std@@@std@@@std@@@std@@QAE@ABV?$allocator@U?$pair@$$CBII@std@@@1@@Z 100878a0 f i Skinchanger.obj
 0002:000388c0       ??$?0U?$pair@$$CBIV?$basic_string@DU?$char_traits@D@std@@V?$allocator@D@2@@std@@@std@@@?$allocator@U?$_List_node@U?$pair@$$CBIV?$basic_string@DU?$char_traits@D@std@@V?$allocator@D@2@@std@@@std@@PAX@std@@@std@@QAE@ABV?$allocator@U?$pair@$$CBIV?$basic_string@DU?$char_traits@D@std@@V?$allocator@D@2@@std@@@std@@@1@@Z 100878c0 f i Skinchanger.obj
 0002:000388e0       ??$?0U?$pair@$$CBIV?$basic_string@DU?$char_traits@D@std@@V?$allocator@D@2@@std@@@std@@@?$allocator@V?$_List_unchecked_iterator@V?$_List_val@U?$_List_simple_types@U?$pair@$$CBIV?$basic_string@DU?$char_traits@D@std@@V?$allocator@D@2@@std@@@std@@@std@@@std@@@std@@@std@@QAE@ABV?$allocator@U?$pair@$$CBIV?$basic_string@DU?$char_traits@D@std@@V?$allocator@D@2@@std@@@std@@@1@@Z 100878e0 f i Skinchanger.obj
 0002:00038900       ??$?0U?$pair@$$CBIV?$shared_ptr@X@std@@@std@@@?$allocator@U?$_List_node@U?$pair@$$CBIV?$shared_ptr@X@std@@@std@@PAX@std@@@std@@QAE@ABV?$allocator@U?$pair@$$CBIV?$shared_ptr@X@std@@@std@@@1@@Z 10087900 f i Skinchanger.obj
 0002:00038920       ??$?0U?$pair@$$CBIV?$shared_ptr@X@std@@@std@@@?$allocator@V?$_List_unchecked_iterator@V?$_List_val@U?$_List_simple_types@U?$pair@$$CBIV?$shared_ptr@X@std@@@std@@@std@@@std@@@std@@@std@@QAE@ABV?$allocator@U?$pair@$$CBIV?$shared_ptr@X@std@@@std@@@1@@Z 10087920 f i Skinchanger.obj
 0002:00038940       ??$?0U?$pair@QBDI@std@@@?$allocator@U?$_List_node@U?$pair@QBDI@std@@PAX@std@@@std@@QAE@ABV?$allocator@U?$pair@QBDI@std@@@1@@Z 10087940 f i Skinchanger.obj
 0002:00038960       ??$?0U?$pair@QBDI@std@@@?$allocator@V?$_List_unchecked_iterator@V?$_List_val@U?$_List_simple_types@U?$pair@QBDI@std@@@std@@@std@@@std@@@std@@QAE@ABV?$allocator@U?$pair@QBDI@std@@@1@@Z 10087960 f i Skinchanger.obj
 0002:00038980       ??$?0U?$pair@QBXI@std@@@?$allocator@U?$_List_node@U?$pair@QBXI@std@@PAX@std@@@std@@QAE@ABV?$allocator@U?$pair@QBXI@std@@@1@@Z 10087980 f i Skinchanger.obj
 0002:000389a0       ??$?0U?$pair@QBXI@std@@@?$allocator@V?$_List_unchecked_iterator@V?$_List_val@U?$_List_simple_types@U?$pair@QBXI@std@@@std@@@std@@@std@@@std@@QAE@ABV?$allocator@U?$pair@QBXI@std@@@1@@Z 100879a0 f i Skinchanger.obj
 0002:000389c0       ??$?0U_Exact_args_t@std@@ABH$$V$0A@@?$tuple@ABH@std@@QAE@U_Exact_args_t@1@ABH@Z 100879c0 f i Skinchanger.obj
 0002:00038a10       ??$?0U_Exact_args_t@std@@H$$V$0A@@?$tuple@$$QAH@std@@QAE@U_Exact_args_t@1@$$QAH@Z 10087a10 f i Skinchanger.obj
 0002:00038a60       ??$?0Ubase_class_id@detail@traits@cereal@@@?$allocator@U?$_List_node@Ubase_class_id@detail@traits@cereal@@PAX@std@@@std@@QAE@ABV?$allocator@Ubase_class_id@detail@traits@cereal@@@1@@Z 10087a60 f i Skinchanger.obj
 0002:00038a80       ??$?0Ubase_class_id@detail@traits@cereal@@@?$allocator@V?$_List_unchecked_const_iterator@V?$_List_val@U?$_List_simple_types@Ubase_class_id@detail@traits@cereal@@@std@@@std@@U_Iterator_base0@2@@std@@@std@@QAE@ABV?$allocator@Ubase_class_id@detail@traits@cereal@@@1@@Z 10087a80 f i Skinchanger.obj
 0002:00038aa0       ??$?0V?$_List_iterator@V?$_List_val@U?$_List_simple_types@U?$pair@$$CBHUWeaponItemCfg_t@@@std@@@std@@@std@@@std@@_N$0A@@?$pair@V?$_List_iterator@V?$_List_val@U?$_List_simple_types@U?$pair@$$CBHUWeaponItemCfg_t@@@std@@@std@@@std@@@std@@_N@std@@QAE@$$QAV?$_List_iterator@V?$_List_val@U?$_List_simple_types@U?$pair@$$CBHUWeaponItemCfg_t@@@std@@@std@@@std@@@1@$$QA_N@Z 10087aa0 f i Skinchanger.obj
 0002:00038af0       ??$?0V?$tuple@$$QAH@std@@V?$tuple@$$V@1@$0A@$$Z$S@?$pair@$$CBHUWeaponItemCfg_t@@@std@@QAE@AAV?$tuple@$$QAH@1@AAV?$tuple@$$V@1@U?$integer_sequence@I$0A@@1@U?$integer_sequence@I$S@1@@Z 10087af0 f i Skinchanger.obj
 0002:00038b60       ??$?0V?$tuple@ABH@std@@V?$tuple@$$V@1@$0A@$$Z$S@?$pair@$$CBHUWeaponItemCfg_t@@@std@@QAE@AAV?$tuple@ABH@1@AAV?$tuple@$$V@1@U?$integer_sequence@I$0A@@1@U?$integer_sequence@I$S@1@@Z 10087b60 f i Skinchanger.obj
 0002:00038bd0       ??$?0W4NodeType@JSONOutputArchive@cereal@@@?$allocator@PAW4NodeType@JSONOutputArchive@cereal@@@std@@QAE@ABV?$allocator@W4NodeType@JSONOutputArchive@cereal@@@1@@Z 10087bd0 f i Skinchanger.obj
 0002:00038bf0       ??$?0W4NodeType@JSONOutputArchive@cereal@@@?$allocator@U_Container_proxy@std@@@std@@QAE@ABV?$allocator@W4NodeType@JSONOutputArchive@cereal@@@1@@Z 10087bf0 f i Skinchanger.obj
 0002:00038c10       ??$?0_K@?$allocator@U?$_List_node@_KPAX@std@@@std@@QAE@ABV?$allocator@_K@1@@Z 10087c10 f i Skinchanger.obj
 0002:00038c30       ??$?0_K@?$allocator@V?$_List_unchecked_const_iterator@V?$_List_val@U?$_List_simple_types@_K@std@@@std@@U_Iterator_base0@2@@std@@@std@@QAE@ABV?$allocator@_K@1@@Z 10087c30 f i Skinchanger.obj
 0002:00038c50       ??$?0_N@?$GenericValue@U?$UTF8@D@rapidjson@@V?$MemoryPoolAllocator@VCrtAllocator@rapidjson@@@2@@rapidjson@@QAE@_NPAX@Z 10087c50 f i Skinchanger.obj
 0002:00038cb0       ??$?8DU?$char_traits@D@std@@V?$allocator@D@1@@std@@YA_NABV?$basic_string@DU?$char_traits@D@std@@V?$allocator@D@2@@0@QBD@Z 10087cb0 f i Skinchanger.obj
 0002:00038ce0       ??$?RAAH@?$InputArchive@VJSONInputArchive@cereal@@$0A@@cereal@@QAEAAVJSONInputArchive@1@AAH@Z 10087ce0 f i Skinchanger.obj
 0002:00038d20       ??$?RAAH@?$OutputArchive@VJSONOutputArchive@cereal@@$0A@@cereal@@QAEAAVJSONOutputArchive@1@AAH@Z 10087d20 f i Skinchanger.obj
 0002:00038d60       ??$?RAAM@?$InputArchive@VJSONInputArchive@cereal@@$0A@@cereal@@QAEAAVJSONInputArchive@1@AAM@Z 10087d60 f i Skinchanger.obj
 0002:00038da0       ??$?RAAM@?$OutputArchive@VJSONOutputArchive@cereal@@$0A@@cereal@@QAEAAVJSONOutputArchive@1@AAM@Z 10087da0 f i Skinchanger.obj
 0002:00038de0       ??$?RAAUGloveItemCfg_t@@@?$InputArchive@VJSONInputArchive@cereal@@$0A@@cereal@@QAEAAVJSONInputArchive@1@AAUGloveItemCfg_t@@@Z 10087de0 f i Skinchanger.obj
 0002:00038e20       ??$?RAAUGloveItemCfg_t@@@?$OutputArchive@VJSONOutputArchive@cereal@@$0A@@cereal@@QAEAAVJSONOutputArchive@1@AAUGloveItemCfg_t@@@Z 10087e20 f i Skinchanger.obj
 0002:00038e60       ??$?RAAUKnifeItemCfg_t@@@?$InputArchive@VJSONInputArchive@cereal@@$0A@@cereal@@QAEAAVJSONInputArchive@1@AAUKnifeItemCfg_t@@@Z 10087e60 f i Skinchanger.obj
 0002:00038ea0       ??$?RAAUKnifeItemCfg_t@@@?$OutputArchive@VJSONOutputArchive@cereal@@$0A@@cereal@@QAEAAVJSONOutputArchive@1@AAUKnifeItemCfg_t@@@Z 10087ea0 f i Skinchanger.obj
 0002:00038ee0       ??$?RAAUStickerCfg_t@@@?$InputArchive@VJSONInputArchive@cereal@@$0A@@cereal@@QAEAAVJSONInputArchive@1@AAUStickerCfg_t@@@Z 10087ee0 f i Skinchanger.obj
 0002:00038f20       ??$?RAAUWeaponItemCfg_t@@@?$InputArchive@VJSONInputArchive@cereal@@$0A@@cereal@@QAEAAVJSONInputArchive@1@AAUWeaponItemCfg_t@@@Z 10087f20 f i Skinchanger.obj
 0002:00038f60       ??$?RAAV?$array@UStickerCfg_t@@$03@std@@@?$InputArchive@VJSONInputArchive@cereal@@$0A@@cereal@@QAEAAVJSONInputArchive@1@AAV?$array@UStickerCfg_t@@$03@std@@@Z 10087f60 f i Skinchanger.obj
 0002:00038fa0       ??$?RAAV?$array@UStickerCfg_t@@$03@std@@@?$OutputArchive@VJSONOutputArchive@cereal@@$0A@@cereal@@QAEAAVJSONOutputArchive@1@AAV?$array@UStickerCfg_t@@$03@std@@@Z 10087fa0 f i Skinchanger.obj
 0002:00038fe0       ??$?RAAV?$basic_string@DU?$char_traits@D@std@@V?$allocator@D@2@@std@@@?$InputArchive@VJSONInputArchive@cereal@@$0A@@cereal@@QAEAAVJSONInputArchive@1@AAV?$basic_string@DU?$char_traits@D@std@@V?$allocator@D@2@@std@@@Z 10087fe0 f i Skinchanger.obj
 0002:00039020       ??$?RAAV?$basic_string@DU?$char_traits@D@std@@V?$allocator@D@2@@std@@@?$OutputArchive@VJSONOutputArchive@cereal@@$0A@@cereal@@QAEAAVJSONOutputArchive@1@AAV?$basic_string@DU?$char_traits@D@std@@V?$allocator@D@2@@std@@@Z 10088020 f i Skinchanger.obj
 0002:00039060       ??$?RAAV?$unordered_map@HUWeaponItemCfg_t@@U?$hash@H@std@@U?$equal_to@H@3@V?$allocator@U?$pair@$$CBHUWeaponItemCfg_t@@@std@@@3@@std@@@?$InputArchive@VJSONInputArchive@cereal@@$0A@@cereal@@QAEAAVJSONInputArchive@1@AAV?$unordered_map@HUWeaponItemCfg_t@@U?$hash@H@std@@U?$equal_to@H@3@V?$allocator@U?$pair@$$CBHUWeaponItemCfg_t@@@std@@@3@@std@@@Z 10088060 f i Skinchanger.obj
 0002:000390a0       ??$?RAAV?$unordered_map@HUWeaponItemCfg_t@@U?$hash@H@std@@U?$equal_to@H@3@V?$allocator@U?$pair@$$CBHUWeaponItemCfg_t@@@std@@@3@@std@@@?$OutputArchive@VJSONOutputArchive@cereal@@$0A@@cereal@@QAEAAVJSONOutputArchive@1@AAV?$unordered_map@HUWeaponItemCfg_t@@U?$hash@H@std@@U?$equal_to@H@3@V?$allocator@U?$pair@$$CBHUWeaponItemCfg_t@@@std@@@3@@std@@@Z 100880a0 f i Skinchanger.obj
 0002:000390e0       ??$?RABH@?$OutputArchive@VJSONOutputArchive@cereal@@$0A@@cereal@@QAEAAVJSONOutputArchive@1@ABH@Z 100880e0 f i Skinchanger.obj
 0002:00039120       ??$?RABUStickerCfg_t@@@?$OutputArchive@VJSONOutputArchive@cereal@@$0A@@cereal@@QAEAAVJSONOutputArchive@1@ABUStickerCfg_t@@@Z 10088120 f i Skinchanger.obj
 0002:00039160       ??$?RABUWeaponItemCfg_t@@@?$OutputArchive@VJSONOutputArchive@cereal@@$0A@@cereal@@QAEAAVJSONOutputArchive@1@ABUWeaponItemCfg_t@@@Z 10088160 f i Skinchanger.obj
 0002:000391a0       ??$?RU?$MapItem@AAHAAUWeaponItemCfg_t@@@cereal@@@?$InputArchive@VJSONInputArchive@cereal@@$0A@@cereal@@QAEAAVJSONInputArchive@1@$$QAU?$MapItem@AAHAAUWeaponItemCfg_t@@@1@@Z 100881a0 f i Skinchanger.obj
 0002:000391e0       ??$?RU?$MapItem@ABHABUWeaponItemCfg_t@@@cereal@@@?$OutputArchive@VJSONOutputArchive@cereal@@$0A@@cereal@@QAEAAVJSONOutputArchive@1@$$QAU?$MapItem@ABHABUWeaponItemCfg_t@@@1@@Z 100881e0 f i Skinchanger.obj
 0002:00039220       ??$?RV?$NameValuePair@AAH@cereal@@V01@V01@V?$NameValuePair@AAM@1@V01@V?$NameValuePair@AAV?$basic_string@DU?$char_traits@D@std@@V?$allocator@D@2@@std@@@1@@?$InputArchive@VJSONInputArchive@cereal@@$0A@@cereal@@QAEAAVJSONInputArchive@1@$$QAV?$NameValuePair@AAH@1@00$$QAV?$NameValuePair@AAM@1@0$$QAV?$NameValuePair@AAV?$basic_string@DU?$char_traits@D@std@@V?$allocator@D@2@@std@@@1@@Z 10088220 f i Skinchanger.obj
 0002:000392b0       ??$?RV?$NameValuePair@AAH@cereal@@V01@V01@V?$NameValuePair@AAM@1@V01@V?$NameValuePair@AAV?$basic_string@DU?$char_traits@D@std@@V?$allocator@D@2@@std@@@1@@?$OutputArchive@VJSONOutputArchive@cereal@@$0A@@cereal@@QAEAAVJSONOutputArchive@1@$$QAV?$NameValuePair@AAH@1@00$$QAV?$NameValuePair@AAM@1@0$$QAV?$NameValuePair@AAV?$basic_string@DU?$char_traits@D@std@@V?$allocator@D@2@@std@@@1@@Z 100882b0 f i Skinchanger.obj
 0002:00039350       ??$?RV?$NameValuePair@AAH@cereal@@V01@V?$NameValuePair@AAM@1@@?$InputArchive@VJSONInputArchive@cereal@@$0A@@cereal@@QAEAAVJSONInputArchive@1@$$QAV?$NameValuePair@AAH@1@0$$QAV?$NameValuePair@AAM@1@@Z 10088350 f i Skinchanger.obj
 0002:000393b0       ??$?RV?$NameValuePair@AAH@cereal@@V01@V?$NameValuePair@AAM@1@@?$OutputArchive@VJSONOutputArchive@cereal@@$0A@@cereal@@QAEAAVJSONOutputArchive@1@$$QAV?$NameValuePair@AAH@1@0$$QAV?$NameValuePair@AAM@1@@Z 100883b0 f i Skinchanger.obj
 0002:00039410       ??$?RV?$NameValuePair@AAH@cereal@@V01@V?$NameValuePair@AAM@1@V01@V?$NameValuePair@AAV?$basic_string@DU?$char_traits@D@std@@V?$allocator@D@2@@std@@@1@V?$NameValuePair@AAV?$array@UStickerCfg_t@@$03@std@@@1@@?$InputArchive@VJSONInputArchive@cereal@@$0A@@cereal@@QAEAAVJSONInputArchive@1@$$QAV?$NameValuePair@AAH@1@0$$QAV?$NameValuePair@AAM@1@0$$QAV?$NameValuePair@AAV?$basic_string@DU?$char_traits@D@std@@V?$allocator@D@2@@std@@@1@$$QAV?$NameValuePair@AAV?$array@UStickerCfg_t@@$03@std@@@1@@Z 10088410 f i Skinchanger.obj
 0002:000394a0       ??$?RV?$NameValuePair@AAH@cereal@@V01@V?$NameValuePair@AAM@1@V01@V?$NameValuePair@AAV?$basic_string@DU?$char_traits@D@std@@V?$allocator@D@2@@std@@@1@V?$NameValuePair@AAV?$array@UStickerCfg_t@@$03@std@@@1@@?$OutputArchive@VJSONOutputArchive@cereal@@$0A@@cereal@@QAEAAVJSONOutputArchive@1@$$QAV?$NameValuePair@AAH@1@0$$QAV?$NameValuePair@AAM@1@0$$QAV?$NameValuePair@AAV?$basic_string@DU?$char_traits@D@std@@V?$allocator@D@2@@std@@@1@$$QAV?$NameValuePair@AAV?$array@UStickerCfg_t@@$03@std@@@1@@Z 100884a0 f i Skinchanger.obj
 0002:00039540       ??$?RV?$NameValuePair@AAH@cereal@@V?$NameValuePair@AAM@1@V21@V21@@?$InputArchive@VJSONInputArchive@cereal@@$0A@@cereal@@QAEAAVJSONInputArchive@1@$$QAV?$NameValuePair@AAH@1@$$QAV?$NameValuePair@AAM@1@11@Z 10088540 f i Skinchanger.obj
 0002:000395b0       ??$?RV?$NameValuePair@AAH@cereal@@V?$NameValuePair@AAM@1@V21@V21@@?$OutputArchive@VJSONOutputArchive@cereal@@$0A@@cereal@@QAEAAVJSONOutputArchive@1@$$QAV?$NameValuePair@AAH@1@$$QAV?$NameValuePair@AAM@1@11@Z 100885b0 f i Skinchanger.obj
 0002:00039620       ??$?RV?$NameValuePair@AAH@cereal@@V?$NameValuePair@AAUWeaponItemCfg_t@@@1@@?$InputArchive@VJSONInputArchive@cereal@@$0A@@cereal@@QAEAAVJSONInputArchive@1@$$QAV?$NameValuePair@AAH@1@$$QAV?$NameValuePair@AAUWeaponItemCfg_t@@@1@@Z 10088620 f i Skinchanger.obj
 0002:00039670       ??$?RV?$NameValuePair@AAV?$unordered_map@HUWeaponItemCfg_t@@U?$hash@H@std@@U?$equal_to@H@3@V?$allocator@U?$pair@$$CBHUWeaponItemCfg_t@@@std@@@3@@std@@@cereal@@V?$NameValuePair@AAUKnifeItemCfg_t@@@1@V?$NameValuePair@AAUGloveItemCfg_t@@@1@@?$InputArchive@VJSONInputArchive@cereal@@$0A@@cereal@@QAEAAVJSONInputArchive@1@$$QAV?$NameValuePair@AAV?$unordered_map@HUWeaponItemCfg_t@@U?$hash@H@std@@U?$equal_to@H@3@V?$allocator@U?$pair@$$CBHUWeaponItemCfg_t@@@std@@@3@@std@@@1@$$QAV?$NameValuePair@AAUKnifeItemCfg_t@@@1@$$QAV?$NameValuePair@AAUGloveItemCfg_t@@@1@@Z 10088670 f i Skinchanger.obj
 0002:000396d0       ??$?RV?$NameValuePair@AAV?$unordered_map@HUWeaponItemCfg_t@@U?$hash@H@std@@U?$equal_to@H@3@V?$allocator@U?$pair@$$CBHUWeaponItemCfg_t@@@std@@@3@@std@@@cereal@@V?$NameValuePair@AAUKnifeItemCfg_t@@@1@V?$NameValuePair@AAUGloveItemCfg_t@@@1@@?$OutputArchive@VJSONOutputArchive@cereal@@$0A@@cereal@@QAEAAVJSONOutputArchive@1@$$QAV?$NameValuePair@AAV?$unordered_map@HUWeaponItemCfg_t@@U?$hash@H@std@@U?$equal_to@H@3@V?$allocator@U?$pair@$$CBHUWeaponItemCfg_t@@@std@@@3@@std@@@1@$$QAV?$NameValuePair@AAUKnifeItemCfg_t@@@1@$$QAV?$NameValuePair@AAUGloveItemCfg_t@@@1@@Z 100886d0 f i Skinchanger.obj
 0002:00039730       ??$?RV?$NameValuePair@ABH@cereal@@V?$NameValuePair@ABUWeaponItemCfg_t@@@1@@?$OutputArchive@VJSONOutputArchive@cereal@@$0A@@cereal@@QAEAAVJSONOutputArchive@1@$$QAV?$NameValuePair@ABH@1@$$QAV?$NameValuePair@ABUWeaponItemCfg_t@@@1@@Z 10088730 f i Skinchanger.obj
 0002:00039780       ??$?RV?$SizeTag@AA_K@cereal@@@?$InputArchive@VJSONInputArchive@cereal@@$0A@@cereal@@QAEAAVJSONInputArchive@1@$$QAV?$SizeTag@AA_K@1@@Z 10088780 f i Skinchanger.obj
 0002:000397c0       ??$?RV?$SizeTag@_K@cereal@@@?$OutputArchive@VJSONOutputArchive@cereal@@$0A@@cereal@@QAEAAVJSONOutputArchive@1@$$QAV?$SizeTag@_K@1@@Z 100887c0 f i Skinchanger.obj
 0002:00039800       ??$Consume@V?$BasicIStreamWrapper@V?$basic_istream@DU?$char_traits@D@std@@@std@@@rapidjson@@@?$GenericReader@U?$UTF8@D@rapidjson@@U12@VCrtAllocator@2@@rapidjson@@CA_NAAV?$BasicIStreamWrapper@V?$basic_istream@DU?$char_traits@D@std@@@std@@@1@D@Z 10088800 f i Skinchanger.obj
 0002:00039840       ??$Consume@V?$NumberStream@V?$BasicIStreamWrapper@V?$basic_istream@DU?$char_traits@D@std@@@std@@@rapidjson@@$00$0A@@?$GenericReader@U?$UTF8@D@rapidjson@@U12@VCrtAllocator@2@@rapidjson@@@?$GenericReader@U?$UTF8@D@rapidjson@@U12@VCrtAllocator@2@@rapidjson@@CA_NAAV?$NumberStream@V?$BasicIStreamWrapper@V?$basic_istream@DU?$char_traits@D@std@@@std@@@rapidjson@@$00$0A@@01@D@Z 10088840 f i Skinchanger.obj
 0002:00039880       ??$Decode@U?$GenericStringStream@U?$UTF8@D@rapidjson@@@rapidjson@@@?$UTF8@D@rapidjson@@SA_NAAU?$GenericStringStream@U?$UTF8@D@rapidjson@@@1@PAI@Z 10088880 f i Skinchanger.obj
 0002:0003a000       ??$Encode@V?$BasicIStreamWrapper@V?$basic_istream@DU?$char_traits@D@std@@@std@@@rapidjson@@@?$UTF8@D@rapidjson@@SAXAAV?$BasicIStreamWrapper@V?$basic_istream@DU?$char_traits@D@std@@@std@@@1@I@Z 10089000 f i Skinchanger.obj
 0002:0003a190       ??$Encode@V?$StackStream@D@?$GenericReader@U?$UTF8@D@rapidjson@@U12@VCrtAllocator@2@@rapidjson@@@?$UTF8@D@rapidjson@@SAXAAV?$StackStream@D@?$GenericReader@U?$UTF8@D@rapidjson@@U12@VCrtAllocator@2@@1@I@Z 10089190 f i Skinchanger.obj
 0002:0003a320       ??$Expand@D@?$Stack@VCrtAllocator@rapidjson@@@internal@rapidjson@@AAEXI@Z 10089320 f i Skinchanger.obj
 0002:0003a3f0       ??$Expand@I@?$Stack@VCrtAllocator@rapidjson@@@internal@rapidjson@@AAEXI@Z 100893f0 f i Skinchanger.obj
 0002:0003a4d0       ??$Expand@ULevel@?$Writer@V?$BasicOStreamWrapper@V?$basic_ostream@DU?$char_traits@D@std@@@std@@@rapidjson@@U?$UTF8@D@2@U32@VCrtAllocator@2@$01@rapidjson@@@?$Stack@VCrtAllocator@rapidjson@@@internal@rapidjson@@AAEXI@Z 100894d0 f i Skinchanger.obj
 0002:0003a5b0       ??$Expand@V?$GenericValue@U?$UTF8@D@rapidjson@@V?$MemoryPoolAllocator@VCrtAllocator@rapidjson@@@2@@rapidjson@@@?$Stack@VCrtAllocator@rapidjson@@@internal@rapidjson@@AAEXI@Z 100895b0 f i Skinchanger.obj
 0002:0003a690       ??$HandleError@V?$BasicIStreamWrapper@V?$basic_istream@DU?$char_traits@D@std@@@std@@@rapidjson@@@?$GenericReader@U?$UTF8@D@rapidjson@@U12@VCrtAllocator@2@@rapidjson@@AAEXW4IterativeParsingState@01@AAV?$BasicIStreamWrapper@V?$basic_istream@DU?$char_traits@D@std@@@std@@@1@@Z 10089690 f i Skinchanger.obj
 0002:0003aac0       ??$IterativeParse@$0BBA@V?$BasicIStreamWrapper@V?$basic_istream@DU?$char_traits@D@std@@@std@@@rapidjson@@V?$GenericDocument@U?$UTF8@D@rapidjson@@V?$MemoryPoolAllocator@VCrtAllocator@rapidjson@@@2@VCrtAllocator@2@@2@@?$GenericReader@U?$UTF8@D@rapidjson@@U12@VCrtAllocator@2@@rapidjson@@AAE?AUParseResult@1@AAV?$BasicIStreamWrapper@V?$basic_istream@DU?$char_traits@D@std@@@std@@@1@AAV?$GenericDocument@U?$UTF8@D@rapidjson@@V?$MemoryPoolAllocator@VCrtAllocator@rapidjson@@@2@VCrtAllocator@2@@1@@Z 10089ac0 f i Skinchanger.obj
 0002:0003acf0       ??$Min3@H@internal@rapidjson@@YAHHHH@Z 10089cf0 f i Skinchanger.obj
 0002:0003ad40       ??$Parse@$0BBA@V?$BasicIStreamWrapper@V?$basic_istream@DU?$char_traits@D@std@@@std@@@rapidjson@@V?$GenericDocument@U?$UTF8@D@rapidjson@@V?$MemoryPoolAllocator@VCrtAllocator@rapidjson@@@2@VCrtAllocator@2@@2@@?$GenericReader@U?$UTF8@D@rapidjson@@U12@VCrtAllocator@2@@rapidjson@@QAE?AUParseResult@1@AAV?$BasicIStreamWrapper@V?$basic_istream@DU?$char_traits@D@std@@@std@@@1@AAV?$GenericDocument@U?$UTF8@D@rapidjson@@V?$MemoryPoolAllocator@VCrtAllocator@rapidjson@@@2@VCrtAllocator@2@@1@@Z 10089d40 f i Skinchanger.obj
 0002:0003b0a0       ??$ParseArray@$0BBA@V?$BasicIStreamWrapper@V?$basic_istream@DU?$char_traits@D@std@@@std@@@rapidjson@@V?$GenericDocument@U?$UTF8@D@rapidjson@@V?$MemoryPoolAllocator@VCrtAllocator@rapidjson@@@2@VCrtAllocator@2@@2@@?$GenericReader@U?$UTF8@D@rapidjson@@U12@VCrtAllocator@2@@rapidjson@@AAEXAAV?$BasicIStreamWrapper@V?$basic_istream@DU?$char_traits@D@std@@@std@@@1@AAV?$GenericDocument@U?$UTF8@D@rapidjson@@V?$MemoryPoolAllocator@VCrtAllocator@rapidjson@@@2@VCrtAllocator@2@@1@@Z 1008a0a0 f i Skinchanger.obj
 0002:0003b510       ??$ParseFalse@$0BBA@V?$BasicIStreamWrapper@V?$basic_istream@DU?$char_traits@D@std@@@std@@@rapidjson@@V?$GenericDocument@U?$UTF8@D@rapidjson@@V?$MemoryPoolAllocator@VCrtAllocator@rapidjson@@@2@VCrtAllocator@2@@2@@?$GenericReader@U?$UTF8@D@rapidjson@@U12@VCrtAllocator@2@@rapidjson@@AAEXAAV?$BasicIStreamWrapper@V?$basic_istream@DU?$char_traits@D@std@@@std@@@1@AAV?$GenericDocument@U?$UTF8@D@rapidjson@@V?$MemoryPoolAllocator@VCrtAllocator@rapidjson@@@2@VCrtAllocator@2@@1@@Z 1008a510 f i Skinchanger.obj
 0002:0003b6e0       ??$ParseHex4@V?$BasicIStreamWrapper@V?$basic_istream@DU?$char_traits@D@std@@@std@@@rapidjson@@@?$GenericReader@U?$UTF8@D@rapidjson@@U12@VCrtAllocator@2@@rapidjson@@AAEIAAV?$BasicIStreamWrapper@V?$basic_istream@DU?$char_traits@D@std@@@std@@@1@I@Z 1008a6e0 f i Skinchanger.obj
 0002:0003b840       ??$ParseNull@$0BBA@V?$BasicIStreamWrapper@V?$basic_istream@DU?$char_traits@D@std@@@std@@@rapidjson@@V?$GenericDocument@U?$UTF8@D@rapidjson@@V?$MemoryPoolAllocator@VCrtAllocator@rapidjson@@@2@VCrtAllocator@2@@2@@?$GenericReader@U?$UTF8@D@rapidjson@@U12@VCrtAllocator@2@@rapidjson@@AAEXAAV?$BasicIStreamWrapper@V?$basic_istream@DU?$char_traits@D@std@@@std@@@1@AAV?$GenericDocument@U?$UTF8@D@rapidjson@@V?$MemoryPoolAllocator@VCrtAllocator@rapidjson@@@2@VCrtAllocator@2@@1@@Z 1008a840 f i Skinchanger.obj
 0002:0003b9f0       ??$ParseNumber@$0BBA@V?$BasicIStreamWrapper@V?$basic_istream@DU?$char_traits@D@std@@@std@@@rapidjson@@V?$GenericDocument@U?$UTF8@D@rapidjson@@V?$MemoryPoolAllocator@VCrtAllocator@rapidjson@@@2@VCrtAllocator@2@@2@@?$GenericReader@U?$UTF8@D@rapidjson@@U12@VCrtAllocator@2@@rapidjson@@AAEXAAV?$BasicIStreamWrapper@V?$basic_istream@DU?$char_traits@D@std@@@std@@@1@AAV?$GenericDocument@U?$UTF8@D@rapidjson@@V?$MemoryPoolAllocator@VCrtAllocator@rapidjson@@@2@VCrtAllocator@2@@1@@Z 1008a9f0 f i Skinchanger.obj
 0002:0003cc70       ??$ParseObject@$0BBA@V?$BasicIStreamWrapper@V?$basic_istream@DU?$char_traits@D@std@@@std@@@rapidjson@@V?$GenericDocument@U?$UTF8@D@rapidjson@@V?$MemoryPoolAllocator@VCrtAllocator@rapidjson@@@2@VCrtAllocator@2@@2@@?$GenericReader@U?$UTF8@D@rapidjson@@U12@VCrtAllocator@2@@rapidjson@@AAEXAAV?$BasicIStreamWrapper@V?$basic_istream@DU?$char_traits@D@std@@@std@@@1@AAV?$GenericDocument@U?$UTF8@D@rapidjson@@V?$MemoryPoolAllocator@VCrtAllocator@rapidjson@@@2@VCrtAllocator@2@@1@@Z 1008bc70 f i Skinchanger.obj
 0002:0003d2a0       ??$ParseStream@$0BBA@U?$UTF8@D@rapidjson@@V?$BasicIStreamWrapper@V?$basic_istream@DU?$char_traits@D@std@@@std@@@2@@?$GenericDocument@U?$UTF8@D@rapidjson@@V?$MemoryPoolAllocator@VCrtAllocator@rapidjson@@@2@VCrtAllocator@2@@rapidjson@@QAEAAV01@AAV?$BasicIStreamWrapper@V?$basic_istream@DU?$char_traits@D@std@@@std@@@1@@Z 1008c2a0 f i Skinchanger.obj
 0002:0003d450       ??$ParseStream@V?$BasicIStreamWrapper@V?$basic_istream@DU?$char_traits@D@std@@@std@@@rapidjson@@@?$GenericDocument@U?$UTF8@D@rapidjson@@V?$MemoryPoolAllocator@VCrtAllocator@rapidjson@@@2@VCrtAllocator@2@@rapidjson@@QAEAAV01@AAV?$BasicIStreamWrapper@V?$basic_istream@DU?$char_traits@D@std@@@std@@@1@@Z 1008c450 f i Skinchanger.obj
 0002:0003d480       ??$ParseString@$0BBA@V?$BasicIStreamWrapper@V?$basic_istream@DU?$char_traits@D@std@@@std@@@rapidjson@@V?$GenericDocument@U?$UTF8@D@rapidjson@@V?$MemoryPoolAllocator@VCrtAllocator@rapidjson@@@2@VCrtAllocator@2@@2@@?$GenericReader@U?$UTF8@D@rapidjson@@U12@VCrtAllocator@2@@rapidjson@@AAEXAAV?$BasicIStreamWrapper@V?$basic_istream@DU?$char_traits@D@std@@@std@@@1@AAV?$GenericDocument@U?$UTF8@D@rapidjson@@V?$MemoryPoolAllocator@VCrtAllocator@rapidjson@@@2@VCrtAllocator@2@@1@_N@Z 1008c480 f i Skinchanger.obj
 0002:0003d740       ??$ParseStringToStream@$0BBA@U?$UTF8@D@rapidjson@@U12@V?$BasicIStreamWrapper@V?$basic_istream@DU?$char_traits@D@std@@@std@@@2@V32@@?$GenericReader@U?$UTF8@D@rapidjson@@U12@VCrtAllocator@2@@rapidjson@@AAEXAAV?$BasicIStreamWrapper@V?$basic_istream@DU?$char_traits@D@std@@@std@@@1@0@Z 1008c740 f i Skinchanger.obj
 0002:0003dd00       ??$ParseStringToStream@$0BBA@U?$UTF8@D@rapidjson@@U12@V?$BasicIStreamWrapper@V?$basic_istream@DU?$char_traits@D@std@@@std@@@2@V?$StackStream@D@?$GenericReader@U?$UTF8@D@rapidjson@@U12@VCrtAllocator@2@@2@@?$GenericReader@U?$UTF8@D@rapidjson@@U12@VCrtAllocator@2@@rapidjson@@AAEXAAV?$BasicIStreamWrapper@V?$basic_istream@DU?$char_traits@D@std@@@std@@@1@AAV?$StackStream@D@01@@Z 1008cd00 f i Skinchanger.obj
 0002:0003e2c0       ??$ParseTrue@$0BBA@V?$BasicIStreamWrapper@V?$basic_istream@DU?$char_traits@D@std@@@std@@@rapidjson@@V?$GenericDocument@U?$UTF8@D@rapidjson@@V?$MemoryPoolAllocator@VCrtAllocator@rapidjson@@@2@VCrtAllocator@2@@2@@?$GenericReader@U?$UTF8@D@rapidjson@@U12@VCrtAllocator@2@@rapidjson@@AAEXAAV?$BasicIStreamWrapper@V?$basic_istream@DU?$char_traits@D@std@@@std@@@1@AAV?$GenericDocument@U?$UTF8@D@rapidjson@@V?$MemoryPoolAllocator@VCrtAllocator@rapidjson@@@2@VCrtAllocator@2@@1@@Z 1008d2c0 f i Skinchanger.obj
 0002:0003e470       ??$ParseValue@$0BBA@V?$BasicIStreamWrapper@V?$basic_istream@DU?$char_traits@D@std@@@std@@@rapidjson@@V?$GenericDocument@U?$UTF8@D@rapidjson@@V?$MemoryPoolAllocator@VCrtAllocator@rapidjson@@@2@VCrtAllocator@2@@2@@?$GenericReader@U?$UTF8@D@rapidjson@@U12@VCrtAllocator@2@@rapidjson@@AAEXAAV?$BasicIStreamWrapper@V?$basic_istream@DU?$char_traits@D@std@@@std@@@1@AAV?$GenericDocument@U?$UTF8@D@rapidjson@@V?$MemoryPoolAllocator@VCrtAllocator@rapidjson@@@2@VCrtAllocator@2@@1@@Z 1008d470 f i Skinchanger.obj
 0002:0003e600       ??$Pop@D@?$Stack@VCrtAllocator@rapidjson@@@internal@rapidjson@@QAEPADI@Z 1008d600 f i Skinchanger.obj
 0002:0003e670       ??$Pop@I@?$Stack@VCrtAllocator@rapidjson@@@internal@rapidjson@@QAEPAII@Z 1008d670 f i Skinchanger.obj
 0002:0003e6f0       ??$Pop@U?$GenericMember@U?$UTF8@D@rapidjson@@V?$MemoryPoolAllocator@VCrtAllocator@rapidjson@@@2@@rapidjson@@@?$Stack@VCrtAllocator@rapidjson@@@internal@rapidjson@@QAEPAU?$GenericMember@U?$UTF8@D@rapidjson@@V?$MemoryPoolAllocator@VCrtAllocator@rapidjson@@@2@@2@I@Z 1008d6f0 f i Skinchanger.obj
 0002:0003e770       ??$Pop@ULevel@?$Writer@V?$BasicOStreamWrapper@V?$basic_ostream@DU?$char_traits@D@std@@@std@@@rapidjson@@U?$UTF8@D@2@U32@VCrtAllocator@2@$01@rapidjson@@@?$Stack@VCrtAllocator@rapidjson@@@internal@rapidjson@@QAEPAULevel@?$Writer@V?$BasicOStreamWrapper@V?$basic_ostream@DU?$char_traits@D@std@@@std@@@rapidjson@@U?$UTF8@D@2@U32@VCrtAllocator@2@$01@2@I@Z 1008d770 f i Skinchanger.obj
 0002:0003e7f0       ??$Pop@V?$GenericValue@U?$UTF8@D@rapidjson@@V?$MemoryPoolAllocator@VCrtAllocator@rapidjson@@@2@@rapidjson@@@?$Stack@VCrtAllocator@rapidjson@@@internal@rapidjson@@QAEPAV?$GenericValue@U?$UTF8@D@rapidjson@@V?$MemoryPoolAllocator@VCrtAllocator@rapidjson@@@2@@2@I@Z 1008d7f0 f i Skinchanger.obj
 0002:0003e870       ??$Push@D@?$Stack@VCrtAllocator@rapidjson@@@internal@rapidjson@@QAEPADI@Z 1008d870 f i Skinchanger.obj
 0002:0003e8b0       ??$Push@I@?$Stack@VCrtAllocator@rapidjson@@@internal@rapidjson@@QAEPAII@Z 1008d8b0 f i Skinchanger.obj
 0002:0003e8f0       ??$Push@ULevel@?$Writer@V?$BasicOStreamWrapper@V?$basic_ostream@DU?$char_traits@D@std@@@std@@@rapidjson@@U?$UTF8@D@2@U32@VCrtAllocator@2@$01@rapidjson@@@?$Stack@VCrtAllocator@rapidjson@@@internal@rapidjson@@QAEPAULevel@?$Writer@V?$BasicOStreamWrapper@V?$basic_ostream@DU?$char_traits@D@std@@@std@@@rapidjson@@U?$UTF8@D@2@U32@VCrtAllocator@2@$01@2@I@Z 1008d8f0 f i Skinchanger.obj
 0002:0003e930       ??$Push@V?$GenericValue@U?$UTF8@D@rapidjson@@V?$MemoryPoolAllocator@VCrtAllocator@rapidjson@@@2@@rapidjson@@@?$Stack@VCrtAllocator@rapidjson@@@internal@rapidjson@@QAEPAV?$GenericValue@U?$UTF8@D@rapidjson@@V?$MemoryPoolAllocator@VCrtAllocator@rapidjson@@@2@@2@I@Z 1008d930 f i Skinchanger.obj
 0002:0003e970       ??$PushUnsafe@D@?$Stack@VCrtAllocator@rapidjson@@@internal@rapidjson@@QAEPADI@Z 1008d970 f i Skinchanger.obj
 0002:0003e9f0       ??$PushUnsafe@I@?$Stack@VCrtAllocator@rapidjson@@@internal@rapidjson@@QAEPAII@Z 1008d9f0 f i Skinchanger.obj
